MPLINK 4.44, Linker
Linker Map File - Created Thu Dec 13 04:07:54 2012

                                 Section Info
                  Section       Type    Address   Location Size(Bytes)
                ---------  ---------  ---------  ---------  ---------
               _entry_scn       code   0x000000    program   0x000006
               highVector       code   0x000008    program   0x000006
               lowhVector       code   0x000018    program   0x000006
                   .cinit    romdata   0x000032    program   0x000026
             .code_zNWK.o       code   0x000058    program   0x004724
             .code_zZDO.o       code   0x00477c    program   0x002bb4
             .code_zAPS.o       code   0x007330    program   0x00252e
    .code_zMAC_MRF24J40.o       code   0x00985e    program   0x001d92
    .code_zPHY_MRF24J40.o       code   0x00b5f0    program   0x000b94
           .code_Router.o       code   0x00c184    program   0x000626
      .code_ZigbeeTasks.o       code   0x00c7aa    program   0x0003ea
             .code_zNVM.o       code   0x00cb94    program   0x0003c4
          .romdata_zNVM.o    romdata   0x00cf58    program   0x000344
            .code_SHT1x.o       code   0x00d29c    program   0x0002e4
                     PROG       code   0x00d580    program   0x0002cc
          .code_sralloc.o       code   0x00d84c    program   0x0002ac
                   STRING       code   0x00daf8    program   0x00012c
          .code_Console.o       code   0x00dc24    program   0x000104
       .code_SymbolTime.o       code   0x00dd28    program   0x0000aa
      .romdata_myZigBee.o    romdata   0x00ddd2    program   0x0000a6
               _cinit_scn       code   0x00de78    program   0x00009e
             .code_MSPI.o       code   0x00df16    program   0x00008e
          .code_fxm3232.o       code   0x00dfa4    program   0x000070
            .code_delay.o       code   0x00e014    program   0x00003e
 .romdata_zMAC_MRF24J40.o    romdata   0x00e052    program   0x00003c
                    .code       code   0x00e08e    program   0x000020
             _startup_scn       code   0x00e0ae    program   0x00001c
       .romdata_Console.o    romdata   0x00e0ca    program   0x000010
           .code___init.o       code   0x00e0da    program   0x000002
        .romdata_Router.o    romdata   0x00e0dc    program   0x000000
         .romdata_SHT1x.o    romdata   0x00e0dc    program   0x000000
          .romdata_zZDO.o    romdata   0x00e0dc    program   0x000000
          .idata_zZDO.o_i    romdata   0x00e0dc    program   0x000000
         .romdata_delay.o    romdata   0x00e0dc    program   0x000000
 .romdata_zPHY_MRF24J40.o    romdata   0x00e0dc    program   0x000000
 .idata_zPHY_MRF24J40.o_i    romdata   0x00e0dc    program   0x000000
          .romdata_zNWK.o    romdata   0x00e0dc    program   0x000000
          .idata_zNWK.o_i    romdata   0x00e0dc    program   0x000002
       .romdata_fxm3232.o    romdata   0x00e0dc    program   0x000000
          .romdata_MSPI.o    romdata   0x00e0dc    program   0x000000
        .romdata___init.o    romdata   0x00e0dc    program   0x000000
   .romdata_ZigbeeTasks.o    romdata   0x00e0dc    program   0x000000
         .romdata_c018i.o    romdata   0x00e0dc    program   0x000000
       .romdata_sralloc.o    romdata   0x00e0dc    program   0x000000
          .romdata_zAPS.o    romdata   0x00e0dc    program   0x000000
    .romdata_SymbolTime.o    romdata   0x00e0dc    program   0x000000
          .idata_zNVM.o_i    romdata   0x00e0de    program   0x000000
 .idata_zMAC_MRF24J40.o_i    romdata   0x00e0de    program   0x000000
          .idata_zAPS.o_i    romdata   0x00e0de    program   0x000002
        .idata___init.o_i    romdata   0x00e0e0    program   0x000000
       .idata_fxm3232.o_i    romdata   0x00e0e0    program   0x000000
         .idata_c018i.o_i    romdata   0x00e0e0    program   0x000000
         .idata_SHT1x.o_i    romdata   0x00e0e0    program   0x000000
        .idata_Router.o_i    romdata   0x00e0e0    program   0x000002
         .idata_delay.o_i    romdata   0x00e0e0    program   0x000000
      .idata_myZigBee.o_i    romdata   0x00e0e0    program   0x000000
       .idata_sralloc.o_i    romdata   0x00e0e0    program   0x000000
   .idata_ZigbeeTasks.o_i    romdata   0x00e0e0    program   0x000000
    .idata_SymbolTime.o_i    romdata   0x00e0e0    program   0x000000
       .idata_Console.o_i    romdata   0x00e0e2    program   0x000000
          .idata_MSPI.o_i    romdata   0x00e0e2    program   0x000000
            .code_c018i.o       code   0x00e0e2    program   0x000000
         .code_myZigBee.o       code   0x00e0e2    program   0x000000
                 CONFIG1H    romdata   0x300001    program   0x000001
                 CONFIG2L    romdata   0x300002    program   0x000001
                 CONFIG2H    romdata   0x300003    program   0x000001
                 CONFIG3H    romdata   0x300005    program   0x000001
                 CONFIG4L    romdata   0x300006    program   0x000001
                MATH_DATA      udata   0x000000       data   0x000014
                 .tmpdata      udata   0x000014       data   0x000010
              HighISR_tmp      udata   0x000024       data   0x000004
                    gpr11      udata   0x000060       data   0x000030
          .udata_Router.o      udata   0x000090       data   0x00000e
           .udata_c018i.o      udata   0x00009e       data   0x00000a
          .idata_Router.o      idata   0x0000a8       data   0x000002
            MultiBankHeap      udata   0x000100       data   0x000600
                   .stack      udata   0x000700       data   0x000100
                RX_BUFFER      udata   0x000800       data   0x000100
            .udata_zNWK.o      udata   0x000900       data   0x0000fc
            .idata_zNWK.o      idata   0x0009fc       data   0x000002
            .idata_zAPS.o      idata   0x0009fe       data   0x000002
     .udata_ZigbeeTasks.o      udata   0x000a00       data   0x0000aa
   .udata_zMAC_MRF24J40.o      udata   0x000aaa       data   0x000053
      .udata_SymbolTime.o      udata   0x000afd       data   0x000002
            .idata_zNVM.o      idata   0x000aff       data   0x000000
   .idata_zPHY_MRF24J40.o      idata   0x000aff       data   0x000000
           .udata_delay.o      udata   0x000aff       data   0x000000
            .idata_zZDO.o      idata   0x000aff       data   0x000000
           .idata_SHT1x.o      idata   0x000aff       data   0x000000
           .udata_SHT1x.o      udata   0x000aff       data   0x000000
         .udata_fxm3232.o      udata   0x000aff       data   0x000000
         .idata_fxm3232.o      idata   0x000aff       data   0x000000
          .udata___init.o      udata   0x000aff       data   0x000000
          .idata___init.o      idata   0x000aff       data   0x000000
           .idata_c018i.o      idata   0x000aff       data   0x000000
         .idata_Console.o      idata   0x000aff       data   0x000000
            .udata_MSPI.o      udata   0x000aff       data   0x000000
            .idata_MSPI.o      idata   0x000aff       data   0x000000
        .udata_myZigBee.o      udata   0x000aff       data   0x000000
        .idata_myZigBee.o      idata   0x000aff       data   0x000000
         .udata_sralloc.o      udata   0x000aff       data   0x000000
         .idata_sralloc.o      idata   0x000aff       data   0x000000
         .udata_Console.o      udata   0x000aff       data   0x000000
      .idata_SymbolTime.o      idata   0x000aff       data   0x000000
     .idata_ZigbeeTasks.o      idata   0x000aff       data   0x000000
   .idata_zMAC_MRF24J40.o      idata   0x000aff       data   0x000000
           .idata_delay.o      idata   0x000aff       data   0x000000
                DUP_TABLE      udata   0x000c00       data   0x000078
            .udata_zZDO.o      udata   0x000c78       data   0x00003f
            .udata_zNVM.o      udata   0x000cb7       data   0x00003c
   .udata_zPHY_MRF24J40.o      udata   0x000cf3       data   0x00000c
            .udata_zAPS.o      udata   0x000f00       data   0x00005e
              temp_tblptr      udata   0x000f5e       data   0x000002
            SFR_UNBANKED0      udata   0x000f77       data   0x000089



                              Program Memory Usage 
                               Start         End      
                           ---------   ---------      
                            0x000000    0x000005      
                            0x000008    0x00000d      
                            0x000018    0x00001d      
                            0x000032    0x00e0e1      
                            0x300001    0x300003      
                            0x300005    0x300006      
            57543 out of 66584 program addresses used, program memory utilization is 86%



                              Symbols - Sorted by Name
                     Name    Address   Location    Storage File                     
                ---------  ---------  ---------  --------- ---------                
        APSAddBindingInfo   0x008486    program     extern C:\Users\TienDat\Desktop\ActorHome\PIC18_Zigbee_v2\PIC18_Zigbee_R&D_by_Lab411\Microchip\ZigBeeStack\zAPS.c
  APSClearAPSAddressTable   0x008784    program     extern C:\Users\TienDat\Desktop\ActorHome\PIC18_Zigbee_v2\PIC18_Zigbee_R&D_by_Lab411\Microchip\ZigBeeStack\zAPS.c
       APSFromLongToShort   0x008d52    program     extern C:\Users\TienDat\Desktop\ActorHome\PIC18_Zigbee_v2\PIC18_Zigbee_R&D_by_Lab411\Microchip\ZigBeeStack\zAPS.c
       APSFromShortToLong   0x008cf8    program     extern C:\Users\TienDat\Desktop\ActorHome\PIC18_Zigbee_v2\PIC18_Zigbee_R&D_by_Lab411\Microchip\ZigBeeStack\zAPS.c
                   APSGet   0x0087c6    program     extern C:\Users\TienDat\Desktop\ActorHome\PIC18_Zigbee_v2\PIC18_Zigbee_R&D_by_Lab411\Microchip\ZigBeeStack\zAPS.c
    APSHasBackgroundTasks   0x007330    program     extern C:\Users\TienDat\Desktop\ActorHome\PIC18_Zigbee_v2\PIC18_Zigbee_R&D_by_Lab411\Microchip\ZigBeeStack\zAPS.c
                  APSInit   0x00733c    program     extern C:\Users\TienDat\Desktop\ActorHome\PIC18_Zigbee_v2\PIC18_Zigbee_R&D_by_Lab411\Microchip\ZigBeeStack\zAPS.c
     APSRemoveBindingInfo   0x0087e2    program     extern C:\Users\TienDat\Desktop\ActorHome\PIC18_Zigbee_v2\PIC18_Zigbee_R&D_by_Lab411\Microchip\ZigBeeStack\zAPS.c
        APSSaveAPSAddress   0x0089a6    program     extern C:\Users\TienDat\Desktop\ActorHome\PIC18_Zigbee_v2\PIC18_Zigbee_R&D_by_Lab411\Microchip\ZigBeeStack\zAPS.c
                 APSTasks   0x0074a4    program     extern C:\Users\TienDat\Desktop\ActorHome\PIC18_Zigbee_v2\PIC18_Zigbee_R&D_by_Lab411\Microchip\ZigBeeStack\zAPS.c
             AddChildNode   0x002a24    program     extern C:\Users\TienDat\Desktop\ActorHome\PIC18_Zigbee_v2\PIC18_Zigbee_R&D_by_Lab411\Microchip\ZigBeeStack\zNWK.c
                 AddGroup   0x008e7e    program     extern C:\Users\TienDat\Desktop\ActorHome\PIC18_Zigbee_v2\PIC18_Zigbee_R&D_by_Lab411\Microchip\ZigBeeStack\zAPS.c
          CanAddChildNode   0x002ae6    program     extern C:\Users\TienDat\Desktop\ActorHome\PIC18_Zigbee_v2\PIC18_Zigbee_R&D_by_Lab411\Microchip\ZigBeeStack\zNWK.c
       CanAddNeighborNode   0x002b58    program     extern C:\Users\TienDat\Desktop\ActorHome\PIC18_Zigbee_v2\PIC18_Zigbee_R&D_by_Lab411\Microchip\ZigBeeStack\zNWK.c
           CharacterArray   0x00e0ca    program     extern C:\Users\TienDat\Desktop\ActorHome\PIC18_Zigbee_v2\PIC18_Zigbee_R&D_by_Lab411\Microchip\Common\Console.c
                 ClearNVM   0x00ce80    program     extern C:\Users\TienDat\Desktop\ActorHome\PIC18_Zigbee_v2\PIC18_Zigbee_R&D_by_Lab411\Microchip\ZigBeeStack\zNVM.c
Config_NWK_Mode_and_Params   0x00de6e    program     extern C:\Users\TienDat\Desktop\ActorHome\PIC18_Zigbee_v2\PIC18_Zigbee_R&D_by_Lab411\DemoPIC18Router\myZigBee.c
   Config_Node_Descriptor   0x00ddd2    program     extern C:\Users\TienDat\Desktop\ActorHome\PIC18_Zigbee_v2\PIC18_Zigbee_R&D_by_Lab411\DemoPIC18Router\myZigBee.c
  Config_Power_Descriptor   0x00dddc    program     extern C:\Users\TienDat\Desktop\ActorHome\PIC18_Zigbee_v2\PIC18_Zigbee_R&D_by_Lab411\DemoPIC18Router\myZigBee.c
Config_Simple_Descriptors   0x00ddde    program     extern C:\Users\TienDat\Desktop\ActorHome\PIC18_Zigbee_v2\PIC18_Zigbee_R&D_by_Lab411\DemoPIC18Router\myZigBee.c
              ConsoleInit   0x00dc24    program     extern C:\Users\TienDat\Desktop\ActorHome\PIC18_Zigbee_v2\PIC18_Zigbee_R&D_by_Lab411\Microchip\Common\Console.c
               ConsolePut   0x00dc36    program     extern C:\Users\TienDat\Desktop\ActorHome\PIC18_Zigbee_v2\PIC18_Zigbee_R&D_by_Lab411\Microchip\Common\Console.c
      ConsolePutROMString   0x00dc44    program     extern C:\Users\TienDat\Desktop\ActorHome\PIC18_Zigbee_v2\PIC18_Zigbee_R&D_by_Lab411\Microchip\Common\Console.c
             CreateNewBTR   0x002b88    program     extern C:\Users\TienDat\Desktop\ActorHome\PIC18_Zigbee_v2\PIC18_Zigbee_R&D_by_Lab411\Microchip\ZigBeeStack\zNWK.c
         CreateRouteReply   0x002c3c    program     extern C:\Users\TienDat\Desktop\ActorHome\PIC18_Zigbee_v2\PIC18_Zigbee_R&D_by_Lab411\Microchip\ZigBeeStack\zNWK.c
CreateRoutingTableEntries   0x002ce4    program     extern C:\Users\TienDat\Desktop\ActorHome\PIC18_Zigbee_v2\PIC18_Zigbee_R&D_by_Lab411\Microchip\ZigBeeStack\zNWK.c
                  DelayMs   0x00e014    program     extern C:\Users\TienDat\Desktop\ActorHome\PIC18_Zigbee_v2\PIC18_Zigbee_R&D_by_Lab411\Microchip\Common\delay.c
      DoneReceivingPacket   0x00c0b0    program     static                          
          DuplicatePacket   0x008d7e    program     extern C:\Users\TienDat\Desktop\ActorHome\PIC18_Zigbee_v2\PIC18_Zigbee_R&D_by_Lab411\Microchip\ZigBeeStack\zAPS.c
                 FLO3232S   0x00d584    program     extern D:\3.43\pic18-lt\cxx-framework\src\traditional\math\cast32FP.asm
                 FLO3232U   0x00d580    program     extern D:\3.43\pic18-lt\cxx-framework\src\traditional\math\cast32FP.asm
                 FXM1616U   0x00d5b6    program     extern D:\3.43\pic18-lt\cxx-framework\src\traditional\math\fxm1616u.asm
                 FXM2424U   0x00d5f2    program     extern D:\3.43\pic18-lt\cxx-framework\src\traditional\math\fxm2424u.asm
                  FXM3232   0x00dfa4    program     extern D:\3.43\pic18-lt\cxx-framework\src\traditional\math\fxm3232.c
   FinishAddressResponses   0x005b20    program     extern C:\Users\TienDat\Desktop\ActorHome\PIC18_Zigbee_v2\PIC18_Zigbee_R&D_by_Lab411\Microchip\ZigBeeStack\zZDO.c
              GetCSkipVal   0x002de2    program     extern C:\Users\TienDat\Desktop\ActorHome\PIC18_Zigbee_v2\PIC18_Zigbee_R&D_by_Lab411\Microchip\ZigBeeStack\zNWK.c
            GetEmptyGroup   0x008e52    program     extern C:\Users\TienDat\Desktop\ActorHome\PIC18_Zigbee_v2\PIC18_Zigbee_R&D_by_Lab411\Microchip\ZigBeeStack\zAPS.c
    GetEndPointsFromGroup   0x008e1c    program     extern C:\Users\TienDat\Desktop\ActorHome\PIC18_Zigbee_v2\PIC18_Zigbee_R&D_by_Lab411\Microchip\ZigBeeStack\zAPS.c
               GetNextHop   0x002e42    program     extern C:\Users\TienDat\Desktop\ActorHome\PIC18_Zigbee_v2\PIC18_Zigbee_R&D_by_Lab411\Microchip\ZigBeeStack\zNWK.c
GetOneEndDeviceBindRequest   0x005c9e    program     extern C:\Users\TienDat\Desktop\ActorHome\PIC18_Zigbee_v2\PIC18_Zigbee_R&D_by_Lab411\Microchip\ZigBeeStack\zZDO.c
        GetRoutingAddress   0x002eb6    program     extern C:\Users\TienDat\Desktop\ActorHome\PIC18_Zigbee_v2\PIC18_Zigbee_R&D_by_Lab411\Microchip\ZigBeeStack\zNWK.c
             HardwareInit   0x00c578    program     extern C:\Users\TienDat\Desktop\ActorHome\PIC18_Zigbee_v2\PIC18_Zigbee_R&D_by_Lab411\DemoPIC18Router\Router.c
      HaveRoutingCapacity   0x002f72    program     extern C:\Users\TienDat\Desktop\ActorHome\PIC18_Zigbee_v2\PIC18_Zigbee_R&D_by_Lab411\Microchip\ZigBeeStack\zNWK.c
                  HighISR   0x00bd4e    program     extern C:\Users\TienDat\Desktop\ActorHome\PIC18_Zigbee_v2\PIC18_Zigbee_R&D_by_Lab411\Microchip\ZigBeeStack\zPHY_MRF24J40.c
               HighVector   0x000008    program     extern C:\Users\TienDat\Desktop\ActorHome\PIC18_Zigbee_v2\PIC18_Zigbee_R&D_by_Lab411\Microchip\ZigBeeStack\zPHY_MRF24J40.c
          InitSymbolTimer   0x00dd28    program     extern C:\Users\TienDat\Desktop\ActorHome\PIC18_Zigbee_v2\PIC18_Zigbee_R&D_by_Lab411\Microchip\ZigBeeStack\SymbolTime.c
   InitiateRouteDiscovery   0x003040    program     extern C:\Users\TienDat\Desktop\ActorHome\PIC18_Zigbee_v2\PIC18_Zigbee_R&D_by_Lab411\Microchip\ZigBeeStack\zNWK.c
             IsDescendant   0x00344a    program     extern C:\Users\TienDat\Desktop\ActorHome\PIC18_Zigbee_v2\PIC18_Zigbee_R&D_by_Lab411\Microchip\ZigBeeStack\zNWK.c
        IsThisMyShortAddr   0x005c3a    program     extern C:\Users\TienDat\Desktop\ActorHome\PIC18_Zigbee_v2\PIC18_Zigbee_R&D_by_Lab411\Microchip\ZigBeeStack\zZDO.c
                LoadSHT10   0x00c666    program     extern C:\Users\TienDat\Desktop\ActorHome\PIC18_Zigbee_v2\PIC18_Zigbee_R&D_by_Lab411\DemoPIC18Router\Router.c
         LookupAPSAddress   0x008952    program     extern C:\Users\TienDat\Desktop\ActorHome\PIC18_Zigbee_v2\PIC18_Zigbee_R&D_by_Lab411\Microchip\ZigBeeStack\zAPS.c
     LookupAPSLongAddress   0x008a2e    program     extern C:\Users\TienDat\Desktop\ActorHome\PIC18_Zigbee_v2\PIC18_Zigbee_R&D_by_Lab411\Microchip\ZigBeeStack\zAPS.c
  LookupSourceBindingInfo   0x008a70    program     extern C:\Users\TienDat\Desktop\ActorHome\PIC18_Zigbee_v2\PIC18_Zigbee_R&D_by_Lab411\Microchip\ZigBeeStack\zAPS.c
                LowVector   0x000018    program     extern C:\Users\TienDat\Desktop\ActorHome\PIC18_Zigbee_v2\PIC18_Zigbee_R&D_by_Lab411\Microchip\ZigBeeStack\zPHY_MRF24J40.c
               MACDisable   0x009898    program     extern C:\Users\TienDat\Desktop\ActorHome\PIC18_Zigbee_v2\PIC18_Zigbee_R&D_by_Lab411\Microchip\ZigBeeStack\zMAC_MRF24J40.c
             MACDiscardRx   0x009880    program     extern C:\Users\TienDat\Desktop\ActorHome\PIC18_Zigbee_v2\PIC18_Zigbee_R&D_by_Lab411\Microchip\ZigBeeStack\zMAC_MRF24J40.c
                MACEnable   0x0098a4    program     extern C:\Users\TienDat\Desktop\ActorHome\PIC18_Zigbee_v2\PIC18_Zigbee_R&D_by_Lab411\Microchip\ZigBeeStack\zMAC_MRF24J40.c
                   MACGet   0x00986a    program     extern C:\Users\TienDat\Desktop\ActorHome\PIC18_Zigbee_v2\PIC18_Zigbee_R&D_by_Lab411\Microchip\ZigBeeStack\zMAC_MRF24J40.c
    MACHasBackgroundTasks   0x00985e    program     extern C:\Users\TienDat\Desktop\ActorHome\PIC18_Zigbee_v2\PIC18_Zigbee_R&D_by_Lab411\Microchip\ZigBeeStack\zMAC_MRF24J40.c
                  MACInit   0x009924    program     extern C:\Users\TienDat\Desktop\ActorHome\PIC18_Zigbee_v2\PIC18_Zigbee_R&D_by_Lab411\Microchip\ZigBeeStack\zMAC_MRF24J40.c
                 MACTasks   0x009964    program     extern C:\Users\TienDat\Desktop\ActorHome\PIC18_Zigbee_v2\PIC18_Zigbee_R&D_by_Lab411\Microchip\ZigBeeStack\zMAC_MRF24J40.c
     MLME_SET_macPANId_hw   0x00afbc    program     extern C:\Users\TienDat\Desktop\ActorHome\PIC18_Zigbee_v2\PIC18_Zigbee_R&D_by_Lab411\Microchip\ZigBeeStack\zMAC_MRF24J40.c
MLME_SET_macShortAddress_hw   0x00afcc    program     extern C:\Users\TienDat\Desktop\ActorHome\PIC18_Zigbee_v2\PIC18_Zigbee_R&D_by_Lab411\Microchip\ZigBeeStack\zMAC_MRF24J40.c
            MRF24J40Sleep   0x00b924    program     extern C:\Users\TienDat\Desktop\ActorHome\PIC18_Zigbee_v2\PIC18_Zigbee_R&D_by_Lab411\Microchip\ZigBeeStack\zPHY_MRF24J40.c
             MRF24J40Wake   0x00b962    program     extern C:\Users\TienDat\Desktop\ActorHome\PIC18_Zigbee_v2\PIC18_Zigbee_R&D_by_Lab411\Microchip\ZigBeeStack\zPHY_MRF24J40.c
MarkNeighborAsPasssiveACKed   0x0034d4    program     extern C:\Users\TienDat\Desktop\ActorHome\PIC18_Zigbee_v2\PIC18_Zigbee_R&D_by_Lab411\Microchip\ZigBeeStack\zNWK.c
         NLME_GET_nwkBCSN   0x00351e    program     extern C:\Users\TienDat\Desktop\ActorHome\PIC18_Zigbee_v2\PIC18_Zigbee_R&D_by_Lab411\Microchip\ZigBeeStack\zNWK.c
                  NVMInit   0x00cb94    program     extern C:\Users\TienDat\Desktop\ActorHome\PIC18_Zigbee_v2\PIC18_Zigbee_R&D_by_Lab411\Microchip\ZigBeeStack\zNVM.c
                 NVMWrite   0x00cb96    program     extern C:\Users\TienDat\Desktop\ActorHome\PIC18_Zigbee_v2\PIC18_Zigbee_R&D_by_Lab411\Microchip\ZigBeeStack\zNVM.c
    NWKClearNeighborTable   0x00352c    program     extern C:\Users\TienDat\Desktop\ActorHome\PIC18_Zigbee_v2\PIC18_Zigbee_R&D_by_Lab411\Microchip\ZigBeeStack\zNWK.c
     NWKClearRoutingTable   0x00357c    program     extern C:\Users\TienDat\Desktop\ActorHome\PIC18_Zigbee_v2\PIC18_Zigbee_R&D_by_Lab411\Microchip\ZigBeeStack\zNWK.c
                   NWKGet   0x0035b0    program     extern C:\Users\TienDat\Desktop\ActorHome\PIC18_Zigbee_v2\PIC18_Zigbee_R&D_by_Lab411\Microchip\ZigBeeStack\zNWK.c
    NWKHasBackgroundTasks   0x000058    program     extern C:\Users\TienDat\Desktop\ActorHome\PIC18_Zigbee_v2\PIC18_Zigbee_R&D_by_Lab411\Microchip\ZigBeeStack\zNWK.c
                  NWKInit   0x000072    program     extern C:\Users\TienDat\Desktop\ActorHome\PIC18_Zigbee_v2\PIC18_Zigbee_R&D_by_Lab411\Microchip\ZigBeeStack\zNWK.c
  NWKLookupNodeByLongAddr   0x0035c8    program     extern C:\Users\TienDat\Desktop\ActorHome\PIC18_Zigbee_v2\PIC18_Zigbee_R&D_by_Lab411\Microchip\ZigBeeStack\zNWK.c
NWKLookupNodeByShortAddrVal   0x003602    program     extern C:\Users\TienDat\Desktop\ActorHome\PIC18_Zigbee_v2\PIC18_Zigbee_R&D_by_Lab411\Microchip\ZigBeeStack\zNWK.c
NWKLookupNodeByShortAddrValAndPANID   0x00363a    program     extern C:\Users\TienDat\Desktop\ActorHome\PIC18_Zigbee_v2\PIC18_Zigbee_R&D_by_Lab411\Microchip\ZigBeeStack\zNWK.c
                 NWKTasks   0x0000fe    program     extern C:\Users\TienDat\Desktop\ActorHome\PIC18_Zigbee_v2\PIC18_Zigbee_R&D_by_Lab411\Microchip\ZigBeeStack\zNWK.c
   NWKThisIsMyLongAddress   0x00368a    program     extern C:\Users\TienDat\Desktop\ActorHome\PIC18_Zigbee_v2\PIC18_Zigbee_R&D_by_Lab411\Microchip\ZigBeeStack\zNWK.c
     NWKTidyNeighborTable   0x0036d4    program     extern C:\Users\TienDat\Desktop\ActorHome\PIC18_Zigbee_v2\PIC18_Zigbee_R&D_by_Lab411\Microchip\ZigBeeStack\zNWK.c
                   PHYGet   0x00b5f0    program     extern C:\Users\TienDat\Desktop\ActorHome\PIC18_Zigbee_v2\PIC18_Zigbee_R&D_by_Lab411\Microchip\ZigBeeStack\zPHY_MRF24J40.c
        PHYGetLongRAMAddr   0x00bc9e    program     extern C:\Users\TienDat\Desktop\ActorHome\PIC18_Zigbee_v2\PIC18_Zigbee_R&D_by_Lab411\Microchip\ZigBeeStack\zPHY_MRF24J40.c
       PHYGetShortRAMAddr   0x00bc3c    program     extern C:\Users\TienDat\Desktop\ActorHome\PIC18_Zigbee_v2\PIC18_Zigbee_R&D_by_Lab411\Microchip\ZigBeeStack\zPHY_MRF24J40.c
    PHYHasBackgroundTasks   0x00b60e    program     extern C:\Users\TienDat\Desktop\ActorHome\PIC18_Zigbee_v2\PIC18_Zigbee_R&D_by_Lab411\Microchip\ZigBeeStack\zPHY_MRF24J40.c
                  PHYInit   0x00b614    program     extern C:\Users\TienDat\Desktop\ActorHome\PIC18_Zigbee_v2\PIC18_Zigbee_R&D_by_Lab411\Microchip\ZigBeeStack\zPHY_MRF24J40.c
        PHYSetLongRAMAddr   0x00bb3e    program     extern C:\Users\TienDat\Desktop\ActorHome\PIC18_Zigbee_v2\PIC18_Zigbee_R&D_by_Lab411\Microchip\ZigBeeStack\zPHY_MRF24J40.c
        PHYSetOutputPower   0x00bd40    program     extern C:\Users\TienDat\Desktop\ActorHome\PIC18_Zigbee_v2\PIC18_Zigbee_R&D_by_Lab411\Microchip\ZigBeeStack\zPHY_MRF24J40.c
       PHYSetShortRAMAddr   0x00bbda    program     extern C:\Users\TienDat\Desktop\ActorHome\PIC18_Zigbee_v2\PIC18_Zigbee_R&D_by_Lab411\Microchip\ZigBeeStack\zPHY_MRF24J40.c
                 PHYTasks   0x00ba56    program     extern C:\Users\TienDat\Desktop\ActorHome\PIC18_Zigbee_v2\PIC18_Zigbee_R&D_by_Lab411\Microchip\ZigBeeStack\zPHY_MRF24J40.c
   PrepareMessageResponse   0x00612c    program     extern C:\Users\TienDat\Desktop\ActorHome\PIC18_Zigbee_v2\PIC18_Zigbee_R&D_by_Lab411\Microchip\ZigBeeStack\zZDO.c
Prepare_MCPS_DATA_request   0x003724    program     extern C:\Users\TienDat\Desktop\ActorHome\PIC18_Zigbee_v2\PIC18_Zigbee_R&D_by_Lab411\Microchip\ZigBeeStack\zNWK.c
                PrintChar   0x00dc76    program     extern C:\Users\TienDat\Desktop\ActorHome\PIC18_Zigbee_v2\PIC18_Zigbee_R&D_by_Lab411\Microchip\Common\Console.c
                PrintWord   0x00dcac    program     extern C:\Users\TienDat\Desktop\ActorHome\PIC18_Zigbee_v2\PIC18_Zigbee_R&D_by_Lab411\Microchip\Common\Console.c
     ProcessBindAndUnbind   0x00649a    program     extern C:\Users\TienDat\Desktop\ActorHome\PIC18_Zigbee_v2\PIC18_Zigbee_R&D_by_Lab411\Microchip\ZigBeeStack\zZDO.c
     ProcessEndDeviceBind   0x005e90    program     extern C:\Users\TienDat\Desktop\ActorHome\PIC18_Zigbee_v2\PIC18_Zigbee_R&D_by_Lab411\Microchip\ZigBeeStack\zZDO.c
    ProcessNONZigBeeTasks   0x00c554    program     extern C:\Users\TienDat\Desktop\ActorHome\PIC18_Zigbee_v2\PIC18_Zigbee_R&D_by_Lab411\DemoPIC18Router\Router.c
  ProcessZigBeePrimitives   0x00c21a    program     extern C:\Users\TienDat\Desktop\ActorHome\PIC18_Zigbee_v2\PIC18_Zigbee_R&D_by_Lab411\DemoPIC18Router\Router.c
        RemoveAllBindings   0x008af6    program     extern C:\Users\TienDat\Desktop\ActorHome\PIC18_Zigbee_v2\PIC18_Zigbee_R&D_by_Lab411\Microchip\ZigBeeStack\zAPS.c
          RemoveAllGroups   0x008fea    program     extern C:\Users\TienDat\Desktop\ActorHome\PIC18_Zigbee_v2\PIC18_Zigbee_R&D_by_Lab411\Microchip\ZigBeeStack\zAPS.c
              RemoveGroup   0x008f18    program     extern C:\Users\TienDat\Desktop\ActorHome\PIC18_Zigbee_v2\PIC18_Zigbee_R&D_by_Lab411\Microchip\ZigBeeStack\zAPS.c
 RemoveNeighborTableEntry   0x003794    program     extern C:\Users\TienDat\Desktop\ActorHome\PIC18_Zigbee_v2\PIC18_Zigbee_R&D_by_Lab411\Microchip\ZigBeeStack\zNWK.c
           RouteAlongTree   0x0037e0    program     extern C:\Users\TienDat\Desktop\ActorHome\PIC18_Zigbee_v2\PIC18_Zigbee_R&D_by_Lab411\Microchip\ZigBeeStack\zNWK.c
                   SPIGet   0x00df2c    program     extern C:\Users\TienDat\Desktop\ActorHome\PIC18_Zigbee_v2\PIC18_Zigbee_R&D_by_Lab411\Microchip\Common\MSPI.c
              SPIGetArray   0x00df36    program     extern C:\Users\TienDat\Desktop\ActorHome\PIC18_Zigbee_v2\PIC18_Zigbee_R&D_by_Lab411\Microchip\Common\MSPI.c
                   SPIPut   0x00df16    program     extern C:\Users\TienDat\Desktop\ActorHome\PIC18_Zigbee_v2\PIC18_Zigbee_R&D_by_Lab411\Microchip\Common\MSPI.c
              SPIPutArray   0x00df50    program     extern C:\Users\TienDat\Desktop\ActorHome\PIC18_Zigbee_v2\PIC18_Zigbee_R&D_by_Lab411\Microchip\Common\MSPI.c
             SRAMInitHeap   0x00d93e    program     extern C:\Users\TienDat\Desktop\ActorHome\PIC18_Zigbee_v2\PIC18_Zigbee_R&D_by_Lab411\Microchip\Common\sralloc.c
                SRAMalloc   0x00d84c    program     extern C:\Users\TienDat\Desktop\ActorHome\PIC18_Zigbee_v2\PIC18_Zigbee_R&D_by_Lab411\Microchip\Common\sralloc.c
                 SRAMfree   0x00d930    program     extern C:\Users\TienDat\Desktop\ActorHome\PIC18_Zigbee_v2\PIC18_Zigbee_R&D_by_Lab411\Microchip\Common\sralloc.c
   SendBindAddressRequest   0x0067ac    program     extern C:\Users\TienDat\Desktop\ActorHome\PIC18_Zigbee_v2\PIC18_Zigbee_R&D_by_Lab411\Microchip\ZigBeeStack\zZDO.c
              SendOneByte   0x00c60e    program     extern C:\Users\TienDat\Desktop\ActorHome\PIC18_Zigbee_v2\PIC18_Zigbee_R&D_by_Lab411\DemoPIC18Router\Router.c
         SendUpBindResult   0x006826    program     extern C:\Users\TienDat\Desktop\ActorHome\PIC18_Zigbee_v2\PIC18_Zigbee_R&D_by_Lab411\Microchip\ZigBeeStack\zZDO.c
 Send_END_DEVICE_BIND_rsp   0x006072    program     extern C:\Users\TienDat\Desktop\ActorHome\PIC18_Zigbee_v2\PIC18_Zigbee_R&D_by_Lab411\Microchip\ZigBeeStack\zZDO.c
 Send_HTE_ToRouterEmboard   0x00c630    program     extern C:\Users\TienDat\Desktop\ActorHome\PIC18_Zigbee_v2\PIC18_Zigbee_R&D_by_Lab411\DemoPIC18Router\Router.c
         SetBeaconPayload   0x003886    program     extern C:\Users\TienDat\Desktop\ActorHome\PIC18_Zigbee_v2\PIC18_Zigbee_R&D_by_Lab411\Microchip\ZigBeeStack\zNWK.c
                  TAGTB32   0x00d684    program     extern D:\3.43\pic18-lt\cxx-framework\src\traditional\math\gtFP.asm
                  TickGet   0x00dd3c    program     extern C:\Users\TienDat\Desktop\ActorHome\PIC18_Zigbee_v2\PIC18_Zigbee_R&D_by_Lab411\Microchip\ZigBeeStack\SymbolTime.c
     UserInterruptHandler   0x00c5ba    program     extern C:\Users\TienDat\Desktop\ActorHome\PIC18_Zigbee_v2\PIC18_Zigbee_R&D_by_Lab411\DemoPIC18Router\Router.c
VariableAndTableInitialization   0x0038dc    program     extern C:\Users\TienDat\Desktop\ActorHome\PIC18_Zigbee_v2\PIC18_Zigbee_R&D_by_Lab411\Microchip\ZigBeeStack\zNWK.c
    ZDOHasBackgroundTasks   0x00477c    program     extern C:\Users\TienDat\Desktop\ActorHome\PIC18_Zigbee_v2\PIC18_Zigbee_R&D_by_Lab411\Microchip\ZigBeeStack\zZDO.c
                  ZDOInit   0x004788    program     extern C:\Users\TienDat\Desktop\ActorHome\PIC18_Zigbee_v2\PIC18_Zigbee_R&D_by_Lab411\Microchip\ZigBeeStack\zZDO.c
                 ZDOTasks   0x00479c    program     extern C:\Users\TienDat\Desktop\ActorHome\PIC18_Zigbee_v2\PIC18_Zigbee_R&D_by_Lab411\Microchip\ZigBeeStack\zZDO.c
               ZigBeeInit   0x00c7aa    program     extern C:\Users\TienDat\Desktop\ActorHome\PIC18_Zigbee_v2\PIC18_Zigbee_R&D_by_Lab411\Microchip\ZigBeeStack\ZigbeeTasks.c
              ZigBeeTasks   0x00c7e0    program     extern C:\Users\TienDat\Desktop\ActorHome\PIC18_Zigbee_v2\PIC18_Zigbee_R&D_by_Lab411\Microchip\ZigBeeStack\ZigbeeTasks.c
              _3jContinue   0x00db74    program     static D:\3.43\pic18-lt\cxx-framework\src\traditional\stdclib\mcmpp2r.asm
              _3jContinue   0x00dc10    program     static D:\3.43\pic18-lt\cxx-framework\src\traditional\stdclib\mcpyp2r.asm
              _4jContinue   0x00dbbc    program     static D:\3.43\pic18-lt\cxx-framework\src\traditional\stdclib\memcpy.asm
              _4jContinue   0x00db24    program     static D:\3.43\pic18-lt\cxx-framework\src\traditional\stdclib\memcmp.asm
                   _4jEnd   0x00dc1a    program     static D:\3.43\pic18-lt\cxx-framework\src\traditional\stdclib\mcpyp2r.asm
                   _4jEnd   0x00db7e    program     static D:\3.43\pic18-lt\cxx-framework\src\traditional\stdclib\mcmpp2r.asm
                   _5jEnd   0x00dbc6    program     static D:\3.43\pic18-lt\cxx-framework\src\traditional\stdclib\memcpy.asm
                   _5jEnd   0x00db2e    program     static D:\3.43\pic18-lt\cxx-framework\src\traditional\stdclib\memcmp.asm
               _SRAMmerge   0x00d9c0    program     extern C:\Users\TienDat\Desktop\ActorHome\PIC18_Zigbee_v2\PIC18_Zigbee_R&D_by_Lab411\Microchip\Common\sralloc.c
              __FpCompare   0x00d696    program     extern D:\3.43\pic18-lt\cxx-framework\src\traditional\math\compFP.asm
                 __FpExit   0x00d74c    program     extern D:\3.43\pic18-lt\cxx-framework\src\traditional\math\packFP.asm
                 __FpPack   0x00d778    program     extern D:\3.43\pic18-lt\cxx-framework\src\traditional\math\packFP.asm
            __FpReturnNaN   0x00d740    program     extern D:\3.43\pic18-lt\cxx-framework\src\traditional\math\packFP.asm
         __FpReturnNegInf   0x00d752    program     extern D:\3.43\pic18-lt\cxx-framework\src\traditional\math\packFP.asm
        __FpReturnNegZero   0x00d76a    program     extern D:\3.43\pic18-lt\cxx-framework\src\traditional\math\packFP.asm
         __FpReturnPosInf   0x00d758    program     extern D:\3.43\pic18-lt\cxx-framework\src\traditional\math\packFP.asm
        __FpReturnPosZero   0x00d772    program     extern D:\3.43\pic18-lt\cxx-framework\src\traditional\math\packFP.asm
        __FpReturnSignInf   0x00d74e    program     extern D:\3.43\pic18-lt\cxx-framework\src\traditional\math\packFP.asm
       __FpReturnSignZero   0x00d766    program     extern D:\3.43\pic18-lt\cxx-framework\src\traditional\math\packFP.asm
              __FpReturnW   0x00d7d0    program     extern D:\3.43\pic18-lt\cxx-framework\src\traditional\math\packFP.asm
              __FpUnPackA   0x00d7f0    program     extern D:\3.43\pic18-lt\cxx-framework\src\traditional\math\UnpackFP.asm
              __FpUnPackB   0x00d820    program     extern D:\3.43\pic18-lt\cxx-framework\src\traditional\math\UnpackFP.asm
     ___case_100_lbl00078   0x00cac8    program     static                          
     ___case_101_lbl00091   0x00cad8    program     static                          
     ___case_102_lbl00077   0x00cac8    program     static                          
     ___case_103_lbl00090   0x00cad8    program     static                          
     ___case_104_lbl00076   0x00cac8    program     static                          
     ___case_105_lbl00089   0x00cad8    program     static                          
     ___case_106_lbl00075   0x00cac8    program     static                          
     ___case_107_lbl00088   0x00cad8    program     static                          
     ___case_108_lbl00074   0x00cac8    program     static                          
     ___case_109_lbl00100   0x00cae8    program     static                          
      ___case_10_lbl00011   0x00ca98    program     static                          
     ___case_110_lbl00073   0x00cac8    program     static                          
     ___case_111_lbl00099   0x00cae8    program     static                          
     ___case_112_lbl00072   0x00cac8    program     static                          
     ___case_113_lbl00098   0x00cae8    program     static                          
     ___case_114_lbl00039   0x00cab8    program     static                          
     ___case_115_lbl00104   0x00cae8    program     static                          
      ___case_11_lbl00033   0x00caa8    program     static                          
      ___case_12_lbl00013   0x00ca98    program     static                          
      ___case_13_lbl00032   0x00caa8    program     static                          
      ___case_16_lbl00031   0x00caa8    program     static                          
      ___case_17_lbl00071   0x00cab8    program     static                          
      ___case_18_lbl00070   0x00cab8    program     static                          
      ___case_19_lbl00030   0x00caa8    program     static                          
       ___case_1_lbl00016   0x00ca98    program     static                          
      ___case_20_lbl00069   0x00cab8    program     static                          
      ___case_21_lbl00029   0x00caa8    program     static                          
      ___case_22_lbl00068   0x00cab8    program     static                          
      ___case_23_lbl00028   0x00caa8    program     static                          
      ___case_24_lbl00067   0x00cab8    program     static                          
      ___case_25_lbl00027   0x00caa8    program     static                          
      ___case_26_lbl00066   0x00cab8    program     static                          
      ___case_27_lbl00065   0x00cab8    program     static                          
      ___case_28_lbl00064   0x00cab8    program     static                          
      ___case_29_lbl00026   0x00caa8    program     static                          
       ___case_2_lbl00037   0x00caa8    program     static                          
      ___case_30_lbl00063   0x00cab8    program     static                          
      ___case_31_lbl00025   0x00caa8    program     static                          
      ___case_32_lbl00062   0x00cab8    program     static                          
      ___case_33_lbl00061   0x00cab8    program     static                          
      ___case_34_lbl00060   0x00cab8    program     static                          
      ___case_35_lbl00024   0x00caa8    program     static                          
      ___case_36_lbl00023   0x00caa8    program     static                          
      ___case_37_lbl00059   0x00cab8    program     static                          
      ___case_38_lbl00022   0x00caa8    program     static                          
      ___case_39_lbl00058   0x00cab8    program     static                          
       ___case_3_lbl00038   0x00caa8    program     static                          
      ___case_40_lbl00021   0x00caa8    program     static                          
      ___case_41_lbl00057   0x00cab8    program     static                          
      ___case_42_lbl00056   0x00cab8    program     static                          
      ___case_43_lbl00020   0x00caa8    program     static                          
      ___case_44_lbl00055   0x00cab8    program     static                          
      ___case_45_lbl00019   0x00caa8    program     static                          
      ___case_46_lbl00054   0x00cab8    program     static                          
      ___case_47_lbl00018   0x00caa8    program     static                          
      ___case_48_lbl00053   0x00cab8    program     static                          
      ___case_49_lbl00017   0x00caa8    program     static                          
       ___case_4_lbl00015   0x00ca98    program     static                          
      ___case_50_lbl00052   0x00cab8    program     static                          
      ___case_51_lbl00051   0x00cab8    program     static                          
      ___case_52_lbl00087   0x00cac8    program     static                          
      ___case_53_lbl00086   0x00cac8    program     static                          
      ___case_54_lbl00118   0x00cae8    program     static                          
      ___case_55_lbl00117   0x00cae8    program     static                          
      ___case_56_lbl00116   0x00cae8    program     static                          
      ___case_57_lbl00115   0x00cae8    program     static                          
      ___case_58_lbl00114   0x00cae8    program     static                          
      ___case_59_lbl00113   0x00cae8    program     static                          
       ___case_5_lbl00034   0x00caa8    program     static                          
      ___case_60_lbl00112   0x00cae8    program     static                          
      ___case_61_lbl00111   0x00cae8    program     static                          
      ___case_62_lbl00110   0x00cae8    program     static                          
      ___case_63_lbl00109   0x00cae8    program     static                          
      ___case_64_lbl00108   0x00cae8    program     static                          
      ___case_65_lbl00050   0x00cab8    program     static                          
      ___case_66_lbl00049   0x00cab8    program     static                          
      ___case_67_lbl00048   0x00cab8    program     static                          
      ___case_68_lbl00047   0x00cab8    program     static                          
      ___case_69_lbl00046   0x00cab8    program     static                          
       ___case_6_lbl00014   0x00ca98    program     static                          
      ___case_70_lbl00045   0x00cab8    program     static                          
      ___case_71_lbl00044   0x00cab8    program     static                          
      ___case_72_lbl00043   0x00cab8    program     static                          
      ___case_73_lbl00042   0x00cab8    program     static                          
      ___case_74_lbl00041   0x00cab8    program     static                          
      ___case_75_lbl00040   0x00cab8    program     static                          
      ___case_76_lbl00107   0x00cae8    program     static                          
      ___case_77_lbl00106   0x00cae8    program     static                          
      ___case_78_lbl00105   0x00cae8    program     static                          
      ___case_79_lbl00085   0x00cac8    program     static                          
       ___case_7_lbl00036   0x00caa8    program     static                          
      ___case_80_lbl00119   0x00cae8    program     static                          
      ___case_81_lbl00103   0x00cae8    program     static                          
      ___case_82_lbl00084   0x00cac8    program     static                          
      ___case_85_lbl00083   0x00cac8    program     static                          
      ___case_86_lbl00102   0x00cae8    program     static                          
      ___case_89_lbl00101   0x00cae8    program     static                          
       ___case_8_lbl00012   0x00ca98    program     static                          
      ___case_90_lbl00097   0x00cad8    program     static                          
      ___case_91_lbl00096   0x00cad8    program     static                          
      ___case_92_lbl00095   0x00cad8    program     static                          
      ___case_93_lbl00094   0x00cad8    program     static                          
      ___case_94_lbl00082   0x00cac8    program     static                          
      ___case_95_lbl00081   0x00cac8    program     static                          
      ___case_96_lbl00092   0x00cad8    program     static                          
      ___case_97_lbl00080   0x00cac8    program     static                          
      ___case_98_lbl00079   0x00cac8    program     static                          
      ___case_99_lbl00093   0x00cad8    program     static                          
       ___case_9_lbl00035   0x00caa8    program     static                          
      ___default_lbl00126   0x00cb34    program     static                          
           ___do_lbl00003   0x00cb36    program     static                          
           ___do_lbl00004   0x00cb3e    program     static                          
           ___do_lbl00010   0x00b6a6    program     static                          
           ___do_lbl00011   0x00b6ac    program     static                          
           ___do_lbl00012   0x00b69c    program     static                          
           ___do_lbl00016   0x00b6ee    program     static                          
           ___do_lbl00017   0x00b6f4    program     static                          
           ___do_lbl00018   0x00b6e4    program     static                          
           ___do_lbl00022   0x00b90a    program     static                          
           ___do_lbl00023   0x00b912    program     static                          
           ___do_lbl00024   0x00b8fa    program     static                          
           ___do_lbl00127   0x00c804    program     static                          
         ___else_lbl00052   0x00bdf4    program     static                          
         ___else_lbl00058   0x00be5e    program     static                          
         ___else_lbl00064   0x00bee6    program     static                          
         ___else_lbl00069   0x00bfa8    program     static                          
         ___else_lbl00076   0x00c014    program     static                          
         ___else_lbl00079   0x00c088    program     static                          
         ___else_lbl00081   0x00c0a6    program     static                          
         ___else_lbl00125   0x00cb2a    program     static                          
         ___else_lbl00133   0x00cb80    program     static                          
          ___for_lbl00004   0x00b656    program     static                          
          ___for_lbl00005   0x00b662    program     static                          
          ___for_lbl00006   0x00b640    program     static                          
          ___for_lbl00007   0x00b682    program     static                          
          ___for_lbl00008   0x00b68e    program     static                          
          ___for_lbl00009   0x00b66c    program     static                          
          ___for_lbl00013   0x00b6ca    program     static                          
          ___for_lbl00014   0x00b6d6    program     static                          
          ___for_lbl00015   0x00b6b4    program     static                          
          ___for_lbl00019   0x00b712    program     static                          
          ___for_lbl00019   0x00cf3a    program     static                          
          ___for_lbl00020   0x00cf46    program     static                          
          ___for_lbl00020   0x00b71e    program     static                          
          ___for_lbl00021   0x00b6fc    program     static                          
          ___for_lbl00023   0x00cea0    program     static                          
           ___if_lbl00002   0x00c804    program     static                          
           ___if_lbl00004   0x00cc20    program     static                          
           ___if_lbl00005   0x00c81a    program     static                          
           ___if_lbl00006   0x00c82e    program     static                          
           ___if_lbl00007   0x00c842    program     static                          
           ___if_lbl00007   0x00cca4    program     static                          
           ___if_lbl00008   0x00c856    program     static                          
           ___if_lbl00008   0x00ccee    program     static                          
           ___if_lbl00009   0x00c86a    program     static                          
           ___if_lbl00014   0x00cdae    program     static                          
           ___if_lbl00017   0x00ce46    program     static                          
           ___if_lbl00050   0x00be02    program     static                          
           ___if_lbl00051   0x00be02    program     static                          
           ___if_lbl00053   0x00be02    program     static                          
           ___if_lbl00056   0x00be3e    program     static                          
           ___if_lbl00057   0x00be62    program     static                          
           ___if_lbl00059   0x00be62    program     static                          
           ___if_lbl00060   0x00be66    program     static                          
           ___if_lbl00061   0x00be6a    program     static                          
           ___if_lbl00062   0x00bec2    program     static                          
           ___if_lbl00063   0x00bf0c    program     static                          
           ___if_lbl00065   0x00bf52    program     static                          
           ___if_lbl00068   0x00bfe0    program     static                          
           ___if_lbl00070   0x00c012    program     static                          
           ___if_lbl00072   0x00c05e    program     static                          
           ___if_lbl00073   0x00c066    program     static                          
           ___if_lbl00074   0x00c066    program     static                          
           ___if_lbl00075   0x00c066    program     static                          
           ___if_lbl00077   0x00c078    program     static                          
           ___if_lbl00078   0x00c09c    program     static                          
           ___if_lbl00080   0x00c0b0    program     static                          
           ___if_lbl00082   0x00c0cc    program     static                          
           ___if_lbl00083   0x00c0cc    program     static                          
           ___if_lbl00084   0x00c0cc    program     static                          
           ___if_lbl00124   0x00cb32    program     static                          
           ___if_lbl00132   0x00cb88    program     static                          
       ___return_lbl00000   0x00e012    program     static                          
       ___return_lbl00000   0x000004    program     static                          
       ___return_lbl00000   0x00c218    program     static                          
       ___return_lbl00001   0x00e0c8    program     static                          
       ___return_lbl00001   0x00ce68    program     static                          
       ___return_lbl00001   0x00cb88    program     static                          
       ___return_lbl00002   0x00df14    program     static                          
       ___return_lbl00003   0x00b912    program     static                          
       ___return_lbl00018   0x00cf46    program     static                          
       ___return_lbl00044   0x00bbce    program     static                          
       ___return_lbl00045   0x00bc30    program     static                          
       ___return_lbl00046   0x00bc90    program     static                          
       ___return_lbl00047   0x00bd32    program     static                          
       ___return_lbl00049   0x00c0d0    program     static                          
       ___return_lbl00085   0x00000c    program     static                          
       ___return_lbl00086   0x00001c    program     static                          
   ___switchexit_lbl00010   0x00cb36    program     static                          
        ___while_lbl00001   0x00c200    program     static                          
        ___while_lbl00002   0x00cbb2    program     static                          
        ___while_lbl00002   0x00c218    program     static                          
        ___while_lbl00003   0x00ce68    program     static                          
        ___while_lbl00005   0x00cc4a    program     static                          
        ___while_lbl00006   0x00ce52    program     static                          
        ___while_lbl00009   0x00cd14    program     static                          
        ___while_lbl00010   0x00cd70    program     static                          
        ___while_lbl00012   0x00cd96    program     static                          
        ___while_lbl00013   0x00ce48    program     static                          
        ___while_lbl00015   0x00cdcc    program     static                          
        ___while_lbl00016   0x00cdf4    program     static                          
        ___while_lbl00021   0x00cec2    program     static                          
        ___while_lbl00022   0x00cf2e    program     static                          
        ___while_lbl00066   0x00bf52    program     static                          
        ___while_lbl00067   0x00c07a    program     static                          
                   __init   0x00e0da    program     extern D:\3.43\pic18-lt\cxx-framework\src\traditional\stdclib\__init.c
                   __pa_0   0x00afdc    program     static C:\Users\TienDat\Desktop\ActorHome\PIC18_Zigbee_v2\PIC18_Zigbee_R&D_by_Lab411\Microchip\ZigBeeStack\zMAC_MRF24J40.c
                   __pa_0   0x0039a0    program     static C:\Users\TienDat\Desktop\ActorHome\PIC18_Zigbee_v2\PIC18_Zigbee_R&D_by_Lab411\Microchip\ZigBeeStack\zNWK.c
                   __pa_0   0x00c134    program     static C:\Users\TienDat\Desktop\ActorHome\PIC18_Zigbee_v2\PIC18_Zigbee_R&D_by_Lab411\Microchip\ZigBeeStack\zPHY_MRF24J40.c
                   __pa_0   0x00687c    program     static C:\Users\TienDat\Desktop\ActorHome\PIC18_Zigbee_v2\PIC18_Zigbee_R&D_by_Lab411\Microchip\ZigBeeStack\zZDO.c
                   __pa_0   0x00dcf4    program     static C:\Users\TienDat\Desktop\ActorHome\PIC18_Zigbee_v2\PIC18_Zigbee_R&D_by_Lab411\Microchip\Common\Console.c
                   __pa_0   0x00c6a0    program     static C:\Users\TienDat\Desktop\ActorHome\PIC18_Zigbee_v2\PIC18_Zigbee_R&D_by_Lab411\DemoPIC18Router\Router.c
                   __pa_0   0x00df68    program     static C:\Users\TienDat\Desktop\ActorHome\PIC18_Zigbee_v2\PIC18_Zigbee_R&D_by_Lab411\Microchip\Common\MSPI.c
                   __pa_0   0x00d516    program     static C:\Users\TienDat\Desktop\ActorHome\PIC18_Zigbee_v2\PIC18_Zigbee_R&D_by_Lab411\Microchip\Common\SHT1x.c
                   __pa_0   0x00da84    program     static C:\Users\TienDat\Desktop\ActorHome\PIC18_Zigbee_v2\PIC18_Zigbee_R&D_by_Lab411\Microchip\Common\sralloc.c
                   __pa_0   0x009030    program     static C:\Users\TienDat\Desktop\ActorHome\PIC18_Zigbee_v2\PIC18_Zigbee_R&D_by_Lab411\Microchip\ZigBeeStack\zAPS.c
                   __pa_1   0x00c6b0    program     static C:\Users\TienDat\Desktop\ActorHome\PIC18_Zigbee_v2\PIC18_Zigbee_R&D_by_Lab411\DemoPIC18Router\Router.c
                   __pa_1   0x00d528    program     static C:\Users\TienDat\Desktop\ActorHome\PIC18_Zigbee_v2\PIC18_Zigbee_R&D_by_Lab411\Microchip\Common\SHT1x.c
                   __pa_1   0x00dd06    program     static C:\Users\TienDat\Desktop\ActorHome\PIC18_Zigbee_v2\PIC18_Zigbee_R&D_by_Lab411\Microchip\Common\Console.c
                   __pa_1   0x0039a6    program     static C:\Users\TienDat\Desktop\ActorHome\PIC18_Zigbee_v2\PIC18_Zigbee_R&D_by_Lab411\Microchip\ZigBeeStack\zNWK.c
                   __pa_1   0x009034    program     static C:\Users\TienDat\Desktop\ActorHome\PIC18_Zigbee_v2\PIC18_Zigbee_R&D_by_Lab411\Microchip\ZigBeeStack\zAPS.c
                   __pa_1   0x00c13e    program     static C:\Users\TienDat\Desktop\ActorHome\PIC18_Zigbee_v2\PIC18_Zigbee_R&D_by_Lab411\Microchip\ZigBeeStack\zPHY_MRF24J40.c
                   __pa_1   0x00df7a    program     static C:\Users\TienDat\Desktop\ActorHome\PIC18_Zigbee_v2\PIC18_Zigbee_R&D_by_Lab411\Microchip\Common\MSPI.c
                   __pa_1   0x006882    program     static C:\Users\TienDat\Desktop\ActorHome\PIC18_Zigbee_v2\PIC18_Zigbee_R&D_by_Lab411\Microchip\ZigBeeStack\zZDO.c
                   __pa_1   0x00da8a    program     static C:\Users\TienDat\Desktop\ActorHome\PIC18_Zigbee_v2\PIC18_Zigbee_R&D_by_Lab411\Microchip\Common\sralloc.c
                   __pa_1   0x00afe8    program     static C:\Users\TienDat\Desktop\ActorHome\PIC18_Zigbee_v2\PIC18_Zigbee_R&D_by_Lab411\Microchip\ZigBeeStack\zMAC_MRF24J40.c
                  __pa_10   0x003a32    program     static C:\Users\TienDat\Desktop\ActorHome\PIC18_Zigbee_v2\PIC18_Zigbee_R&D_by_Lab411\Microchip\ZigBeeStack\zNWK.c
                  __pa_10   0x0068dc    program     static C:\Users\TienDat\Desktop\ActorHome\PIC18_Zigbee_v2\PIC18_Zigbee_R&D_by_Lab411\Microchip\ZigBeeStack\zZDO.c
                  __pa_10   0x00908e    program     static C:\Users\TienDat\Desktop\ActorHome\PIC18_Zigbee_v2\PIC18_Zigbee_R&D_by_Lab411\Microchip\ZigBeeStack\zAPS.c
                  __pa_10   0x00b064    program     static C:\Users\TienDat\Desktop\ActorHome\PIC18_Zigbee_v2\PIC18_Zigbee_R&D_by_Lab411\Microchip\ZigBeeStack\zMAC_MRF24J40.c
                  __pa_10   0x00c768    program     static C:\Users\TienDat\Desktop\ActorHome\PIC18_Zigbee_v2\PIC18_Zigbee_R&D_by_Lab411\DemoPIC18Router\Router.c
                 __pa_100   0x0094d2    program     static C:\Users\TienDat\Desktop\ActorHome\PIC18_Zigbee_v2\PIC18_Zigbee_R&D_by_Lab411\Microchip\ZigBeeStack\zAPS.c
                 __pa_100   0x003eea    program     static C:\Users\TienDat\Desktop\ActorHome\PIC18_Zigbee_v2\PIC18_Zigbee_R&D_by_Lab411\Microchip\ZigBeeStack\zNWK.c
                 __pa_100   0x00b57e    program     static C:\Users\TienDat\Desktop\ActorHome\PIC18_Zigbee_v2\PIC18_Zigbee_R&D_by_Lab411\Microchip\ZigBeeStack\zMAC_MRF24J40.c
                 __pa_100   0x006e16    program     static C:\Users\TienDat\Desktop\ActorHome\PIC18_Zigbee_v2\PIC18_Zigbee_R&D_by_Lab411\Microchip\ZigBeeStack\zZDO.c
                 __pa_101   0x003ef0    program     static C:\Users\TienDat\Desktop\ActorHome\PIC18_Zigbee_v2\PIC18_Zigbee_R&D_by_Lab411\Microchip\ZigBeeStack\zNWK.c
                 __pa_101   0x00b592    program     static C:\Users\TienDat\Desktop\ActorHome\PIC18_Zigbee_v2\PIC18_Zigbee_R&D_by_Lab411\Microchip\ZigBeeStack\zMAC_MRF24J40.c
                 __pa_101   0x006e26    program     static C:\Users\TienDat\Desktop\ActorHome\PIC18_Zigbee_v2\PIC18_Zigbee_R&D_by_Lab411\Microchip\ZigBeeStack\zZDO.c
                 __pa_101   0x0094da    program     static C:\Users\TienDat\Desktop\ActorHome\PIC18_Zigbee_v2\PIC18_Zigbee_R&D_by_Lab411\Microchip\ZigBeeStack\zAPS.c
                 __pa_102   0x00b598    program     static C:\Users\TienDat\Desktop\ActorHome\PIC18_Zigbee_v2\PIC18_Zigbee_R&D_by_Lab411\Microchip\ZigBeeStack\zMAC_MRF24J40.c
                 __pa_102   0x0094e0    program     static C:\Users\TienDat\Desktop\ActorHome\PIC18_Zigbee_v2\PIC18_Zigbee_R&D_by_Lab411\Microchip\ZigBeeStack\zAPS.c
                 __pa_102   0x006e30    program     static C:\Users\TienDat\Desktop\ActorHome\PIC18_Zigbee_v2\PIC18_Zigbee_R&D_by_Lab411\Microchip\ZigBeeStack\zZDO.c
                 __pa_102   0x003efc    program     static C:\Users\TienDat\Desktop\ActorHome\PIC18_Zigbee_v2\PIC18_Zigbee_R&D_by_Lab411\Microchip\ZigBeeStack\zNWK.c
                 __pa_103   0x006e38    program     static C:\Users\TienDat\Desktop\ActorHome\PIC18_Zigbee_v2\PIC18_Zigbee_R&D_by_Lab411\Microchip\ZigBeeStack\zZDO.c
                 __pa_103   0x00b5a8    program     static C:\Users\TienDat\Desktop\ActorHome\PIC18_Zigbee_v2\PIC18_Zigbee_R&D_by_Lab411\Microchip\ZigBeeStack\zMAC_MRF24J40.c
                 __pa_103   0x003f02    program     static C:\Users\TienDat\Desktop\ActorHome\PIC18_Zigbee_v2\PIC18_Zigbee_R&D_by_Lab411\Microchip\ZigBeeStack\zNWK.c
                 __pa_103   0x0094e6    program     static C:\Users\TienDat\Desktop\ActorHome\PIC18_Zigbee_v2\PIC18_Zigbee_R&D_by_Lab411\Microchip\ZigBeeStack\zAPS.c
                 __pa_104   0x006e40    program     static C:\Users\TienDat\Desktop\ActorHome\PIC18_Zigbee_v2\PIC18_Zigbee_R&D_by_Lab411\Microchip\ZigBeeStack\zZDO.c
                 __pa_104   0x00b5b0    program     static C:\Users\TienDat\Desktop\ActorHome\PIC18_Zigbee_v2\PIC18_Zigbee_R&D_by_Lab411\Microchip\ZigBeeStack\zMAC_MRF24J40.c
                 __pa_104   0x009504    program     static C:\Users\TienDat\Desktop\ActorHome\PIC18_Zigbee_v2\PIC18_Zigbee_R&D_by_Lab411\Microchip\ZigBeeStack\zAPS.c
                 __pa_104   0x003f0e    program     static C:\Users\TienDat\Desktop\ActorHome\PIC18_Zigbee_v2\PIC18_Zigbee_R&D_by_Lab411\Microchip\ZigBeeStack\zNWK.c
                 __pa_105   0x006e48    program     static C:\Users\TienDat\Desktop\ActorHome\PIC18_Zigbee_v2\PIC18_Zigbee_R&D_by_Lab411\Microchip\ZigBeeStack\zZDO.c
                 __pa_105   0x00b5b6    program     static C:\Users\TienDat\Desktop\ActorHome\PIC18_Zigbee_v2\PIC18_Zigbee_R&D_by_Lab411\Microchip\ZigBeeStack\zMAC_MRF24J40.c
                 __pa_105   0x009514    program     static C:\Users\TienDat\Desktop\ActorHome\PIC18_Zigbee_v2\PIC18_Zigbee_R&D_by_Lab411\Microchip\ZigBeeStack\zAPS.c
                 __pa_105   0x003f18    program     static C:\Users\TienDat\Desktop\ActorHome\PIC18_Zigbee_v2\PIC18_Zigbee_R&D_by_Lab411\Microchip\ZigBeeStack\zNWK.c
                 __pa_106   0x00b5be    program     static C:\Users\TienDat\Desktop\ActorHome\PIC18_Zigbee_v2\PIC18_Zigbee_R&D_by_Lab411\Microchip\ZigBeeStack\zMAC_MRF24J40.c
                 __pa_106   0x006e50    program     static C:\Users\TienDat\Desktop\ActorHome\PIC18_Zigbee_v2\PIC18_Zigbee_R&D_by_Lab411\Microchip\ZigBeeStack\zZDO.c
                 __pa_106   0x003f24    program     static C:\Users\TienDat\Desktop\ActorHome\PIC18_Zigbee_v2\PIC18_Zigbee_R&D_by_Lab411\Microchip\ZigBeeStack\zNWK.c
                 __pa_106   0x00952c    program     static C:\Users\TienDat\Desktop\ActorHome\PIC18_Zigbee_v2\PIC18_Zigbee_R&D_by_Lab411\Microchip\ZigBeeStack\zAPS.c
                 __pa_107   0x003f2e    program     static C:\Users\TienDat\Desktop\ActorHome\PIC18_Zigbee_v2\PIC18_Zigbee_R&D_by_Lab411\Microchip\ZigBeeStack\zNWK.c
                 __pa_107   0x006e58    program     static C:\Users\TienDat\Desktop\ActorHome\PIC18_Zigbee_v2\PIC18_Zigbee_R&D_by_Lab411\Microchip\ZigBeeStack\zZDO.c
                 __pa_107   0x00b5d0    program     static C:\Users\TienDat\Desktop\ActorHome\PIC18_Zigbee_v2\PIC18_Zigbee_R&D_by_Lab411\Microchip\ZigBeeStack\zMAC_MRF24J40.c
                 __pa_107   0x009538    program     static C:\Users\TienDat\Desktop\ActorHome\PIC18_Zigbee_v2\PIC18_Zigbee_R&D_by_Lab411\Microchip\ZigBeeStack\zAPS.c
                 __pa_108   0x00b5e2    program     static C:\Users\TienDat\Desktop\ActorHome\PIC18_Zigbee_v2\PIC18_Zigbee_R&D_by_Lab411\Microchip\ZigBeeStack\zMAC_MRF24J40.c
                 __pa_108   0x003f36    program     static C:\Users\TienDat\Desktop\ActorHome\PIC18_Zigbee_v2\PIC18_Zigbee_R&D_by_Lab411\Microchip\ZigBeeStack\zNWK.c
                 __pa_108   0x006e66    program     static C:\Users\TienDat\Desktop\ActorHome\PIC18_Zigbee_v2\PIC18_Zigbee_R&D_by_Lab411\Microchip\ZigBeeStack\zZDO.c
                 __pa_108   0x009544    program     static C:\Users\TienDat\Desktop\ActorHome\PIC18_Zigbee_v2\PIC18_Zigbee_R&D_by_Lab411\Microchip\ZigBeeStack\zAPS.c
                 __pa_109   0x003f3e    program     static C:\Users\TienDat\Desktop\ActorHome\PIC18_Zigbee_v2\PIC18_Zigbee_R&D_by_Lab411\Microchip\ZigBeeStack\zNWK.c
                 __pa_109   0x006e74    program     static C:\Users\TienDat\Desktop\ActorHome\PIC18_Zigbee_v2\PIC18_Zigbee_R&D_by_Lab411\Microchip\ZigBeeStack\zZDO.c
                 __pa_109   0x00954c    program     static C:\Users\TienDat\Desktop\ActorHome\PIC18_Zigbee_v2\PIC18_Zigbee_R&D_by_Lab411\Microchip\ZigBeeStack\zAPS.c
                  __pa_11   0x003a4a    program     static C:\Users\TienDat\Desktop\ActorHome\PIC18_Zigbee_v2\PIC18_Zigbee_R&D_by_Lab411\Microchip\ZigBeeStack\zNWK.c
                  __pa_11   0x00c772    program     static C:\Users\TienDat\Desktop\ActorHome\PIC18_Zigbee_v2\PIC18_Zigbee_R&D_by_Lab411\DemoPIC18Router\Router.c
                  __pa_11   0x00b08c    program     static C:\Users\TienDat\Desktop\ActorHome\PIC18_Zigbee_v2\PIC18_Zigbee_R&D_by_Lab411\Microchip\ZigBeeStack\zMAC_MRF24J40.c
                  __pa_11   0x0068ee    program     static C:\Users\TienDat\Desktop\ActorHome\PIC18_Zigbee_v2\PIC18_Zigbee_R&D_by_Lab411\Microchip\ZigBeeStack\zZDO.c
                  __pa_11   0x0090b6    program     static C:\Users\TienDat\Desktop\ActorHome\PIC18_Zigbee_v2\PIC18_Zigbee_R&D_by_Lab411\Microchip\ZigBeeStack\zAPS.c
                 __pa_110   0x006e82    program     static C:\Users\TienDat\Desktop\ActorHome\PIC18_Zigbee_v2\PIC18_Zigbee_R&D_by_Lab411\Microchip\ZigBeeStack\zZDO.c
                 __pa_110   0x003f46    program     static C:\Users\TienDat\Desktop\ActorHome\PIC18_Zigbee_v2\PIC18_Zigbee_R&D_by_Lab411\Microchip\ZigBeeStack\zNWK.c
                 __pa_110   0x00955a    program     static C:\Users\TienDat\Desktop\ActorHome\PIC18_Zigbee_v2\PIC18_Zigbee_R&D_by_Lab411\Microchip\ZigBeeStack\zAPS.c
                 __pa_111   0x006e90    program     static C:\Users\TienDat\Desktop\ActorHome\PIC18_Zigbee_v2\PIC18_Zigbee_R&D_by_Lab411\Microchip\ZigBeeStack\zZDO.c
                 __pa_111   0x003f4e    program     static C:\Users\TienDat\Desktop\ActorHome\PIC18_Zigbee_v2\PIC18_Zigbee_R&D_by_Lab411\Microchip\ZigBeeStack\zNWK.c
                 __pa_111   0x00956e    program     static C:\Users\TienDat\Desktop\ActorHome\PIC18_Zigbee_v2\PIC18_Zigbee_R&D_by_Lab411\Microchip\ZigBeeStack\zAPS.c
                 __pa_112   0x003f56    program     static C:\Users\TienDat\Desktop\ActorHome\PIC18_Zigbee_v2\PIC18_Zigbee_R&D_by_Lab411\Microchip\ZigBeeStack\zNWK.c
                 __pa_112   0x009574    program     static C:\Users\TienDat\Desktop\ActorHome\PIC18_Zigbee_v2\PIC18_Zigbee_R&D_by_Lab411\Microchip\ZigBeeStack\zAPS.c
                 __pa_112   0x006e98    program     static C:\Users\TienDat\Desktop\ActorHome\PIC18_Zigbee_v2\PIC18_Zigbee_R&D_by_Lab411\Microchip\ZigBeeStack\zZDO.c
                 __pa_113   0x009580    program     static C:\Users\TienDat\Desktop\ActorHome\PIC18_Zigbee_v2\PIC18_Zigbee_R&D_by_Lab411\Microchip\ZigBeeStack\zAPS.c
                 __pa_113   0x006ea6    program     static C:\Users\TienDat\Desktop\ActorHome\PIC18_Zigbee_v2\PIC18_Zigbee_R&D_by_Lab411\Microchip\ZigBeeStack\zZDO.c
                 __pa_113   0x003f66    program     static C:\Users\TienDat\Desktop\ActorHome\PIC18_Zigbee_v2\PIC18_Zigbee_R&D_by_Lab411\Microchip\ZigBeeStack\zNWK.c
                 __pa_114   0x00958e    program     static C:\Users\TienDat\Desktop\ActorHome\PIC18_Zigbee_v2\PIC18_Zigbee_R&D_by_Lab411\Microchip\ZigBeeStack\zAPS.c
                 __pa_114   0x006eb4    program     static C:\Users\TienDat\Desktop\ActorHome\PIC18_Zigbee_v2\PIC18_Zigbee_R&D_by_Lab411\Microchip\ZigBeeStack\zZDO.c
                 __pa_114   0x003f76    program     static C:\Users\TienDat\Desktop\ActorHome\PIC18_Zigbee_v2\PIC18_Zigbee_R&D_by_Lab411\Microchip\ZigBeeStack\zNWK.c
                 __pa_115   0x003f86    program     static C:\Users\TienDat\Desktop\ActorHome\PIC18_Zigbee_v2\PIC18_Zigbee_R&D_by_Lab411\Microchip\ZigBeeStack\zNWK.c
                 __pa_115   0x009596    program     static C:\Users\TienDat\Desktop\ActorHome\PIC18_Zigbee_v2\PIC18_Zigbee_R&D_by_Lab411\Microchip\ZigBeeStack\zAPS.c
                 __pa_115   0x006ec2    program     static C:\Users\TienDat\Desktop\ActorHome\PIC18_Zigbee_v2\PIC18_Zigbee_R&D_by_Lab411\Microchip\ZigBeeStack\zZDO.c
                 __pa_116   0x006ed0    program     static C:\Users\TienDat\Desktop\ActorHome\PIC18_Zigbee_v2\PIC18_Zigbee_R&D_by_Lab411\Microchip\ZigBeeStack\zZDO.c
                 __pa_116   0x003f96    program     static C:\Users\TienDat\Desktop\ActorHome\PIC18_Zigbee_v2\PIC18_Zigbee_R&D_by_Lab411\Microchip\ZigBeeStack\zNWK.c
                 __pa_116   0x0095a0    program     static C:\Users\TienDat\Desktop\ActorHome\PIC18_Zigbee_v2\PIC18_Zigbee_R&D_by_Lab411\Microchip\ZigBeeStack\zAPS.c
                 __pa_117   0x0095aa    program     static C:\Users\TienDat\Desktop\ActorHome\PIC18_Zigbee_v2\PIC18_Zigbee_R&D_by_Lab411\Microchip\ZigBeeStack\zAPS.c
                 __pa_117   0x003fa6    program     static C:\Users\TienDat\Desktop\ActorHome\PIC18_Zigbee_v2\PIC18_Zigbee_R&D_by_Lab411\Microchip\ZigBeeStack\zNWK.c
                 __pa_117   0x006ed8    program     static C:\Users\TienDat\Desktop\ActorHome\PIC18_Zigbee_v2\PIC18_Zigbee_R&D_by_Lab411\Microchip\ZigBeeStack\zZDO.c
                 __pa_118   0x003fb6    program     static C:\Users\TienDat\Desktop\ActorHome\PIC18_Zigbee_v2\PIC18_Zigbee_R&D_by_Lab411\Microchip\ZigBeeStack\zNWK.c
                 __pa_118   0x006ee0    program     static C:\Users\TienDat\Desktop\ActorHome\PIC18_Zigbee_v2\PIC18_Zigbee_R&D_by_Lab411\Microchip\ZigBeeStack\zZDO.c
                 __pa_118   0x0095b0    program     static C:\Users\TienDat\Desktop\ActorHome\PIC18_Zigbee_v2\PIC18_Zigbee_R&D_by_Lab411\Microchip\ZigBeeStack\zAPS.c
                 __pa_119   0x0095b8    program     static C:\Users\TienDat\Desktop\ActorHome\PIC18_Zigbee_v2\PIC18_Zigbee_R&D_by_Lab411\Microchip\ZigBeeStack\zAPS.c
                 __pa_119   0x003fbe    program     static C:\Users\TienDat\Desktop\ActorHome\PIC18_Zigbee_v2\PIC18_Zigbee_R&D_by_Lab411\Microchip\ZigBeeStack\zNWK.c
                 __pa_119   0x006eea    program     static C:\Users\TienDat\Desktop\ActorHome\PIC18_Zigbee_v2\PIC18_Zigbee_R&D_by_Lab411\Microchip\ZigBeeStack\zZDO.c
                  __pa_12   0x00c784    program     static C:\Users\TienDat\Desktop\ActorHome\PIC18_Zigbee_v2\PIC18_Zigbee_R&D_by_Lab411\DemoPIC18Router\Router.c
                  __pa_12   0x0068f4    program     static C:\Users\TienDat\Desktop\ActorHome\PIC18_Zigbee_v2\PIC18_Zigbee_R&D_by_Lab411\Microchip\ZigBeeStack\zZDO.c
                  __pa_12   0x0090be    program     static C:\Users\TienDat\Desktop\ActorHome\PIC18_Zigbee_v2\PIC18_Zigbee_R&D_by_Lab411\Microchip\ZigBeeStack\zAPS.c
                  __pa_12   0x00b096    program     static C:\Users\TienDat\Desktop\ActorHome\PIC18_Zigbee_v2\PIC18_Zigbee_R&D_by_Lab411\Microchip\ZigBeeStack\zMAC_MRF24J40.c
                  __pa_12   0x003a56    program     static C:\Users\TienDat\Desktop\ActorHome\PIC18_Zigbee_v2\PIC18_Zigbee_R&D_by_Lab411\Microchip\ZigBeeStack\zNWK.c
                 __pa_120   0x003fc6    program     static C:\Users\TienDat\Desktop\ActorHome\PIC18_Zigbee_v2\PIC18_Zigbee_R&D_by_Lab411\Microchip\ZigBeeStack\zNWK.c
                 __pa_120   0x0095c0    program     static C:\Users\TienDat\Desktop\ActorHome\PIC18_Zigbee_v2\PIC18_Zigbee_R&D_by_Lab411\Microchip\ZigBeeStack\zAPS.c
                 __pa_120   0x006ef4    program     static C:\Users\TienDat\Desktop\ActorHome\PIC18_Zigbee_v2\PIC18_Zigbee_R&D_by_Lab411\Microchip\ZigBeeStack\zZDO.c
                 __pa_121   0x003fd4    program     static C:\Users\TienDat\Desktop\ActorHome\PIC18_Zigbee_v2\PIC18_Zigbee_R&D_by_Lab411\Microchip\ZigBeeStack\zNWK.c
                 __pa_121   0x0095c8    program     static C:\Users\TienDat\Desktop\ActorHome\PIC18_Zigbee_v2\PIC18_Zigbee_R&D_by_Lab411\Microchip\ZigBeeStack\zAPS.c
                 __pa_121   0x006efe    program     static C:\Users\TienDat\Desktop\ActorHome\PIC18_Zigbee_v2\PIC18_Zigbee_R&D_by_Lab411\Microchip\ZigBeeStack\zZDO.c
                 __pa_122   0x006f06    program     static C:\Users\TienDat\Desktop\ActorHome\PIC18_Zigbee_v2\PIC18_Zigbee_R&D_by_Lab411\Microchip\ZigBeeStack\zZDO.c
                 __pa_122   0x003fdc    program     static C:\Users\TienDat\Desktop\ActorHome\PIC18_Zigbee_v2\PIC18_Zigbee_R&D_by_Lab411\Microchip\ZigBeeStack\zNWK.c
                 __pa_122   0x0095d0    program     static C:\Users\TienDat\Desktop\ActorHome\PIC18_Zigbee_v2\PIC18_Zigbee_R&D_by_Lab411\Microchip\ZigBeeStack\zAPS.c
                 __pa_123   0x006f0e    program     static C:\Users\TienDat\Desktop\ActorHome\PIC18_Zigbee_v2\PIC18_Zigbee_R&D_by_Lab411\Microchip\ZigBeeStack\zZDO.c
                 __pa_123   0x003fe8    program     static C:\Users\TienDat\Desktop\ActorHome\PIC18_Zigbee_v2\PIC18_Zigbee_R&D_by_Lab411\Microchip\ZigBeeStack\zNWK.c
                 __pa_123   0x0095de    program     static C:\Users\TienDat\Desktop\ActorHome\PIC18_Zigbee_v2\PIC18_Zigbee_R&D_by_Lab411\Microchip\ZigBeeStack\zAPS.c
                 __pa_124   0x006f18    program     static C:\Users\TienDat\Desktop\ActorHome\PIC18_Zigbee_v2\PIC18_Zigbee_R&D_by_Lab411\Microchip\ZigBeeStack\zZDO.c
                 __pa_124   0x003ff0    program     static C:\Users\TienDat\Desktop\ActorHome\PIC18_Zigbee_v2\PIC18_Zigbee_R&D_by_Lab411\Microchip\ZigBeeStack\zNWK.c
                 __pa_124   0x0095e4    program     static C:\Users\TienDat\Desktop\ActorHome\PIC18_Zigbee_v2\PIC18_Zigbee_R&D_by_Lab411\Microchip\ZigBeeStack\zAPS.c
                 __pa_125   0x003ffe    program     static C:\Users\TienDat\Desktop\ActorHome\PIC18_Zigbee_v2\PIC18_Zigbee_R&D_by_Lab411\Microchip\ZigBeeStack\zNWK.c
                 __pa_125   0x006f22    program     static C:\Users\TienDat\Desktop\ActorHome\PIC18_Zigbee_v2\PIC18_Zigbee_R&D_by_Lab411\Microchip\ZigBeeStack\zZDO.c
                 __pa_125   0x0095f0    program     static C:\Users\TienDat\Desktop\ActorHome\PIC18_Zigbee_v2\PIC18_Zigbee_R&D_by_Lab411\Microchip\ZigBeeStack\zAPS.c
                 __pa_126   0x006f2a    program     static C:\Users\TienDat\Desktop\ActorHome\PIC18_Zigbee_v2\PIC18_Zigbee_R&D_by_Lab411\Microchip\ZigBeeStack\zZDO.c
                 __pa_126   0x00400c    program     static C:\Users\TienDat\Desktop\ActorHome\PIC18_Zigbee_v2\PIC18_Zigbee_R&D_by_Lab411\Microchip\ZigBeeStack\zNWK.c
                 __pa_126   0x0095f6    program     static C:\Users\TienDat\Desktop\ActorHome\PIC18_Zigbee_v2\PIC18_Zigbee_R&D_by_Lab411\Microchip\ZigBeeStack\zAPS.c
                 __pa_127   0x006f38    program     static C:\Users\TienDat\Desktop\ActorHome\PIC18_Zigbee_v2\PIC18_Zigbee_R&D_by_Lab411\Microchip\ZigBeeStack\zZDO.c
                 __pa_127   0x00401a    program     static C:\Users\TienDat\Desktop\ActorHome\PIC18_Zigbee_v2\PIC18_Zigbee_R&D_by_Lab411\Microchip\ZigBeeStack\zNWK.c
                 __pa_127   0x009602    program     static C:\Users\TienDat\Desktop\ActorHome\PIC18_Zigbee_v2\PIC18_Zigbee_R&D_by_Lab411\Microchip\ZigBeeStack\zAPS.c
                 __pa_128   0x006f3e    program     static C:\Users\TienDat\Desktop\ActorHome\PIC18_Zigbee_v2\PIC18_Zigbee_R&D_by_Lab411\Microchip\ZigBeeStack\zZDO.c
                 __pa_128   0x004024    program     static C:\Users\TienDat\Desktop\ActorHome\PIC18_Zigbee_v2\PIC18_Zigbee_R&D_by_Lab411\Microchip\ZigBeeStack\zNWK.c
                 __pa_128   0x00960e    program     static C:\Users\TienDat\Desktop\ActorHome\PIC18_Zigbee_v2\PIC18_Zigbee_R&D_by_Lab411\Microchip\ZigBeeStack\zAPS.c
                 __pa_129   0x00961a    program     static C:\Users\TienDat\Desktop\ActorHome\PIC18_Zigbee_v2\PIC18_Zigbee_R&D_by_Lab411\Microchip\ZigBeeStack\zAPS.c
                 __pa_129   0x00402e    program     static C:\Users\TienDat\Desktop\ActorHome\PIC18_Zigbee_v2\PIC18_Zigbee_R&D_by_Lab411\Microchip\ZigBeeStack\zNWK.c
                 __pa_129   0x006f46    program     static C:\Users\TienDat\Desktop\ActorHome\PIC18_Zigbee_v2\PIC18_Zigbee_R&D_by_Lab411\Microchip\ZigBeeStack\zZDO.c
                  __pa_13   0x00c792    program     static C:\Users\TienDat\Desktop\ActorHome\PIC18_Zigbee_v2\PIC18_Zigbee_R&D_by_Lab411\DemoPIC18Router\Router.c
                  __pa_13   0x006922    program     static C:\Users\TienDat\Desktop\ActorHome\PIC18_Zigbee_v2\PIC18_Zigbee_R&D_by_Lab411\Microchip\ZigBeeStack\zZDO.c
                  __pa_13   0x0090c4    program     static C:\Users\TienDat\Desktop\ActorHome\PIC18_Zigbee_v2\PIC18_Zigbee_R&D_by_Lab411\Microchip\ZigBeeStack\zAPS.c
                  __pa_13   0x00b0b4    program     static C:\Users\TienDat\Desktop\ActorHome\PIC18_Zigbee_v2\PIC18_Zigbee_R&D_by_Lab411\Microchip\ZigBeeStack\zMAC_MRF24J40.c
                  __pa_13   0x003a6e    program     static C:\Users\TienDat\Desktop\ActorHome\PIC18_Zigbee_v2\PIC18_Zigbee_R&D_by_Lab411\Microchip\ZigBeeStack\zNWK.c
                 __pa_130   0x006f4c    program     static C:\Users\TienDat\Desktop\ActorHome\PIC18_Zigbee_v2\PIC18_Zigbee_R&D_by_Lab411\Microchip\ZigBeeStack\zZDO.c
                 __pa_130   0x004038    program     static C:\Users\TienDat\Desktop\ActorHome\PIC18_Zigbee_v2\PIC18_Zigbee_R&D_by_Lab411\Microchip\ZigBeeStack\zNWK.c
                 __pa_130   0x009628    program     static C:\Users\TienDat\Desktop\ActorHome\PIC18_Zigbee_v2\PIC18_Zigbee_R&D_by_Lab411\Microchip\ZigBeeStack\zAPS.c
                 __pa_131   0x006f52    program     static C:\Users\TienDat\Desktop\ActorHome\PIC18_Zigbee_v2\PIC18_Zigbee_R&D_by_Lab411\Microchip\ZigBeeStack\zZDO.c
                 __pa_131   0x004042    program     static C:\Users\TienDat\Desktop\ActorHome\PIC18_Zigbee_v2\PIC18_Zigbee_R&D_by_Lab411\Microchip\ZigBeeStack\zNWK.c
                 __pa_131   0x009636    program     static C:\Users\TienDat\Desktop\ActorHome\PIC18_Zigbee_v2\PIC18_Zigbee_R&D_by_Lab411\Microchip\ZigBeeStack\zAPS.c
                 __pa_132   0x006f58    program     static C:\Users\TienDat\Desktop\ActorHome\PIC18_Zigbee_v2\PIC18_Zigbee_R&D_by_Lab411\Microchip\ZigBeeStack\zZDO.c
                 __pa_132   0x00404c    program     static C:\Users\TienDat\Desktop\ActorHome\PIC18_Zigbee_v2\PIC18_Zigbee_R&D_by_Lab411\Microchip\ZigBeeStack\zNWK.c
                 __pa_132   0x009640    program     static C:\Users\TienDat\Desktop\ActorHome\PIC18_Zigbee_v2\PIC18_Zigbee_R&D_by_Lab411\Microchip\ZigBeeStack\zAPS.c
                 __pa_133   0x006f5e    program     static C:\Users\TienDat\Desktop\ActorHome\PIC18_Zigbee_v2\PIC18_Zigbee_R&D_by_Lab411\Microchip\ZigBeeStack\zZDO.c
                 __pa_133   0x004054    program     static C:\Users\TienDat\Desktop\ActorHome\PIC18_Zigbee_v2\PIC18_Zigbee_R&D_by_Lab411\Microchip\ZigBeeStack\zNWK.c
                 __pa_133   0x009648    program     static C:\Users\TienDat\Desktop\ActorHome\PIC18_Zigbee_v2\PIC18_Zigbee_R&D_by_Lab411\Microchip\ZigBeeStack\zAPS.c
                 __pa_134   0x006f74    program     static C:\Users\TienDat\Desktop\ActorHome\PIC18_Zigbee_v2\PIC18_Zigbee_R&D_by_Lab411\Microchip\ZigBeeStack\zZDO.c
                 __pa_134   0x009650    program     static C:\Users\TienDat\Desktop\ActorHome\PIC18_Zigbee_v2\PIC18_Zigbee_R&D_by_Lab411\Microchip\ZigBeeStack\zAPS.c
                 __pa_134   0x00405e    program     static C:\Users\TienDat\Desktop\ActorHome\PIC18_Zigbee_v2\PIC18_Zigbee_R&D_by_Lab411\Microchip\ZigBeeStack\zNWK.c
                 __pa_135   0x009658    program     static C:\Users\TienDat\Desktop\ActorHome\PIC18_Zigbee_v2\PIC18_Zigbee_R&D_by_Lab411\Microchip\ZigBeeStack\zAPS.c
                 __pa_135   0x006f7e    program     static C:\Users\TienDat\Desktop\ActorHome\PIC18_Zigbee_v2\PIC18_Zigbee_R&D_by_Lab411\Microchip\ZigBeeStack\zZDO.c
                 __pa_135   0x004068    program     static C:\Users\TienDat\Desktop\ActorHome\PIC18_Zigbee_v2\PIC18_Zigbee_R&D_by_Lab411\Microchip\ZigBeeStack\zNWK.c
                 __pa_136   0x009660    program     static C:\Users\TienDat\Desktop\ActorHome\PIC18_Zigbee_v2\PIC18_Zigbee_R&D_by_Lab411\Microchip\ZigBeeStack\zAPS.c
                 __pa_136   0x004070    program     static C:\Users\TienDat\Desktop\ActorHome\PIC18_Zigbee_v2\PIC18_Zigbee_R&D_by_Lab411\Microchip\ZigBeeStack\zNWK.c
                 __pa_136   0x006f9e    program     static C:\Users\TienDat\Desktop\ActorHome\PIC18_Zigbee_v2\PIC18_Zigbee_R&D_by_Lab411\Microchip\ZigBeeStack\zZDO.c
                 __pa_137   0x006fb8    program     static C:\Users\TienDat\Desktop\ActorHome\PIC18_Zigbee_v2\PIC18_Zigbee_R&D_by_Lab411\Microchip\ZigBeeStack\zZDO.c
                 __pa_137   0x004078    program     static C:\Users\TienDat\Desktop\ActorHome\PIC18_Zigbee_v2\PIC18_Zigbee_R&D_by_Lab411\Microchip\ZigBeeStack\zNWK.c
                 __pa_137   0x009666    program     static C:\Users\TienDat\Desktop\ActorHome\PIC18_Zigbee_v2\PIC18_Zigbee_R&D_by_Lab411\Microchip\ZigBeeStack\zAPS.c
                 __pa_138   0x004080    program     static C:\Users\TienDat\Desktop\ActorHome\PIC18_Zigbee_v2\PIC18_Zigbee_R&D_by_Lab411\Microchip\ZigBeeStack\zNWK.c
                 __pa_138   0x006fc4    program     static C:\Users\TienDat\Desktop\ActorHome\PIC18_Zigbee_v2\PIC18_Zigbee_R&D_by_Lab411\Microchip\ZigBeeStack\zZDO.c
                 __pa_138   0x00966e    program     static C:\Users\TienDat\Desktop\ActorHome\PIC18_Zigbee_v2\PIC18_Zigbee_R&D_by_Lab411\Microchip\ZigBeeStack\zAPS.c
                 __pa_139   0x006fce    program     static C:\Users\TienDat\Desktop\ActorHome\PIC18_Zigbee_v2\PIC18_Zigbee_R&D_by_Lab411\Microchip\ZigBeeStack\zZDO.c
                 __pa_139   0x009676    program     static C:\Users\TienDat\Desktop\ActorHome\PIC18_Zigbee_v2\PIC18_Zigbee_R&D_by_Lab411\Microchip\ZigBeeStack\zAPS.c
                 __pa_139   0x004088    program     static C:\Users\TienDat\Desktop\ActorHome\PIC18_Zigbee_v2\PIC18_Zigbee_R&D_by_Lab411\Microchip\ZigBeeStack\zNWK.c
                  __pa_14   0x00b0ca    program     static C:\Users\TienDat\Desktop\ActorHome\PIC18_Zigbee_v2\PIC18_Zigbee_R&D_by_Lab411\Microchip\ZigBeeStack\zMAC_MRF24J40.c
                  __pa_14   0x00692e    program     static C:\Users\TienDat\Desktop\ActorHome\PIC18_Zigbee_v2\PIC18_Zigbee_R&D_by_Lab411\Microchip\ZigBeeStack\zZDO.c
                  __pa_14   0x00c7a0    program     static C:\Users\TienDat\Desktop\ActorHome\PIC18_Zigbee_v2\PIC18_Zigbee_R&D_by_Lab411\DemoPIC18Router\Router.c
                  __pa_14   0x0090cc    program     static C:\Users\TienDat\Desktop\ActorHome\PIC18_Zigbee_v2\PIC18_Zigbee_R&D_by_Lab411\Microchip\ZigBeeStack\zAPS.c
                  __pa_14   0x003a84    program     static C:\Users\TienDat\Desktop\ActorHome\PIC18_Zigbee_v2\PIC18_Zigbee_R&D_by_Lab411\Microchip\ZigBeeStack\zNWK.c
                 __pa_140   0x0040a0    program     static C:\Users\TienDat\Desktop\ActorHome\PIC18_Zigbee_v2\PIC18_Zigbee_R&D_by_Lab411\Microchip\ZigBeeStack\zNWK.c
                 __pa_140   0x00967e    program     static C:\Users\TienDat\Desktop\ActorHome\PIC18_Zigbee_v2\PIC18_Zigbee_R&D_by_Lab411\Microchip\ZigBeeStack\zAPS.c
                 __pa_140   0x006fe6    program     static C:\Users\TienDat\Desktop\ActorHome\PIC18_Zigbee_v2\PIC18_Zigbee_R&D_by_Lab411\Microchip\ZigBeeStack\zZDO.c
                 __pa_141   0x009688    program     static C:\Users\TienDat\Desktop\ActorHome\PIC18_Zigbee_v2\PIC18_Zigbee_R&D_by_Lab411\Microchip\ZigBeeStack\zAPS.c
                 __pa_141   0x006ff4    program     static C:\Users\TienDat\Desktop\ActorHome\PIC18_Zigbee_v2\PIC18_Zigbee_R&D_by_Lab411\Microchip\ZigBeeStack\zZDO.c
                 __pa_141   0x0040b2    program     static C:\Users\TienDat\Desktop\ActorHome\PIC18_Zigbee_v2\PIC18_Zigbee_R&D_by_Lab411\Microchip\ZigBeeStack\zNWK.c
                 __pa_142   0x009690    program     static C:\Users\TienDat\Desktop\ActorHome\PIC18_Zigbee_v2\PIC18_Zigbee_R&D_by_Lab411\Microchip\ZigBeeStack\zAPS.c
                 __pa_142   0x0040c0    program     static C:\Users\TienDat\Desktop\ActorHome\PIC18_Zigbee_v2\PIC18_Zigbee_R&D_by_Lab411\Microchip\ZigBeeStack\zNWK.c
                 __pa_142   0x006ffa    program     static C:\Users\TienDat\Desktop\ActorHome\PIC18_Zigbee_v2\PIC18_Zigbee_R&D_by_Lab411\Microchip\ZigBeeStack\zZDO.c
                 __pa_143   0x0040d4    program     static C:\Users\TienDat\Desktop\ActorHome\PIC18_Zigbee_v2\PIC18_Zigbee_R&D_by_Lab411\Microchip\ZigBeeStack\zNWK.c
                 __pa_143   0x007006    program     static C:\Users\TienDat\Desktop\ActorHome\PIC18_Zigbee_v2\PIC18_Zigbee_R&D_by_Lab411\Microchip\ZigBeeStack\zZDO.c
                 __pa_143   0x009698    program     static C:\Users\TienDat\Desktop\ActorHome\PIC18_Zigbee_v2\PIC18_Zigbee_R&D_by_Lab411\Microchip\ZigBeeStack\zAPS.c
                 __pa_144   0x0040da    program     static C:\Users\TienDat\Desktop\ActorHome\PIC18_Zigbee_v2\PIC18_Zigbee_R&D_by_Lab411\Microchip\ZigBeeStack\zNWK.c
                 __pa_144   0x007010    program     static C:\Users\TienDat\Desktop\ActorHome\PIC18_Zigbee_v2\PIC18_Zigbee_R&D_by_Lab411\Microchip\ZigBeeStack\zZDO.c
                 __pa_144   0x00969e    program     static C:\Users\TienDat\Desktop\ActorHome\PIC18_Zigbee_v2\PIC18_Zigbee_R&D_by_Lab411\Microchip\ZigBeeStack\zAPS.c
                 __pa_145   0x0040e0    program     static C:\Users\TienDat\Desktop\ActorHome\PIC18_Zigbee_v2\PIC18_Zigbee_R&D_by_Lab411\Microchip\ZigBeeStack\zNWK.c
                 __pa_145   0x0096a8    program     static C:\Users\TienDat\Desktop\ActorHome\PIC18_Zigbee_v2\PIC18_Zigbee_R&D_by_Lab411\Microchip\ZigBeeStack\zAPS.c
                 __pa_145   0x007014    program     static C:\Users\TienDat\Desktop\ActorHome\PIC18_Zigbee_v2\PIC18_Zigbee_R&D_by_Lab411\Microchip\ZigBeeStack\zZDO.c
                 __pa_146   0x00701e    program     static C:\Users\TienDat\Desktop\ActorHome\PIC18_Zigbee_v2\PIC18_Zigbee_R&D_by_Lab411\Microchip\ZigBeeStack\zZDO.c
                 __pa_146   0x0040ea    program     static C:\Users\TienDat\Desktop\ActorHome\PIC18_Zigbee_v2\PIC18_Zigbee_R&D_by_Lab411\Microchip\ZigBeeStack\zNWK.c
                 __pa_146   0x0096b0    program     static C:\Users\TienDat\Desktop\ActorHome\PIC18_Zigbee_v2\PIC18_Zigbee_R&D_by_Lab411\Microchip\ZigBeeStack\zAPS.c
                 __pa_147   0x0096ba    program     static C:\Users\TienDat\Desktop\ActorHome\PIC18_Zigbee_v2\PIC18_Zigbee_R&D_by_Lab411\Microchip\ZigBeeStack\zAPS.c
                 __pa_147   0x007024    program     static C:\Users\TienDat\Desktop\ActorHome\PIC18_Zigbee_v2\PIC18_Zigbee_R&D_by_Lab411\Microchip\ZigBeeStack\zZDO.c
                 __pa_147   0x0040f0    program     static C:\Users\TienDat\Desktop\ActorHome\PIC18_Zigbee_v2\PIC18_Zigbee_R&D_by_Lab411\Microchip\ZigBeeStack\zNWK.c
                 __pa_148   0x0040fa    program     static C:\Users\TienDat\Desktop\ActorHome\PIC18_Zigbee_v2\PIC18_Zigbee_R&D_by_Lab411\Microchip\ZigBeeStack\zNWK.c
                 __pa_148   0x0096c2    program     static C:\Users\TienDat\Desktop\ActorHome\PIC18_Zigbee_v2\PIC18_Zigbee_R&D_by_Lab411\Microchip\ZigBeeStack\zAPS.c
                 __pa_148   0x00702a    program     static C:\Users\TienDat\Desktop\ActorHome\PIC18_Zigbee_v2\PIC18_Zigbee_R&D_by_Lab411\Microchip\ZigBeeStack\zZDO.c
                 __pa_149   0x00703c    program     static C:\Users\TienDat\Desktop\ActorHome\PIC18_Zigbee_v2\PIC18_Zigbee_R&D_by_Lab411\Microchip\ZigBeeStack\zZDO.c
                 __pa_149   0x004102    program     static C:\Users\TienDat\Desktop\ActorHome\PIC18_Zigbee_v2\PIC18_Zigbee_R&D_by_Lab411\Microchip\ZigBeeStack\zNWK.c
                 __pa_149   0x0096d6    program     static C:\Users\TienDat\Desktop\ActorHome\PIC18_Zigbee_v2\PIC18_Zigbee_R&D_by_Lab411\Microchip\ZigBeeStack\zAPS.c
                  __pa_15   0x006934    program     static C:\Users\TienDat\Desktop\ActorHome\PIC18_Zigbee_v2\PIC18_Zigbee_R&D_by_Lab411\Microchip\ZigBeeStack\zZDO.c
                  __pa_15   0x003a8c    program     static C:\Users\TienDat\Desktop\ActorHome\PIC18_Zigbee_v2\PIC18_Zigbee_R&D_by_Lab411\Microchip\ZigBeeStack\zNWK.c
                  __pa_15   0x0090d8    program     static C:\Users\TienDat\Desktop\ActorHome\PIC18_Zigbee_v2\PIC18_Zigbee_R&D_by_Lab411\Microchip\ZigBeeStack\zAPS.c
                  __pa_15   0x00b0d4    program     static C:\Users\TienDat\Desktop\ActorHome\PIC18_Zigbee_v2\PIC18_Zigbee_R&D_by_Lab411\Microchip\ZigBeeStack\zMAC_MRF24J40.c
                 __pa_150   0x0096e0    program     static C:\Users\TienDat\Desktop\ActorHome\PIC18_Zigbee_v2\PIC18_Zigbee_R&D_by_Lab411\Microchip\ZigBeeStack\zAPS.c
                 __pa_150   0x00410a    program     static C:\Users\TienDat\Desktop\ActorHome\PIC18_Zigbee_v2\PIC18_Zigbee_R&D_by_Lab411\Microchip\ZigBeeStack\zNWK.c
                 __pa_150   0x007046    program     static C:\Users\TienDat\Desktop\ActorHome\PIC18_Zigbee_v2\PIC18_Zigbee_R&D_by_Lab411\Microchip\ZigBeeStack\zZDO.c
                 __pa_151   0x0096e6    program     static C:\Users\TienDat\Desktop\ActorHome\PIC18_Zigbee_v2\PIC18_Zigbee_R&D_by_Lab411\Microchip\ZigBeeStack\zAPS.c
                 __pa_151   0x004112    program     static C:\Users\TienDat\Desktop\ActorHome\PIC18_Zigbee_v2\PIC18_Zigbee_R&D_by_Lab411\Microchip\ZigBeeStack\zNWK.c
                 __pa_151   0x007050    program     static C:\Users\TienDat\Desktop\ActorHome\PIC18_Zigbee_v2\PIC18_Zigbee_R&D_by_Lab411\Microchip\ZigBeeStack\zZDO.c
                 __pa_152   0x004122    program     static C:\Users\TienDat\Desktop\ActorHome\PIC18_Zigbee_v2\PIC18_Zigbee_R&D_by_Lab411\Microchip\ZigBeeStack\zNWK.c
                 __pa_152   0x0096ee    program     static C:\Users\TienDat\Desktop\ActorHome\PIC18_Zigbee_v2\PIC18_Zigbee_R&D_by_Lab411\Microchip\ZigBeeStack\zAPS.c
                 __pa_152   0x007056    program     static C:\Users\TienDat\Desktop\ActorHome\PIC18_Zigbee_v2\PIC18_Zigbee_R&D_by_Lab411\Microchip\ZigBeeStack\zZDO.c
                 __pa_153   0x004128    program     static C:\Users\TienDat\Desktop\ActorHome\PIC18_Zigbee_v2\PIC18_Zigbee_R&D_by_Lab411\Microchip\ZigBeeStack\zNWK.c
                 __pa_153   0x007060    program     static C:\Users\TienDat\Desktop\ActorHome\PIC18_Zigbee_v2\PIC18_Zigbee_R&D_by_Lab411\Microchip\ZigBeeStack\zZDO.c
                 __pa_153   0x0096f4    program     static C:\Users\TienDat\Desktop\ActorHome\PIC18_Zigbee_v2\PIC18_Zigbee_R&D_by_Lab411\Microchip\ZigBeeStack\zAPS.c
                 __pa_154   0x0096fc    program     static C:\Users\TienDat\Desktop\ActorHome\PIC18_Zigbee_v2\PIC18_Zigbee_R&D_by_Lab411\Microchip\ZigBeeStack\zAPS.c
                 __pa_154   0x007070    program     static C:\Users\TienDat\Desktop\ActorHome\PIC18_Zigbee_v2\PIC18_Zigbee_R&D_by_Lab411\Microchip\ZigBeeStack\zZDO.c
                 __pa_154   0x00412e    program     static C:\Users\TienDat\Desktop\ActorHome\PIC18_Zigbee_v2\PIC18_Zigbee_R&D_by_Lab411\Microchip\ZigBeeStack\zNWK.c
                 __pa_155   0x009704    program     static C:\Users\TienDat\Desktop\ActorHome\PIC18_Zigbee_v2\PIC18_Zigbee_R&D_by_Lab411\Microchip\ZigBeeStack\zAPS.c
                 __pa_155   0x00707c    program     static C:\Users\TienDat\Desktop\ActorHome\PIC18_Zigbee_v2\PIC18_Zigbee_R&D_by_Lab411\Microchip\ZigBeeStack\zZDO.c
                 __pa_155   0x004134    program     static C:\Users\TienDat\Desktop\ActorHome\PIC18_Zigbee_v2\PIC18_Zigbee_R&D_by_Lab411\Microchip\ZigBeeStack\zNWK.c
                 __pa_156   0x009716    program     static C:\Users\TienDat\Desktop\ActorHome\PIC18_Zigbee_v2\PIC18_Zigbee_R&D_by_Lab411\Microchip\ZigBeeStack\zAPS.c
                 __pa_156   0x00413a    program     static C:\Users\TienDat\Desktop\ActorHome\PIC18_Zigbee_v2\PIC18_Zigbee_R&D_by_Lab411\Microchip\ZigBeeStack\zNWK.c
                 __pa_156   0x007086    program     static C:\Users\TienDat\Desktop\ActorHome\PIC18_Zigbee_v2\PIC18_Zigbee_R&D_by_Lab411\Microchip\ZigBeeStack\zZDO.c
                 __pa_157   0x004140    program     static C:\Users\TienDat\Desktop\ActorHome\PIC18_Zigbee_v2\PIC18_Zigbee_R&D_by_Lab411\Microchip\ZigBeeStack\zNWK.c
                 __pa_157   0x00971e    program     static C:\Users\TienDat\Desktop\ActorHome\PIC18_Zigbee_v2\PIC18_Zigbee_R&D_by_Lab411\Microchip\ZigBeeStack\zAPS.c
                 __pa_157   0x00708e    program     static C:\Users\TienDat\Desktop\ActorHome\PIC18_Zigbee_v2\PIC18_Zigbee_R&D_by_Lab411\Microchip\ZigBeeStack\zZDO.c
                 __pa_158   0x009724    program     static C:\Users\TienDat\Desktop\ActorHome\PIC18_Zigbee_v2\PIC18_Zigbee_R&D_by_Lab411\Microchip\ZigBeeStack\zAPS.c
                 __pa_158   0x00414a    program     static C:\Users\TienDat\Desktop\ActorHome\PIC18_Zigbee_v2\PIC18_Zigbee_R&D_by_Lab411\Microchip\ZigBeeStack\zNWK.c
                 __pa_158   0x007098    program     static C:\Users\TienDat\Desktop\ActorHome\PIC18_Zigbee_v2\PIC18_Zigbee_R&D_by_Lab411\Microchip\ZigBeeStack\zZDO.c
                 __pa_159   0x004152    program     static C:\Users\TienDat\Desktop\ActorHome\PIC18_Zigbee_v2\PIC18_Zigbee_R&D_by_Lab411\Microchip\ZigBeeStack\zNWK.c
                 __pa_159   0x0070a8    program     static C:\Users\TienDat\Desktop\ActorHome\PIC18_Zigbee_v2\PIC18_Zigbee_R&D_by_Lab411\Microchip\ZigBeeStack\zZDO.c
                 __pa_159   0x009730    program     static C:\Users\TienDat\Desktop\ActorHome\PIC18_Zigbee_v2\PIC18_Zigbee_R&D_by_Lab411\Microchip\ZigBeeStack\zAPS.c
                  __pa_16   0x00b104    program     static C:\Users\TienDat\Desktop\ActorHome\PIC18_Zigbee_v2\PIC18_Zigbee_R&D_by_Lab411\Microchip\ZigBeeStack\zMAC_MRF24J40.c
                  __pa_16   0x0090ea    program     static C:\Users\TienDat\Desktop\ActorHome\PIC18_Zigbee_v2\PIC18_Zigbee_R&D_by_Lab411\Microchip\ZigBeeStack\zAPS.c
                  __pa_16   0x003a94    program     static C:\Users\TienDat\Desktop\ActorHome\PIC18_Zigbee_v2\PIC18_Zigbee_R&D_by_Lab411\Microchip\ZigBeeStack\zNWK.c
                  __pa_16   0x006940    program     static C:\Users\TienDat\Desktop\ActorHome\PIC18_Zigbee_v2\PIC18_Zigbee_R&D_by_Lab411\Microchip\ZigBeeStack\zZDO.c
                 __pa_160   0x00973c    program     static C:\Users\TienDat\Desktop\ActorHome\PIC18_Zigbee_v2\PIC18_Zigbee_R&D_by_Lab411\Microchip\ZigBeeStack\zAPS.c
                 __pa_160   0x0070b0    program     static C:\Users\TienDat\Desktop\ActorHome\PIC18_Zigbee_v2\PIC18_Zigbee_R&D_by_Lab411\Microchip\ZigBeeStack\zZDO.c
                 __pa_160   0x004158    program     static C:\Users\TienDat\Desktop\ActorHome\PIC18_Zigbee_v2\PIC18_Zigbee_R&D_by_Lab411\Microchip\ZigBeeStack\zNWK.c
                 __pa_161   0x009744    program     static C:\Users\TienDat\Desktop\ActorHome\PIC18_Zigbee_v2\PIC18_Zigbee_R&D_by_Lab411\Microchip\ZigBeeStack\zAPS.c
                 __pa_161   0x00415e    program     static C:\Users\TienDat\Desktop\ActorHome\PIC18_Zigbee_v2\PIC18_Zigbee_R&D_by_Lab411\Microchip\ZigBeeStack\zNWK.c
                 __pa_161   0x0070c2    program     static C:\Users\TienDat\Desktop\ActorHome\PIC18_Zigbee_v2\PIC18_Zigbee_R&D_by_Lab411\Microchip\ZigBeeStack\zZDO.c
                 __pa_162   0x00974c    program     static C:\Users\TienDat\Desktop\ActorHome\PIC18_Zigbee_v2\PIC18_Zigbee_R&D_by_Lab411\Microchip\ZigBeeStack\zAPS.c
                 __pa_162   0x00417e    program     static C:\Users\TienDat\Desktop\ActorHome\PIC18_Zigbee_v2\PIC18_Zigbee_R&D_by_Lab411\Microchip\ZigBeeStack\zNWK.c
                 __pa_162   0x0070d0    program     static C:\Users\TienDat\Desktop\ActorHome\PIC18_Zigbee_v2\PIC18_Zigbee_R&D_by_Lab411\Microchip\ZigBeeStack\zZDO.c
                 __pa_163   0x009754    program     static C:\Users\TienDat\Desktop\ActorHome\PIC18_Zigbee_v2\PIC18_Zigbee_R&D_by_Lab411\Microchip\ZigBeeStack\zAPS.c
                 __pa_163   0x00418a    program     static C:\Users\TienDat\Desktop\ActorHome\PIC18_Zigbee_v2\PIC18_Zigbee_R&D_by_Lab411\Microchip\ZigBeeStack\zNWK.c
                 __pa_163   0x0070dc    program     static C:\Users\TienDat\Desktop\ActorHome\PIC18_Zigbee_v2\PIC18_Zigbee_R&D_by_Lab411\Microchip\ZigBeeStack\zZDO.c
                 __pa_164   0x004190    program     static C:\Users\TienDat\Desktop\ActorHome\PIC18_Zigbee_v2\PIC18_Zigbee_R&D_by_Lab411\Microchip\ZigBeeStack\zNWK.c
                 __pa_164   0x00975c    program     static C:\Users\TienDat\Desktop\ActorHome\PIC18_Zigbee_v2\PIC18_Zigbee_R&D_by_Lab411\Microchip\ZigBeeStack\zAPS.c
                 __pa_164   0x0070e8    program     static C:\Users\TienDat\Desktop\ActorHome\PIC18_Zigbee_v2\PIC18_Zigbee_R&D_by_Lab411\Microchip\ZigBeeStack\zZDO.c
                 __pa_165   0x0041a2    program     static C:\Users\TienDat\Desktop\ActorHome\PIC18_Zigbee_v2\PIC18_Zigbee_R&D_by_Lab411\Microchip\ZigBeeStack\zNWK.c
                 __pa_165   0x0070f0    program     static C:\Users\TienDat\Desktop\ActorHome\PIC18_Zigbee_v2\PIC18_Zigbee_R&D_by_Lab411\Microchip\ZigBeeStack\zZDO.c
                 __pa_165   0x009766    program     static C:\Users\TienDat\Desktop\ActorHome\PIC18_Zigbee_v2\PIC18_Zigbee_R&D_by_Lab411\Microchip\ZigBeeStack\zAPS.c
                 __pa_166   0x0070f6    program     static C:\Users\TienDat\Desktop\ActorHome\PIC18_Zigbee_v2\PIC18_Zigbee_R&D_by_Lab411\Microchip\ZigBeeStack\zZDO.c
                 __pa_166   0x0041a8    program     static C:\Users\TienDat\Desktop\ActorHome\PIC18_Zigbee_v2\PIC18_Zigbee_R&D_by_Lab411\Microchip\ZigBeeStack\zNWK.c
                 __pa_166   0x00976c    program     static C:\Users\TienDat\Desktop\ActorHome\PIC18_Zigbee_v2\PIC18_Zigbee_R&D_by_Lab411\Microchip\ZigBeeStack\zAPS.c
                 __pa_167   0x0041ae    program     static C:\Users\TienDat\Desktop\ActorHome\PIC18_Zigbee_v2\PIC18_Zigbee_R&D_by_Lab411\Microchip\ZigBeeStack\zNWK.c
                 __pa_167   0x009776    program     static C:\Users\TienDat\Desktop\ActorHome\PIC18_Zigbee_v2\PIC18_Zigbee_R&D_by_Lab411\Microchip\ZigBeeStack\zAPS.c
                 __pa_167   0x007100    program     static C:\Users\TienDat\Desktop\ActorHome\PIC18_Zigbee_v2\PIC18_Zigbee_R&D_by_Lab411\Microchip\ZigBeeStack\zZDO.c
                 __pa_168   0x0041bc    program     static C:\Users\TienDat\Desktop\ActorHome\PIC18_Zigbee_v2\PIC18_Zigbee_R&D_by_Lab411\Microchip\ZigBeeStack\zNWK.c
                 __pa_168   0x007108    program     static C:\Users\TienDat\Desktop\ActorHome\PIC18_Zigbee_v2\PIC18_Zigbee_R&D_by_Lab411\Microchip\ZigBeeStack\zZDO.c
                 __pa_168   0x009782    program     static C:\Users\TienDat\Desktop\ActorHome\PIC18_Zigbee_v2\PIC18_Zigbee_R&D_by_Lab411\Microchip\ZigBeeStack\zAPS.c
                 __pa_169   0x007114    program     static C:\Users\TienDat\Desktop\ActorHome\PIC18_Zigbee_v2\PIC18_Zigbee_R&D_by_Lab411\Microchip\ZigBeeStack\zZDO.c
                 __pa_169   0x00978e    program     static C:\Users\TienDat\Desktop\ActorHome\PIC18_Zigbee_v2\PIC18_Zigbee_R&D_by_Lab411\Microchip\ZigBeeStack\zAPS.c
                 __pa_169   0x0041c2    program     static C:\Users\TienDat\Desktop\ActorHome\PIC18_Zigbee_v2\PIC18_Zigbee_R&D_by_Lab411\Microchip\ZigBeeStack\zNWK.c
                  __pa_17   0x003aa0    program     static C:\Users\TienDat\Desktop\ActorHome\PIC18_Zigbee_v2\PIC18_Zigbee_R&D_by_Lab411\Microchip\ZigBeeStack\zNWK.c
                  __pa_17   0x00b10c    program     static C:\Users\TienDat\Desktop\ActorHome\PIC18_Zigbee_v2\PIC18_Zigbee_R&D_by_Lab411\Microchip\ZigBeeStack\zMAC_MRF24J40.c
                  __pa_17   0x0090fc    program     static C:\Users\TienDat\Desktop\ActorHome\PIC18_Zigbee_v2\PIC18_Zigbee_R&D_by_Lab411\Microchip\ZigBeeStack\zAPS.c
                  __pa_17   0x00694a    program     static C:\Users\TienDat\Desktop\ActorHome\PIC18_Zigbee_v2\PIC18_Zigbee_R&D_by_Lab411\Microchip\ZigBeeStack\zZDO.c
                 __pa_170   0x007120    program     static C:\Users\TienDat\Desktop\ActorHome\PIC18_Zigbee_v2\PIC18_Zigbee_R&D_by_Lab411\Microchip\ZigBeeStack\zZDO.c
                 __pa_170   0x009798    program     static C:\Users\TienDat\Desktop\ActorHome\PIC18_Zigbee_v2\PIC18_Zigbee_R&D_by_Lab411\Microchip\ZigBeeStack\zAPS.c
                 __pa_170   0x0041d2    program     static C:\Users\TienDat\Desktop\ActorHome\PIC18_Zigbee_v2\PIC18_Zigbee_R&D_by_Lab411\Microchip\ZigBeeStack\zNWK.c
                 __pa_171   0x00979e    program     static C:\Users\TienDat\Desktop\ActorHome\PIC18_Zigbee_v2\PIC18_Zigbee_R&D_by_Lab411\Microchip\ZigBeeStack\zAPS.c
                 __pa_171   0x007126    program     static C:\Users\TienDat\Desktop\ActorHome\PIC18_Zigbee_v2\PIC18_Zigbee_R&D_by_Lab411\Microchip\ZigBeeStack\zZDO.c
                 __pa_171   0x0041dc    program     static C:\Users\TienDat\Desktop\ActorHome\PIC18_Zigbee_v2\PIC18_Zigbee_R&D_by_Lab411\Microchip\ZigBeeStack\zNWK.c
                 __pa_172   0x0097aa    program     static C:\Users\TienDat\Desktop\ActorHome\PIC18_Zigbee_v2\PIC18_Zigbee_R&D_by_Lab411\Microchip\ZigBeeStack\zAPS.c
                 __pa_172   0x00712c    program     static C:\Users\TienDat\Desktop\ActorHome\PIC18_Zigbee_v2\PIC18_Zigbee_R&D_by_Lab411\Microchip\ZigBeeStack\zZDO.c
                 __pa_172   0x0041e6    program     static C:\Users\TienDat\Desktop\ActorHome\PIC18_Zigbee_v2\PIC18_Zigbee_R&D_by_Lab411\Microchip\ZigBeeStack\zNWK.c
                 __pa_173   0x00713a    program     static C:\Users\TienDat\Desktop\ActorHome\PIC18_Zigbee_v2\PIC18_Zigbee_R&D_by_Lab411\Microchip\ZigBeeStack\zZDO.c
                 __pa_173   0x0041f0    program     static C:\Users\TienDat\Desktop\ActorHome\PIC18_Zigbee_v2\PIC18_Zigbee_R&D_by_Lab411\Microchip\ZigBeeStack\zNWK.c
                 __pa_173   0x0097b4    program     static C:\Users\TienDat\Desktop\ActorHome\PIC18_Zigbee_v2\PIC18_Zigbee_R&D_by_Lab411\Microchip\ZigBeeStack\zAPS.c
                 __pa_174   0x007148    program     static C:\Users\TienDat\Desktop\ActorHome\PIC18_Zigbee_v2\PIC18_Zigbee_R&D_by_Lab411\Microchip\ZigBeeStack\zZDO.c
                 __pa_174   0x0041fc    program     static C:\Users\TienDat\Desktop\ActorHome\PIC18_Zigbee_v2\PIC18_Zigbee_R&D_by_Lab411\Microchip\ZigBeeStack\zNWK.c
                 __pa_174   0x0097be    program     static C:\Users\TienDat\Desktop\ActorHome\PIC18_Zigbee_v2\PIC18_Zigbee_R&D_by_Lab411\Microchip\ZigBeeStack\zAPS.c
                 __pa_175   0x0097c8    program     static C:\Users\TienDat\Desktop\ActorHome\PIC18_Zigbee_v2\PIC18_Zigbee_R&D_by_Lab411\Microchip\ZigBeeStack\zAPS.c
                 __pa_175   0x004204    program     static C:\Users\TienDat\Desktop\ActorHome\PIC18_Zigbee_v2\PIC18_Zigbee_R&D_by_Lab411\Microchip\ZigBeeStack\zNWK.c
                 __pa_175   0x007156    program     static C:\Users\TienDat\Desktop\ActorHome\PIC18_Zigbee_v2\PIC18_Zigbee_R&D_by_Lab411\Microchip\ZigBeeStack\zZDO.c
                 __pa_176   0x0097d4    program     static C:\Users\TienDat\Desktop\ActorHome\PIC18_Zigbee_v2\PIC18_Zigbee_R&D_by_Lab411\Microchip\ZigBeeStack\zAPS.c
                 __pa_176   0x00420c    program     static C:\Users\TienDat\Desktop\ActorHome\PIC18_Zigbee_v2\PIC18_Zigbee_R&D_by_Lab411\Microchip\ZigBeeStack\zNWK.c
                 __pa_176   0x007164    program     static C:\Users\TienDat\Desktop\ActorHome\PIC18_Zigbee_v2\PIC18_Zigbee_R&D_by_Lab411\Microchip\ZigBeeStack\zZDO.c
                 __pa_177   0x004212    program     static C:\Users\TienDat\Desktop\ActorHome\PIC18_Zigbee_v2\PIC18_Zigbee_R&D_by_Lab411\Microchip\ZigBeeStack\zNWK.c
                 __pa_177   0x00716c    program     static C:\Users\TienDat\Desktop\ActorHome\PIC18_Zigbee_v2\PIC18_Zigbee_R&D_by_Lab411\Microchip\ZigBeeStack\zZDO.c
                 __pa_177   0x0097dc    program     static C:\Users\TienDat\Desktop\ActorHome\PIC18_Zigbee_v2\PIC18_Zigbee_R&D_by_Lab411\Microchip\ZigBeeStack\zAPS.c
                 __pa_178   0x00422c    program     static C:\Users\TienDat\Desktop\ActorHome\PIC18_Zigbee_v2\PIC18_Zigbee_R&D_by_Lab411\Microchip\ZigBeeStack\zNWK.c
                 __pa_178   0x007174    program     static C:\Users\TienDat\Desktop\ActorHome\PIC18_Zigbee_v2\PIC18_Zigbee_R&D_by_Lab411\Microchip\ZigBeeStack\zZDO.c
                 __pa_178   0x0097e4    program     static C:\Users\TienDat\Desktop\ActorHome\PIC18_Zigbee_v2\PIC18_Zigbee_R&D_by_Lab411\Microchip\ZigBeeStack\zAPS.c
                 __pa_179   0x00423c    program     static C:\Users\TienDat\Desktop\ActorHome\PIC18_Zigbee_v2\PIC18_Zigbee_R&D_by_Lab411\Microchip\ZigBeeStack\zNWK.c
                 __pa_179   0x00717e    program     static C:\Users\TienDat\Desktop\ActorHome\PIC18_Zigbee_v2\PIC18_Zigbee_R&D_by_Lab411\Microchip\ZigBeeStack\zZDO.c
                 __pa_179   0x0097ea    program     static C:\Users\TienDat\Desktop\ActorHome\PIC18_Zigbee_v2\PIC18_Zigbee_R&D_by_Lab411\Microchip\ZigBeeStack\zAPS.c
                  __pa_18   0x00b112    program     static C:\Users\TienDat\Desktop\ActorHome\PIC18_Zigbee_v2\PIC18_Zigbee_R&D_by_Lab411\Microchip\ZigBeeStack\zMAC_MRF24J40.c
                  __pa_18   0x003aa8    program     static C:\Users\TienDat\Desktop\ActorHome\PIC18_Zigbee_v2\PIC18_Zigbee_R&D_by_Lab411\Microchip\ZigBeeStack\zNWK.c
                  __pa_18   0x009110    program     static C:\Users\TienDat\Desktop\ActorHome\PIC18_Zigbee_v2\PIC18_Zigbee_R&D_by_Lab411\Microchip\ZigBeeStack\zAPS.c
                  __pa_18   0x006954    program     static C:\Users\TienDat\Desktop\ActorHome\PIC18_Zigbee_v2\PIC18_Zigbee_R&D_by_Lab411\Microchip\ZigBeeStack\zZDO.c
                 __pa_180   0x004244    program     static C:\Users\TienDat\Desktop\ActorHome\PIC18_Zigbee_v2\PIC18_Zigbee_R&D_by_Lab411\Microchip\ZigBeeStack\zNWK.c
                 __pa_180   0x007186    program     static C:\Users\TienDat\Desktop\ActorHome\PIC18_Zigbee_v2\PIC18_Zigbee_R&D_by_Lab411\Microchip\ZigBeeStack\zZDO.c
                 __pa_180   0x0097f0    program     static C:\Users\TienDat\Desktop\ActorHome\PIC18_Zigbee_v2\PIC18_Zigbee_R&D_by_Lab411\Microchip\ZigBeeStack\zAPS.c
                 __pa_181   0x004250    program     static C:\Users\TienDat\Desktop\ActorHome\PIC18_Zigbee_v2\PIC18_Zigbee_R&D_by_Lab411\Microchip\ZigBeeStack\zNWK.c
                 __pa_181   0x0097f6    program     static C:\Users\TienDat\Desktop\ActorHome\PIC18_Zigbee_v2\PIC18_Zigbee_R&D_by_Lab411\Microchip\ZigBeeStack\zAPS.c
                 __pa_181   0x00718e    program     static C:\Users\TienDat\Desktop\ActorHome\PIC18_Zigbee_v2\PIC18_Zigbee_R&D_by_Lab411\Microchip\ZigBeeStack\zZDO.c
                 __pa_182   0x00425c    program     static C:\Users\TienDat\Desktop\ActorHome\PIC18_Zigbee_v2\PIC18_Zigbee_R&D_by_Lab411\Microchip\ZigBeeStack\zNWK.c
                 __pa_182   0x0097fe    program     static C:\Users\TienDat\Desktop\ActorHome\PIC18_Zigbee_v2\PIC18_Zigbee_R&D_by_Lab411\Microchip\ZigBeeStack\zAPS.c
                 __pa_182   0x007194    program     static C:\Users\TienDat\Desktop\ActorHome\PIC18_Zigbee_v2\PIC18_Zigbee_R&D_by_Lab411\Microchip\ZigBeeStack\zZDO.c
                 __pa_183   0x009810    program     static C:\Users\TienDat\Desktop\ActorHome\PIC18_Zigbee_v2\PIC18_Zigbee_R&D_by_Lab411\Microchip\ZigBeeStack\zAPS.c
                 __pa_183   0x004264    program     static C:\Users\TienDat\Desktop\ActorHome\PIC18_Zigbee_v2\PIC18_Zigbee_R&D_by_Lab411\Microchip\ZigBeeStack\zNWK.c
                 __pa_183   0x0071a6    program     static C:\Users\TienDat\Desktop\ActorHome\PIC18_Zigbee_v2\PIC18_Zigbee_R&D_by_Lab411\Microchip\ZigBeeStack\zZDO.c
                 __pa_184   0x004274    program     static C:\Users\TienDat\Desktop\ActorHome\PIC18_Zigbee_v2\PIC18_Zigbee_R&D_by_Lab411\Microchip\ZigBeeStack\zNWK.c
                 __pa_184   0x0071b8    program     static C:\Users\TienDat\Desktop\ActorHome\PIC18_Zigbee_v2\PIC18_Zigbee_R&D_by_Lab411\Microchip\ZigBeeStack\zZDO.c
                 __pa_184   0x00981c    program     static C:\Users\TienDat\Desktop\ActorHome\PIC18_Zigbee_v2\PIC18_Zigbee_R&D_by_Lab411\Microchip\ZigBeeStack\zAPS.c
                 __pa_185   0x00427c    program     static C:\Users\TienDat\Desktop\ActorHome\PIC18_Zigbee_v2\PIC18_Zigbee_R&D_by_Lab411\Microchip\ZigBeeStack\zNWK.c
                 __pa_185   0x0071be    program     static C:\Users\TienDat\Desktop\ActorHome\PIC18_Zigbee_v2\PIC18_Zigbee_R&D_by_Lab411\Microchip\ZigBeeStack\zZDO.c
                 __pa_185   0x009824    program     static C:\Users\TienDat\Desktop\ActorHome\PIC18_Zigbee_v2\PIC18_Zigbee_R&D_by_Lab411\Microchip\ZigBeeStack\zAPS.c
                 __pa_186   0x004282    program     static C:\Users\TienDat\Desktop\ActorHome\PIC18_Zigbee_v2\PIC18_Zigbee_R&D_by_Lab411\Microchip\ZigBeeStack\zNWK.c
                 __pa_186   0x0071d2    program     static C:\Users\TienDat\Desktop\ActorHome\PIC18_Zigbee_v2\PIC18_Zigbee_R&D_by_Lab411\Microchip\ZigBeeStack\zZDO.c
                 __pa_186   0x00982a    program     static C:\Users\TienDat\Desktop\ActorHome\PIC18_Zigbee_v2\PIC18_Zigbee_R&D_by_Lab411\Microchip\ZigBeeStack\zAPS.c
                 __pa_187   0x0071e6    program     static C:\Users\TienDat\Desktop\ActorHome\PIC18_Zigbee_v2\PIC18_Zigbee_R&D_by_Lab411\Microchip\ZigBeeStack\zZDO.c
                 __pa_187   0x009832    program     static C:\Users\TienDat\Desktop\ActorHome\PIC18_Zigbee_v2\PIC18_Zigbee_R&D_by_Lab411\Microchip\ZigBeeStack\zAPS.c
                 __pa_187   0x00428a    program     static C:\Users\TienDat\Desktop\ActorHome\PIC18_Zigbee_v2\PIC18_Zigbee_R&D_by_Lab411\Microchip\ZigBeeStack\zNWK.c
                 __pa_188   0x004298    program     static C:\Users\TienDat\Desktop\ActorHome\PIC18_Zigbee_v2\PIC18_Zigbee_R&D_by_Lab411\Microchip\ZigBeeStack\zNWK.c
                 __pa_188   0x0071ec    program     static C:\Users\TienDat\Desktop\ActorHome\PIC18_Zigbee_v2\PIC18_Zigbee_R&D_by_Lab411\Microchip\ZigBeeStack\zZDO.c
                 __pa_188   0x009840    program     static C:\Users\TienDat\Desktop\ActorHome\PIC18_Zigbee_v2\PIC18_Zigbee_R&D_by_Lab411\Microchip\ZigBeeStack\zAPS.c
                 __pa_189   0x0042a4    program     static C:\Users\TienDat\Desktop\ActorHome\PIC18_Zigbee_v2\PIC18_Zigbee_R&D_by_Lab411\Microchip\ZigBeeStack\zNWK.c
                 __pa_189   0x0071f2    program     static C:\Users\TienDat\Desktop\ActorHome\PIC18_Zigbee_v2\PIC18_Zigbee_R&D_by_Lab411\Microchip\ZigBeeStack\zZDO.c
                 __pa_189   0x00984a    program     static C:\Users\TienDat\Desktop\ActorHome\PIC18_Zigbee_v2\PIC18_Zigbee_R&D_by_Lab411\Microchip\ZigBeeStack\zAPS.c
                  __pa_19   0x009128    program     static C:\Users\TienDat\Desktop\ActorHome\PIC18_Zigbee_v2\PIC18_Zigbee_R&D_by_Lab411\Microchip\ZigBeeStack\zAPS.c
                  __pa_19   0x003ab4    program     static C:\Users\TienDat\Desktop\ActorHome\PIC18_Zigbee_v2\PIC18_Zigbee_R&D_by_Lab411\Microchip\ZigBeeStack\zNWK.c
                  __pa_19   0x00b11a    program     static C:\Users\TienDat\Desktop\ActorHome\PIC18_Zigbee_v2\PIC18_Zigbee_R&D_by_Lab411\Microchip\ZigBeeStack\zMAC_MRF24J40.c
                  __pa_19   0x00695e    program     static C:\Users\TienDat\Desktop\ActorHome\PIC18_Zigbee_v2\PIC18_Zigbee_R&D_by_Lab411\Microchip\ZigBeeStack\zZDO.c
                 __pa_190   0x009854    program     static C:\Users\TienDat\Desktop\ActorHome\PIC18_Zigbee_v2\PIC18_Zigbee_R&D_by_Lab411\Microchip\ZigBeeStack\zAPS.c
                 __pa_190   0x0042ac    program     static C:\Users\TienDat\Desktop\ActorHome\PIC18_Zigbee_v2\PIC18_Zigbee_R&D_by_Lab411\Microchip\ZigBeeStack\zNWK.c
                 __pa_190   0x0071fa    program     static C:\Users\TienDat\Desktop\ActorHome\PIC18_Zigbee_v2\PIC18_Zigbee_R&D_by_Lab411\Microchip\ZigBeeStack\zZDO.c
                 __pa_191   0x0042b6    program     static C:\Users\TienDat\Desktop\ActorHome\PIC18_Zigbee_v2\PIC18_Zigbee_R&D_by_Lab411\Microchip\ZigBeeStack\zNWK.c
                 __pa_191   0x007204    program     static C:\Users\TienDat\Desktop\ActorHome\PIC18_Zigbee_v2\PIC18_Zigbee_R&D_by_Lab411\Microchip\ZigBeeStack\zZDO.c
                 __pa_192   0x0042c0    program     static C:\Users\TienDat\Desktop\ActorHome\PIC18_Zigbee_v2\PIC18_Zigbee_R&D_by_Lab411\Microchip\ZigBeeStack\zNWK.c
                 __pa_192   0x00720e    program     static C:\Users\TienDat\Desktop\ActorHome\PIC18_Zigbee_v2\PIC18_Zigbee_R&D_by_Lab411\Microchip\ZigBeeStack\zZDO.c
                 __pa_193   0x0042cc    program     static C:\Users\TienDat\Desktop\ActorHome\PIC18_Zigbee_v2\PIC18_Zigbee_R&D_by_Lab411\Microchip\ZigBeeStack\zNWK.c
                 __pa_193   0x00721c    program     static C:\Users\TienDat\Desktop\ActorHome\PIC18_Zigbee_v2\PIC18_Zigbee_R&D_by_Lab411\Microchip\ZigBeeStack\zZDO.c
                 __pa_194   0x0042d2    program     static C:\Users\TienDat\Desktop\ActorHome\PIC18_Zigbee_v2\PIC18_Zigbee_R&D_by_Lab411\Microchip\ZigBeeStack\zNWK.c
                 __pa_194   0x00722a    program     static C:\Users\TienDat\Desktop\ActorHome\PIC18_Zigbee_v2\PIC18_Zigbee_R&D_by_Lab411\Microchip\ZigBeeStack\zZDO.c
                 __pa_195   0x0042da    program     static C:\Users\TienDat\Desktop\ActorHome\PIC18_Zigbee_v2\PIC18_Zigbee_R&D_by_Lab411\Microchip\ZigBeeStack\zNWK.c
                 __pa_195   0x007230    program     static C:\Users\TienDat\Desktop\ActorHome\PIC18_Zigbee_v2\PIC18_Zigbee_R&D_by_Lab411\Microchip\ZigBeeStack\zZDO.c
                 __pa_196   0x0042ec    program     static C:\Users\TienDat\Desktop\ActorHome\PIC18_Zigbee_v2\PIC18_Zigbee_R&D_by_Lab411\Microchip\ZigBeeStack\zNWK.c
                 __pa_196   0x007240    program     static C:\Users\TienDat\Desktop\ActorHome\PIC18_Zigbee_v2\PIC18_Zigbee_R&D_by_Lab411\Microchip\ZigBeeStack\zZDO.c
                 __pa_197   0x00724a    program     static C:\Users\TienDat\Desktop\ActorHome\PIC18_Zigbee_v2\PIC18_Zigbee_R&D_by_Lab411\Microchip\ZigBeeStack\zZDO.c
                 __pa_197   0x0042fc    program     static C:\Users\TienDat\Desktop\ActorHome\PIC18_Zigbee_v2\PIC18_Zigbee_R&D_by_Lab411\Microchip\ZigBeeStack\zNWK.c
                 __pa_198   0x007252    program     static C:\Users\TienDat\Desktop\ActorHome\PIC18_Zigbee_v2\PIC18_Zigbee_R&D_by_Lab411\Microchip\ZigBeeStack\zZDO.c
                 __pa_198   0x00430e    program     static C:\Users\TienDat\Desktop\ActorHome\PIC18_Zigbee_v2\PIC18_Zigbee_R&D_by_Lab411\Microchip\ZigBeeStack\zNWK.c
                 __pa_199   0x00725a    program     static C:\Users\TienDat\Desktop\ActorHome\PIC18_Zigbee_v2\PIC18_Zigbee_R&D_by_Lab411\Microchip\ZigBeeStack\zZDO.c
                 __pa_199   0x004318    program     static C:\Users\TienDat\Desktop\ActorHome\PIC18_Zigbee_v2\PIC18_Zigbee_R&D_by_Lab411\Microchip\ZigBeeStack\zNWK.c
                   __pa_2   0x0039ac    program     static C:\Users\TienDat\Desktop\ActorHome\PIC18_Zigbee_v2\PIC18_Zigbee_R&D_by_Lab411\Microchip\ZigBeeStack\zNWK.c
                   __pa_2   0x00c150    program     static C:\Users\TienDat\Desktop\ActorHome\PIC18_Zigbee_v2\PIC18_Zigbee_R&D_by_Lab411\Microchip\ZigBeeStack\zPHY_MRF24J40.c
                   __pa_2   0x006888    program     static C:\Users\TienDat\Desktop\ActorHome\PIC18_Zigbee_v2\PIC18_Zigbee_R&D_by_Lab411\Microchip\ZigBeeStack\zZDO.c
                   __pa_2   0x00da98    program     static C:\Users\TienDat\Desktop\ActorHome\PIC18_Zigbee_v2\PIC18_Zigbee_R&D_by_Lab411\Microchip\Common\sralloc.c
                   __pa_2   0x00df86    program     static C:\Users\TienDat\Desktop\ActorHome\PIC18_Zigbee_v2\PIC18_Zigbee_R&D_by_Lab411\Microchip\Common\MSPI.c
                   __pa_2   0x00dd12    program     static C:\Users\TienDat\Desktop\ActorHome\PIC18_Zigbee_v2\PIC18_Zigbee_R&D_by_Lab411\Microchip\Common\Console.c
                   __pa_2   0x009038    program     static C:\Users\TienDat\Desktop\ActorHome\PIC18_Zigbee_v2\PIC18_Zigbee_R&D_by_Lab411\Microchip\ZigBeeStack\zAPS.c
                   __pa_2   0x00c6dc    program     static C:\Users\TienDat\Desktop\ActorHome\PIC18_Zigbee_v2\PIC18_Zigbee_R&D_by_Lab411\DemoPIC18Router\Router.c
                   __pa_2   0x00aff0    program     static C:\Users\TienDat\Desktop\ActorHome\PIC18_Zigbee_v2\PIC18_Zigbee_R&D_by_Lab411\Microchip\ZigBeeStack\zMAC_MRF24J40.c
                   __pa_2   0x00d534    program     static C:\Users\TienDat\Desktop\ActorHome\PIC18_Zigbee_v2\PIC18_Zigbee_R&D_by_Lab411\Microchip\Common\SHT1x.c
                  __pa_20   0x009130    program     static C:\Users\TienDat\Desktop\ActorHome\PIC18_Zigbee_v2\PIC18_Zigbee_R&D_by_Lab411\Microchip\ZigBeeStack\zAPS.c
                  __pa_20   0x006966    program     static C:\Users\TienDat\Desktop\ActorHome\PIC18_Zigbee_v2\PIC18_Zigbee_R&D_by_Lab411\Microchip\ZigBeeStack\zZDO.c
                  __pa_20   0x00b124    program     static C:\Users\TienDat\Desktop\ActorHome\PIC18_Zigbee_v2\PIC18_Zigbee_R&D_by_Lab411\Microchip\ZigBeeStack\zMAC_MRF24J40.c
                  __pa_20   0x003ad6    program     static C:\Users\TienDat\Desktop\ActorHome\PIC18_Zigbee_v2\PIC18_Zigbee_R&D_by_Lab411\Microchip\ZigBeeStack\zNWK.c
                 __pa_200   0x007260    program     static C:\Users\TienDat\Desktop\ActorHome\PIC18_Zigbee_v2\PIC18_Zigbee_R&D_by_Lab411\Microchip\ZigBeeStack\zZDO.c
                 __pa_200   0x004324    program     static C:\Users\TienDat\Desktop\ActorHome\PIC18_Zigbee_v2\PIC18_Zigbee_R&D_by_Lab411\Microchip\ZigBeeStack\zNWK.c
                 __pa_201   0x00432e    program     static C:\Users\TienDat\Desktop\ActorHome\PIC18_Zigbee_v2\PIC18_Zigbee_R&D_by_Lab411\Microchip\ZigBeeStack\zNWK.c
                 __pa_201   0x007266    program     static C:\Users\TienDat\Desktop\ActorHome\PIC18_Zigbee_v2\PIC18_Zigbee_R&D_by_Lab411\Microchip\ZigBeeStack\zZDO.c
                 __pa_202   0x004338    program     static C:\Users\TienDat\Desktop\ActorHome\PIC18_Zigbee_v2\PIC18_Zigbee_R&D_by_Lab411\Microchip\ZigBeeStack\zNWK.c
                 __pa_202   0x00726c    program     static C:\Users\TienDat\Desktop\ActorHome\PIC18_Zigbee_v2\PIC18_Zigbee_R&D_by_Lab411\Microchip\ZigBeeStack\zZDO.c
                 __pa_203   0x004344    program     static C:\Users\TienDat\Desktop\ActorHome\PIC18_Zigbee_v2\PIC18_Zigbee_R&D_by_Lab411\Microchip\ZigBeeStack\zNWK.c
                 __pa_203   0x007276    program     static C:\Users\TienDat\Desktop\ActorHome\PIC18_Zigbee_v2\PIC18_Zigbee_R&D_by_Lab411\Microchip\ZigBeeStack\zZDO.c
                 __pa_204   0x00434c    program     static C:\Users\TienDat\Desktop\ActorHome\PIC18_Zigbee_v2\PIC18_Zigbee_R&D_by_Lab411\Microchip\ZigBeeStack\zNWK.c
                 __pa_204   0x00727c    program     static C:\Users\TienDat\Desktop\ActorHome\PIC18_Zigbee_v2\PIC18_Zigbee_R&D_by_Lab411\Microchip\ZigBeeStack\zZDO.c
                 __pa_205   0x004356    program     static C:\Users\TienDat\Desktop\ActorHome\PIC18_Zigbee_v2\PIC18_Zigbee_R&D_by_Lab411\Microchip\ZigBeeStack\zNWK.c
                 __pa_205   0x007282    program     static C:\Users\TienDat\Desktop\ActorHome\PIC18_Zigbee_v2\PIC18_Zigbee_R&D_by_Lab411\Microchip\ZigBeeStack\zZDO.c
                 __pa_206   0x00435e    program     static C:\Users\TienDat\Desktop\ActorHome\PIC18_Zigbee_v2\PIC18_Zigbee_R&D_by_Lab411\Microchip\ZigBeeStack\zNWK.c
                 __pa_206   0x007290    program     static C:\Users\TienDat\Desktop\ActorHome\PIC18_Zigbee_v2\PIC18_Zigbee_R&D_by_Lab411\Microchip\ZigBeeStack\zZDO.c
                 __pa_207   0x004364    program     static C:\Users\TienDat\Desktop\ActorHome\PIC18_Zigbee_v2\PIC18_Zigbee_R&D_by_Lab411\Microchip\ZigBeeStack\zNWK.c
                 __pa_207   0x00729e    program     static C:\Users\TienDat\Desktop\ActorHome\PIC18_Zigbee_v2\PIC18_Zigbee_R&D_by_Lab411\Microchip\ZigBeeStack\zZDO.c
                 __pa_208   0x00436c    program     static C:\Users\TienDat\Desktop\ActorHome\PIC18_Zigbee_v2\PIC18_Zigbee_R&D_by_Lab411\Microchip\ZigBeeStack\zNWK.c
                 __pa_208   0x0072aa    program     static C:\Users\TienDat\Desktop\ActorHome\PIC18_Zigbee_v2\PIC18_Zigbee_R&D_by_Lab411\Microchip\ZigBeeStack\zZDO.c
                 __pa_209   0x0072b6    program     static C:\Users\TienDat\Desktop\ActorHome\PIC18_Zigbee_v2\PIC18_Zigbee_R&D_by_Lab411\Microchip\ZigBeeStack\zZDO.c
                 __pa_209   0x00437a    program     static C:\Users\TienDat\Desktop\ActorHome\PIC18_Zigbee_v2\PIC18_Zigbee_R&D_by_Lab411\Microchip\ZigBeeStack\zNWK.c
                  __pa_21   0x006972    program     static C:\Users\TienDat\Desktop\ActorHome\PIC18_Zigbee_v2\PIC18_Zigbee_R&D_by_Lab411\Microchip\ZigBeeStack\zZDO.c
                  __pa_21   0x009136    program     static C:\Users\TienDat\Desktop\ActorHome\PIC18_Zigbee_v2\PIC18_Zigbee_R&D_by_Lab411\Microchip\ZigBeeStack\zAPS.c
                  __pa_21   0x00b132    program     static C:\Users\TienDat\Desktop\ActorHome\PIC18_Zigbee_v2\PIC18_Zigbee_R&D_by_Lab411\Microchip\ZigBeeStack\zMAC_MRF24J40.c
                  __pa_21   0x003ae4    program     static C:\Users\TienDat\Desktop\ActorHome\PIC18_Zigbee_v2\PIC18_Zigbee_R&D_by_Lab411\Microchip\ZigBeeStack\zNWK.c
                 __pa_210   0x0072c0    program     static C:\Users\TienDat\Desktop\ActorHome\PIC18_Zigbee_v2\PIC18_Zigbee_R&D_by_Lab411\Microchip\ZigBeeStack\zZDO.c
                 __pa_210   0x004388    program     static C:\Users\TienDat\Desktop\ActorHome\PIC18_Zigbee_v2\PIC18_Zigbee_R&D_by_Lab411\Microchip\ZigBeeStack\zNWK.c
                 __pa_211   0x0072ca    program     static C:\Users\TienDat\Desktop\ActorHome\PIC18_Zigbee_v2\PIC18_Zigbee_R&D_by_Lab411\Microchip\ZigBeeStack\zZDO.c
                 __pa_211   0x004392    program     static C:\Users\TienDat\Desktop\ActorHome\PIC18_Zigbee_v2\PIC18_Zigbee_R&D_by_Lab411\Microchip\ZigBeeStack\zNWK.c
                 __pa_212   0x0072d6    program     static C:\Users\TienDat\Desktop\ActorHome\PIC18_Zigbee_v2\PIC18_Zigbee_R&D_by_Lab411\Microchip\ZigBeeStack\zZDO.c
                 __pa_212   0x0043a2    program     static C:\Users\TienDat\Desktop\ActorHome\PIC18_Zigbee_v2\PIC18_Zigbee_R&D_by_Lab411\Microchip\ZigBeeStack\zNWK.c
                 __pa_213   0x0072e4    program     static C:\Users\TienDat\Desktop\ActorHome\PIC18_Zigbee_v2\PIC18_Zigbee_R&D_by_Lab411\Microchip\ZigBeeStack\zZDO.c
                 __pa_213   0x0043b2    program     static C:\Users\TienDat\Desktop\ActorHome\PIC18_Zigbee_v2\PIC18_Zigbee_R&D_by_Lab411\Microchip\ZigBeeStack\zNWK.c
                 __pa_214   0x0072ec    program     static C:\Users\TienDat\Desktop\ActorHome\PIC18_Zigbee_v2\PIC18_Zigbee_R&D_by_Lab411\Microchip\ZigBeeStack\zZDO.c
                 __pa_214   0x0043c0    program     static C:\Users\TienDat\Desktop\ActorHome\PIC18_Zigbee_v2\PIC18_Zigbee_R&D_by_Lab411\Microchip\ZigBeeStack\zNWK.c
                 __pa_215   0x0072f6    program     static C:\Users\TienDat\Desktop\ActorHome\PIC18_Zigbee_v2\PIC18_Zigbee_R&D_by_Lab411\Microchip\ZigBeeStack\zZDO.c
                 __pa_215   0x0043ce    program     static C:\Users\TienDat\Desktop\ActorHome\PIC18_Zigbee_v2\PIC18_Zigbee_R&D_by_Lab411\Microchip\ZigBeeStack\zNWK.c
                 __pa_216   0x0043dc    program     static C:\Users\TienDat\Desktop\ActorHome\PIC18_Zigbee_v2\PIC18_Zigbee_R&D_by_Lab411\Microchip\ZigBeeStack\zNWK.c
                 __pa_216   0x0072fe    program     static C:\Users\TienDat\Desktop\ActorHome\PIC18_Zigbee_v2\PIC18_Zigbee_R&D_by_Lab411\Microchip\ZigBeeStack\zZDO.c
                 __pa_217   0x007308    program     static C:\Users\TienDat\Desktop\ActorHome\PIC18_Zigbee_v2\PIC18_Zigbee_R&D_by_Lab411\Microchip\ZigBeeStack\zZDO.c
                 __pa_217   0x0043e4    program     static C:\Users\TienDat\Desktop\ActorHome\PIC18_Zigbee_v2\PIC18_Zigbee_R&D_by_Lab411\Microchip\ZigBeeStack\zNWK.c
                 __pa_218   0x007310    program     static C:\Users\TienDat\Desktop\ActorHome\PIC18_Zigbee_v2\PIC18_Zigbee_R&D_by_Lab411\Microchip\ZigBeeStack\zZDO.c
                 __pa_218   0x0043ea    program     static C:\Users\TienDat\Desktop\ActorHome\PIC18_Zigbee_v2\PIC18_Zigbee_R&D_by_Lab411\Microchip\ZigBeeStack\zNWK.c
                 __pa_219   0x00731a    program     static C:\Users\TienDat\Desktop\ActorHome\PIC18_Zigbee_v2\PIC18_Zigbee_R&D_by_Lab411\Microchip\ZigBeeStack\zZDO.c
                 __pa_219   0x0043f4    program     static C:\Users\TienDat\Desktop\ActorHome\PIC18_Zigbee_v2\PIC18_Zigbee_R&D_by_Lab411\Microchip\ZigBeeStack\zNWK.c
                  __pa_22   0x003af4    program     static C:\Users\TienDat\Desktop\ActorHome\PIC18_Zigbee_v2\PIC18_Zigbee_R&D_by_Lab411\Microchip\ZigBeeStack\zNWK.c
                  __pa_22   0x00b154    program     static C:\Users\TienDat\Desktop\ActorHome\PIC18_Zigbee_v2\PIC18_Zigbee_R&D_by_Lab411\Microchip\ZigBeeStack\zMAC_MRF24J40.c
                  __pa_22   0x009144    program     static C:\Users\TienDat\Desktop\ActorHome\PIC18_Zigbee_v2\PIC18_Zigbee_R&D_by_Lab411\Microchip\ZigBeeStack\zAPS.c
                  __pa_22   0x00697c    program     static C:\Users\TienDat\Desktop\ActorHome\PIC18_Zigbee_v2\PIC18_Zigbee_R&D_by_Lab411\Microchip\ZigBeeStack\zZDO.c
                 __pa_220   0x007324    program     static C:\Users\TienDat\Desktop\ActorHome\PIC18_Zigbee_v2\PIC18_Zigbee_R&D_by_Lab411\Microchip\ZigBeeStack\zZDO.c
                 __pa_220   0x004400    program     static C:\Users\TienDat\Desktop\ActorHome\PIC18_Zigbee_v2\PIC18_Zigbee_R&D_by_Lab411\Microchip\ZigBeeStack\zNWK.c
                 __pa_221   0x00732a    program     static C:\Users\TienDat\Desktop\ActorHome\PIC18_Zigbee_v2\PIC18_Zigbee_R&D_by_Lab411\Microchip\ZigBeeStack\zZDO.c
                 __pa_221   0x00440e    program     static C:\Users\TienDat\Desktop\ActorHome\PIC18_Zigbee_v2\PIC18_Zigbee_R&D_by_Lab411\Microchip\ZigBeeStack\zNWK.c
                 __pa_222   0x00441c    program     static C:\Users\TienDat\Desktop\ActorHome\PIC18_Zigbee_v2\PIC18_Zigbee_R&D_by_Lab411\Microchip\ZigBeeStack\zNWK.c
                 __pa_223   0x004428    program     static C:\Users\TienDat\Desktop\ActorHome\PIC18_Zigbee_v2\PIC18_Zigbee_R&D_by_Lab411\Microchip\ZigBeeStack\zNWK.c
                 __pa_224   0x004436    program     static C:\Users\TienDat\Desktop\ActorHome\PIC18_Zigbee_v2\PIC18_Zigbee_R&D_by_Lab411\Microchip\ZigBeeStack\zNWK.c
                 __pa_225   0x004444    program     static C:\Users\TienDat\Desktop\ActorHome\PIC18_Zigbee_v2\PIC18_Zigbee_R&D_by_Lab411\Microchip\ZigBeeStack\zNWK.c
                 __pa_226   0x004450    program     static C:\Users\TienDat\Desktop\ActorHome\PIC18_Zigbee_v2\PIC18_Zigbee_R&D_by_Lab411\Microchip\ZigBeeStack\zNWK.c
                 __pa_227   0x00445e    program     static C:\Users\TienDat\Desktop\ActorHome\PIC18_Zigbee_v2\PIC18_Zigbee_R&D_by_Lab411\Microchip\ZigBeeStack\zNWK.c
                 __pa_228   0x00446c    program     static C:\Users\TienDat\Desktop\ActorHome\PIC18_Zigbee_v2\PIC18_Zigbee_R&D_by_Lab411\Microchip\ZigBeeStack\zNWK.c
                 __pa_229   0x004472    program     static C:\Users\TienDat\Desktop\ActorHome\PIC18_Zigbee_v2\PIC18_Zigbee_R&D_by_Lab411\Microchip\ZigBeeStack\zNWK.c
                  __pa_23   0x003b02    program     static C:\Users\TienDat\Desktop\ActorHome\PIC18_Zigbee_v2\PIC18_Zigbee_R&D_by_Lab411\Microchip\ZigBeeStack\zNWK.c
                  __pa_23   0x00b168    program     static C:\Users\TienDat\Desktop\ActorHome\PIC18_Zigbee_v2\PIC18_Zigbee_R&D_by_Lab411\Microchip\ZigBeeStack\zMAC_MRF24J40.c
                  __pa_23   0x00914c    program     static C:\Users\TienDat\Desktop\ActorHome\PIC18_Zigbee_v2\PIC18_Zigbee_R&D_by_Lab411\Microchip\ZigBeeStack\zAPS.c
                  __pa_23   0x006982    program     static C:\Users\TienDat\Desktop\ActorHome\PIC18_Zigbee_v2\PIC18_Zigbee_R&D_by_Lab411\Microchip\ZigBeeStack\zZDO.c
                 __pa_230   0x004480    program     static C:\Users\TienDat\Desktop\ActorHome\PIC18_Zigbee_v2\PIC18_Zigbee_R&D_by_Lab411\Microchip\ZigBeeStack\zNWK.c
                 __pa_231   0x00448e    program     static C:\Users\TienDat\Desktop\ActorHome\PIC18_Zigbee_v2\PIC18_Zigbee_R&D_by_Lab411\Microchip\ZigBeeStack\zNWK.c
                 __pa_232   0x004496    program     static C:\Users\TienDat\Desktop\ActorHome\PIC18_Zigbee_v2\PIC18_Zigbee_R&D_by_Lab411\Microchip\ZigBeeStack\zNWK.c
                 __pa_233   0x00449e    program     static C:\Users\TienDat\Desktop\ActorHome\PIC18_Zigbee_v2\PIC18_Zigbee_R&D_by_Lab411\Microchip\ZigBeeStack\zNWK.c
                 __pa_234   0x0044a8    program     static C:\Users\TienDat\Desktop\ActorHome\PIC18_Zigbee_v2\PIC18_Zigbee_R&D_by_Lab411\Microchip\ZigBeeStack\zNWK.c
                 __pa_235   0x0044b2    program     static C:\Users\TienDat\Desktop\ActorHome\PIC18_Zigbee_v2\PIC18_Zigbee_R&D_by_Lab411\Microchip\ZigBeeStack\zNWK.c
                 __pa_236   0x0044bc    program     static C:\Users\TienDat\Desktop\ActorHome\PIC18_Zigbee_v2\PIC18_Zigbee_R&D_by_Lab411\Microchip\ZigBeeStack\zNWK.c
                 __pa_237   0x0044c6    program     static C:\Users\TienDat\Desktop\ActorHome\PIC18_Zigbee_v2\PIC18_Zigbee_R&D_by_Lab411\Microchip\ZigBeeStack\zNWK.c
                 __pa_238   0x0044ce    program     static C:\Users\TienDat\Desktop\ActorHome\PIC18_Zigbee_v2\PIC18_Zigbee_R&D_by_Lab411\Microchip\ZigBeeStack\zNWK.c
                 __pa_239   0x0044d6    program     static C:\Users\TienDat\Desktop\ActorHome\PIC18_Zigbee_v2\PIC18_Zigbee_R&D_by_Lab411\Microchip\ZigBeeStack\zNWK.c
                  __pa_24   0x0069c4    program     static C:\Users\TienDat\Desktop\ActorHome\PIC18_Zigbee_v2\PIC18_Zigbee_R&D_by_Lab411\Microchip\ZigBeeStack\zZDO.c
                  __pa_24   0x003b0c    program     static C:\Users\TienDat\Desktop\ActorHome\PIC18_Zigbee_v2\PIC18_Zigbee_R&D_by_Lab411\Microchip\ZigBeeStack\zNWK.c
                  __pa_24   0x00915a    program     static C:\Users\TienDat\Desktop\ActorHome\PIC18_Zigbee_v2\PIC18_Zigbee_R&D_by_Lab411\Microchip\ZigBeeStack\zAPS.c
                  __pa_24   0x00b186    program     static C:\Users\TienDat\Desktop\ActorHome\PIC18_Zigbee_v2\PIC18_Zigbee_R&D_by_Lab411\Microchip\ZigBeeStack\zMAC_MRF24J40.c
                 __pa_240   0x0044e0    program     static C:\Users\TienDat\Desktop\ActorHome\PIC18_Zigbee_v2\PIC18_Zigbee_R&D_by_Lab411\Microchip\ZigBeeStack\zNWK.c
                 __pa_241   0x0044ea    program     static C:\Users\TienDat\Desktop\ActorHome\PIC18_Zigbee_v2\PIC18_Zigbee_R&D_by_Lab411\Microchip\ZigBeeStack\zNWK.c
                 __pa_242   0x0044f4    program     static C:\Users\TienDat\Desktop\ActorHome\PIC18_Zigbee_v2\PIC18_Zigbee_R&D_by_Lab411\Microchip\ZigBeeStack\zNWK.c
                 __pa_243   0x0044fa    program     static C:\Users\TienDat\Desktop\ActorHome\PIC18_Zigbee_v2\PIC18_Zigbee_R&D_by_Lab411\Microchip\ZigBeeStack\zNWK.c
                 __pa_244   0x004500    program     static C:\Users\TienDat\Desktop\ActorHome\PIC18_Zigbee_v2\PIC18_Zigbee_R&D_by_Lab411\Microchip\ZigBeeStack\zNWK.c
                 __pa_245   0x004506    program     static C:\Users\TienDat\Desktop\ActorHome\PIC18_Zigbee_v2\PIC18_Zigbee_R&D_by_Lab411\Microchip\ZigBeeStack\zNWK.c
                 __pa_246   0x00450e    program     static C:\Users\TienDat\Desktop\ActorHome\PIC18_Zigbee_v2\PIC18_Zigbee_R&D_by_Lab411\Microchip\ZigBeeStack\zNWK.c
                 __pa_247   0x004516    program     static C:\Users\TienDat\Desktop\ActorHome\PIC18_Zigbee_v2\PIC18_Zigbee_R&D_by_Lab411\Microchip\ZigBeeStack\zNWK.c
                 __pa_248   0x00451e    program     static C:\Users\TienDat\Desktop\ActorHome\PIC18_Zigbee_v2\PIC18_Zigbee_R&D_by_Lab411\Microchip\ZigBeeStack\zNWK.c
                 __pa_249   0x004528    program     static C:\Users\TienDat\Desktop\ActorHome\PIC18_Zigbee_v2\PIC18_Zigbee_R&D_by_Lab411\Microchip\ZigBeeStack\zNWK.c
                  __pa_25   0x00b198    program     static C:\Users\TienDat\Desktop\ActorHome\PIC18_Zigbee_v2\PIC18_Zigbee_R&D_by_Lab411\Microchip\ZigBeeStack\zMAC_MRF24J40.c
                  __pa_25   0x009162    program     static C:\Users\TienDat\Desktop\ActorHome\PIC18_Zigbee_v2\PIC18_Zigbee_R&D_by_Lab411\Microchip\ZigBeeStack\zAPS.c
                  __pa_25   0x003b18    program     static C:\Users\TienDat\Desktop\ActorHome\PIC18_Zigbee_v2\PIC18_Zigbee_R&D_by_Lab411\Microchip\ZigBeeStack\zNWK.c
                  __pa_25   0x0069cc    program     static C:\Users\TienDat\Desktop\ActorHome\PIC18_Zigbee_v2\PIC18_Zigbee_R&D_by_Lab411\Microchip\ZigBeeStack\zZDO.c
                 __pa_250   0x004544    program     static C:\Users\TienDat\Desktop\ActorHome\PIC18_Zigbee_v2\PIC18_Zigbee_R&D_by_Lab411\Microchip\ZigBeeStack\zNWK.c
                 __pa_251   0x00454a    program     static C:\Users\TienDat\Desktop\ActorHome\PIC18_Zigbee_v2\PIC18_Zigbee_R&D_by_Lab411\Microchip\ZigBeeStack\zNWK.c
                 __pa_252   0x004558    program     static C:\Users\TienDat\Desktop\ActorHome\PIC18_Zigbee_v2\PIC18_Zigbee_R&D_by_Lab411\Microchip\ZigBeeStack\zNWK.c
                 __pa_253   0x004564    program     static C:\Users\TienDat\Desktop\ActorHome\PIC18_Zigbee_v2\PIC18_Zigbee_R&D_by_Lab411\Microchip\ZigBeeStack\zNWK.c
                 __pa_254   0x004576    program     static C:\Users\TienDat\Desktop\ActorHome\PIC18_Zigbee_v2\PIC18_Zigbee_R&D_by_Lab411\Microchip\ZigBeeStack\zNWK.c
                 __pa_255   0x00457c    program     static C:\Users\TienDat\Desktop\ActorHome\PIC18_Zigbee_v2\PIC18_Zigbee_R&D_by_Lab411\Microchip\ZigBeeStack\zNWK.c
                 __pa_256   0x004586    program     static C:\Users\TienDat\Desktop\ActorHome\PIC18_Zigbee_v2\PIC18_Zigbee_R&D_by_Lab411\Microchip\ZigBeeStack\zNWK.c
                 __pa_257   0x00458e    program     static C:\Users\TienDat\Desktop\ActorHome\PIC18_Zigbee_v2\PIC18_Zigbee_R&D_by_Lab411\Microchip\ZigBeeStack\zNWK.c
                 __pa_258   0x0045a0    program     static C:\Users\TienDat\Desktop\ActorHome\PIC18_Zigbee_v2\PIC18_Zigbee_R&D_by_Lab411\Microchip\ZigBeeStack\zNWK.c
                 __pa_259   0x0045a8    program     static C:\Users\TienDat\Desktop\ActorHome\PIC18_Zigbee_v2\PIC18_Zigbee_R&D_by_Lab411\Microchip\ZigBeeStack\zNWK.c
                  __pa_26   0x0069f2    program     static C:\Users\TienDat\Desktop\ActorHome\PIC18_Zigbee_v2\PIC18_Zigbee_R&D_by_Lab411\Microchip\ZigBeeStack\zZDO.c
                  __pa_26   0x003b28    program     static C:\Users\TienDat\Desktop\ActorHome\PIC18_Zigbee_v2\PIC18_Zigbee_R&D_by_Lab411\Microchip\ZigBeeStack\zNWK.c
                  __pa_26   0x00916a    program     static C:\Users\TienDat\Desktop\ActorHome\PIC18_Zigbee_v2\PIC18_Zigbee_R&D_by_Lab411\Microchip\ZigBeeStack\zAPS.c
                  __pa_26   0x00b1aa    program     static C:\Users\TienDat\Desktop\ActorHome\PIC18_Zigbee_v2\PIC18_Zigbee_R&D_by_Lab411\Microchip\ZigBeeStack\zMAC_MRF24J40.c
                 __pa_260   0x0045b2    program     static C:\Users\TienDat\Desktop\ActorHome\PIC18_Zigbee_v2\PIC18_Zigbee_R&D_by_Lab411\Microchip\ZigBeeStack\zNWK.c
                 __pa_261   0x0045b8    program     static C:\Users\TienDat\Desktop\ActorHome\PIC18_Zigbee_v2\PIC18_Zigbee_R&D_by_Lab411\Microchip\ZigBeeStack\zNWK.c
                 __pa_262   0x0045c2    program     static C:\Users\TienDat\Desktop\ActorHome\PIC18_Zigbee_v2\PIC18_Zigbee_R&D_by_Lab411\Microchip\ZigBeeStack\zNWK.c
                 __pa_263   0x0045ca    program     static C:\Users\TienDat\Desktop\ActorHome\PIC18_Zigbee_v2\PIC18_Zigbee_R&D_by_Lab411\Microchip\ZigBeeStack\zNWK.c
                 __pa_264   0x0045d2    program     static C:\Users\TienDat\Desktop\ActorHome\PIC18_Zigbee_v2\PIC18_Zigbee_R&D_by_Lab411\Microchip\ZigBeeStack\zNWK.c
                 __pa_265   0x0045da    program     static C:\Users\TienDat\Desktop\ActorHome\PIC18_Zigbee_v2\PIC18_Zigbee_R&D_by_Lab411\Microchip\ZigBeeStack\zNWK.c
                 __pa_266   0x0045e0    program     static C:\Users\TienDat\Desktop\ActorHome\PIC18_Zigbee_v2\PIC18_Zigbee_R&D_by_Lab411\Microchip\ZigBeeStack\zNWK.c
                 __pa_267   0x0045ea    program     static C:\Users\TienDat\Desktop\ActorHome\PIC18_Zigbee_v2\PIC18_Zigbee_R&D_by_Lab411\Microchip\ZigBeeStack\zNWK.c
                 __pa_268   0x0045f4    program     static C:\Users\TienDat\Desktop\ActorHome\PIC18_Zigbee_v2\PIC18_Zigbee_R&D_by_Lab411\Microchip\ZigBeeStack\zNWK.c
                 __pa_269   0x004602    program     static C:\Users\TienDat\Desktop\ActorHome\PIC18_Zigbee_v2\PIC18_Zigbee_R&D_by_Lab411\Microchip\ZigBeeStack\zNWK.c
                  __pa_27   0x003b2e    program     static C:\Users\TienDat\Desktop\ActorHome\PIC18_Zigbee_v2\PIC18_Zigbee_R&D_by_Lab411\Microchip\ZigBeeStack\zNWK.c
                  __pa_27   0x006a02    program     static C:\Users\TienDat\Desktop\ActorHome\PIC18_Zigbee_v2\PIC18_Zigbee_R&D_by_Lab411\Microchip\ZigBeeStack\zZDO.c
                  __pa_27   0x009172    program     static C:\Users\TienDat\Desktop\ActorHome\PIC18_Zigbee_v2\PIC18_Zigbee_R&D_by_Lab411\Microchip\ZigBeeStack\zAPS.c
                  __pa_27   0x00b1bc    program     static C:\Users\TienDat\Desktop\ActorHome\PIC18_Zigbee_v2\PIC18_Zigbee_R&D_by_Lab411\Microchip\ZigBeeStack\zMAC_MRF24J40.c
                 __pa_270   0x004612    program     static C:\Users\TienDat\Desktop\ActorHome\PIC18_Zigbee_v2\PIC18_Zigbee_R&D_by_Lab411\Microchip\ZigBeeStack\zNWK.c
                 __pa_271   0x004622    program     static C:\Users\TienDat\Desktop\ActorHome\PIC18_Zigbee_v2\PIC18_Zigbee_R&D_by_Lab411\Microchip\ZigBeeStack\zNWK.c
                 __pa_272   0x00462a    program     static C:\Users\TienDat\Desktop\ActorHome\PIC18_Zigbee_v2\PIC18_Zigbee_R&D_by_Lab411\Microchip\ZigBeeStack\zNWK.c
                 __pa_273   0x004630    program     static C:\Users\TienDat\Desktop\ActorHome\PIC18_Zigbee_v2\PIC18_Zigbee_R&D_by_Lab411\Microchip\ZigBeeStack\zNWK.c
                 __pa_274   0x00463a    program     static C:\Users\TienDat\Desktop\ActorHome\PIC18_Zigbee_v2\PIC18_Zigbee_R&D_by_Lab411\Microchip\ZigBeeStack\zNWK.c
                 __pa_275   0x004644    program     static C:\Users\TienDat\Desktop\ActorHome\PIC18_Zigbee_v2\PIC18_Zigbee_R&D_by_Lab411\Microchip\ZigBeeStack\zNWK.c
                 __pa_276   0x00464e    program     static C:\Users\TienDat\Desktop\ActorHome\PIC18_Zigbee_v2\PIC18_Zigbee_R&D_by_Lab411\Microchip\ZigBeeStack\zNWK.c
                 __pa_277   0x004658    program     static C:\Users\TienDat\Desktop\ActorHome\PIC18_Zigbee_v2\PIC18_Zigbee_R&D_by_Lab411\Microchip\ZigBeeStack\zNWK.c
                 __pa_278   0x004664    program     static C:\Users\TienDat\Desktop\ActorHome\PIC18_Zigbee_v2\PIC18_Zigbee_R&D_by_Lab411\Microchip\ZigBeeStack\zNWK.c
                 __pa_279   0x00466a    program     static C:\Users\TienDat\Desktop\ActorHome\PIC18_Zigbee_v2\PIC18_Zigbee_R&D_by_Lab411\Microchip\ZigBeeStack\zNWK.c
                  __pa_28   0x003b36    program     static C:\Users\TienDat\Desktop\ActorHome\PIC18_Zigbee_v2\PIC18_Zigbee_R&D_by_Lab411\Microchip\ZigBeeStack\zNWK.c
                  __pa_28   0x006a1a    program     static C:\Users\TienDat\Desktop\ActorHome\PIC18_Zigbee_v2\PIC18_Zigbee_R&D_by_Lab411\Microchip\ZigBeeStack\zZDO.c
                  __pa_28   0x00b1c4    program     static C:\Users\TienDat\Desktop\ActorHome\PIC18_Zigbee_v2\PIC18_Zigbee_R&D_by_Lab411\Microchip\ZigBeeStack\zMAC_MRF24J40.c
                  __pa_28   0x009178    program     static C:\Users\TienDat\Desktop\ActorHome\PIC18_Zigbee_v2\PIC18_Zigbee_R&D_by_Lab411\Microchip\ZigBeeStack\zAPS.c
                 __pa_280   0x004670    program     static C:\Users\TienDat\Desktop\ActorHome\PIC18_Zigbee_v2\PIC18_Zigbee_R&D_by_Lab411\Microchip\ZigBeeStack\zNWK.c
                 __pa_281   0x004678    program     static C:\Users\TienDat\Desktop\ActorHome\PIC18_Zigbee_v2\PIC18_Zigbee_R&D_by_Lab411\Microchip\ZigBeeStack\zNWK.c
                 __pa_282   0x004680    program     static C:\Users\TienDat\Desktop\ActorHome\PIC18_Zigbee_v2\PIC18_Zigbee_R&D_by_Lab411\Microchip\ZigBeeStack\zNWK.c
                 __pa_283   0x004688    program     static C:\Users\TienDat\Desktop\ActorHome\PIC18_Zigbee_v2\PIC18_Zigbee_R&D_by_Lab411\Microchip\ZigBeeStack\zNWK.c
                 __pa_284   0x004690    program     static C:\Users\TienDat\Desktop\ActorHome\PIC18_Zigbee_v2\PIC18_Zigbee_R&D_by_Lab411\Microchip\ZigBeeStack\zNWK.c
                 __pa_285   0x00469a    program     static C:\Users\TienDat\Desktop\ActorHome\PIC18_Zigbee_v2\PIC18_Zigbee_R&D_by_Lab411\Microchip\ZigBeeStack\zNWK.c
                 __pa_286   0x0046a2    program     static C:\Users\TienDat\Desktop\ActorHome\PIC18_Zigbee_v2\PIC18_Zigbee_R&D_by_Lab411\Microchip\ZigBeeStack\zNWK.c
                 __pa_287   0x0046b0    program     static C:\Users\TienDat\Desktop\ActorHome\PIC18_Zigbee_v2\PIC18_Zigbee_R&D_by_Lab411\Microchip\ZigBeeStack\zNWK.c
                 __pa_288   0x0046b6    program     static C:\Users\TienDat\Desktop\ActorHome\PIC18_Zigbee_v2\PIC18_Zigbee_R&D_by_Lab411\Microchip\ZigBeeStack\zNWK.c
                 __pa_289   0x0046bc    program     static C:\Users\TienDat\Desktop\ActorHome\PIC18_Zigbee_v2\PIC18_Zigbee_R&D_by_Lab411\Microchip\ZigBeeStack\zNWK.c
                  __pa_29   0x009186    program     static C:\Users\TienDat\Desktop\ActorHome\PIC18_Zigbee_v2\PIC18_Zigbee_R&D_by_Lab411\Microchip\ZigBeeStack\zAPS.c
                  __pa_29   0x00b1d2    program     static C:\Users\TienDat\Desktop\ActorHome\PIC18_Zigbee_v2\PIC18_Zigbee_R&D_by_Lab411\Microchip\ZigBeeStack\zMAC_MRF24J40.c
                  __pa_29   0x006a3c    program     static C:\Users\TienDat\Desktop\ActorHome\PIC18_Zigbee_v2\PIC18_Zigbee_R&D_by_Lab411\Microchip\ZigBeeStack\zZDO.c
                  __pa_29   0x003b44    program     static C:\Users\TienDat\Desktop\ActorHome\PIC18_Zigbee_v2\PIC18_Zigbee_R&D_by_Lab411\Microchip\ZigBeeStack\zNWK.c
                 __pa_290   0x0046c4    program     static C:\Users\TienDat\Desktop\ActorHome\PIC18_Zigbee_v2\PIC18_Zigbee_R&D_by_Lab411\Microchip\ZigBeeStack\zNWK.c
                 __pa_291   0x0046ce    program     static C:\Users\TienDat\Desktop\ActorHome\PIC18_Zigbee_v2\PIC18_Zigbee_R&D_by_Lab411\Microchip\ZigBeeStack\zNWK.c
                 __pa_292   0x0046d8    program     static C:\Users\TienDat\Desktop\ActorHome\PIC18_Zigbee_v2\PIC18_Zigbee_R&D_by_Lab411\Microchip\ZigBeeStack\zNWK.c
                 __pa_293   0x0046e2    program     static C:\Users\TienDat\Desktop\ActorHome\PIC18_Zigbee_v2\PIC18_Zigbee_R&D_by_Lab411\Microchip\ZigBeeStack\zNWK.c
                 __pa_294   0x0046ee    program     static C:\Users\TienDat\Desktop\ActorHome\PIC18_Zigbee_v2\PIC18_Zigbee_R&D_by_Lab411\Microchip\ZigBeeStack\zNWK.c
                 __pa_295   0x0046f8    program     static C:\Users\TienDat\Desktop\ActorHome\PIC18_Zigbee_v2\PIC18_Zigbee_R&D_by_Lab411\Microchip\ZigBeeStack\zNWK.c
                 __pa_296   0x0046fe    program     static C:\Users\TienDat\Desktop\ActorHome\PIC18_Zigbee_v2\PIC18_Zigbee_R&D_by_Lab411\Microchip\ZigBeeStack\zNWK.c
                 __pa_297   0x004704    program     static C:\Users\TienDat\Desktop\ActorHome\PIC18_Zigbee_v2\PIC18_Zigbee_R&D_by_Lab411\Microchip\ZigBeeStack\zNWK.c
                 __pa_298   0x00470c    program     static C:\Users\TienDat\Desktop\ActorHome\PIC18_Zigbee_v2\PIC18_Zigbee_R&D_by_Lab411\Microchip\ZigBeeStack\zNWK.c
                 __pa_299   0x004716    program     static C:\Users\TienDat\Desktop\ActorHome\PIC18_Zigbee_v2\PIC18_Zigbee_R&D_by_Lab411\Microchip\ZigBeeStack\zNWK.c
                   __pa_3   0x00b000    program     static C:\Users\TienDat\Desktop\ActorHome\PIC18_Zigbee_v2\PIC18_Zigbee_R&D_by_Lab411\Microchip\ZigBeeStack\zMAC_MRF24J40.c
                   __pa_3   0x00c160    program     static C:\Users\TienDat\Desktop\ActorHome\PIC18_Zigbee_v2\PIC18_Zigbee_R&D_by_Lab411\Microchip\ZigBeeStack\zPHY_MRF24J40.c
                   __pa_3   0x0039b4    program     static C:\Users\TienDat\Desktop\ActorHome\PIC18_Zigbee_v2\PIC18_Zigbee_R&D_by_Lab411\Microchip\ZigBeeStack\zNWK.c
                   __pa_3   0x00688e    program     static C:\Users\TienDat\Desktop\ActorHome\PIC18_Zigbee_v2\PIC18_Zigbee_R&D_by_Lab411\Microchip\ZigBeeStack\zZDO.c
                   __pa_3   0x00df96    program     static C:\Users\TienDat\Desktop\ActorHome\PIC18_Zigbee_v2\PIC18_Zigbee_R&D_by_Lab411\Microchip\Common\MSPI.c
                   __pa_3   0x00daaa    program     static C:\Users\TienDat\Desktop\ActorHome\PIC18_Zigbee_v2\PIC18_Zigbee_R&D_by_Lab411\Microchip\Common\sralloc.c
                   __pa_3   0x00903c    program     static C:\Users\TienDat\Desktop\ActorHome\PIC18_Zigbee_v2\PIC18_Zigbee_R&D_by_Lab411\Microchip\ZigBeeStack\zAPS.c
                   __pa_3   0x00d540    program     static C:\Users\TienDat\Desktop\ActorHome\PIC18_Zigbee_v2\PIC18_Zigbee_R&D_by_Lab411\Microchip\Common\SHT1x.c
                   __pa_3   0x00c6f8    program     static C:\Users\TienDat\Desktop\ActorHome\PIC18_Zigbee_v2\PIC18_Zigbee_R&D_by_Lab411\DemoPIC18Router\Router.c
                  __pa_30   0x00918e    program     static C:\Users\TienDat\Desktop\ActorHome\PIC18_Zigbee_v2\PIC18_Zigbee_R&D_by_Lab411\Microchip\ZigBeeStack\zAPS.c
                  __pa_30   0x006a42    program     static C:\Users\TienDat\Desktop\ActorHome\PIC18_Zigbee_v2\PIC18_Zigbee_R&D_by_Lab411\Microchip\ZigBeeStack\zZDO.c
                  __pa_30   0x00b1da    program     static C:\Users\TienDat\Desktop\ActorHome\PIC18_Zigbee_v2\PIC18_Zigbee_R&D_by_Lab411\Microchip\ZigBeeStack\zMAC_MRF24J40.c
                  __pa_30   0x003b4e    program     static C:\Users\TienDat\Desktop\ActorHome\PIC18_Zigbee_v2\PIC18_Zigbee_R&D_by_Lab411\Microchip\ZigBeeStack\zNWK.c
                 __pa_300   0x004720    program     static C:\Users\TienDat\Desktop\ActorHome\PIC18_Zigbee_v2\PIC18_Zigbee_R&D_by_Lab411\Microchip\ZigBeeStack\zNWK.c
                 __pa_301   0x004728    program     static C:\Users\TienDat\Desktop\ActorHome\PIC18_Zigbee_v2\PIC18_Zigbee_R&D_by_Lab411\Microchip\ZigBeeStack\zNWK.c
                 __pa_302   0x004730    program     static C:\Users\TienDat\Desktop\ActorHome\PIC18_Zigbee_v2\PIC18_Zigbee_R&D_by_Lab411\Microchip\ZigBeeStack\zNWK.c
                 __pa_303   0x004736    program     static C:\Users\TienDat\Desktop\ActorHome\PIC18_Zigbee_v2\PIC18_Zigbee_R&D_by_Lab411\Microchip\ZigBeeStack\zNWK.c
                 __pa_304   0x00473e    program     static C:\Users\TienDat\Desktop\ActorHome\PIC18_Zigbee_v2\PIC18_Zigbee_R&D_by_Lab411\Microchip\ZigBeeStack\zNWK.c
                 __pa_305   0x004744    program     static C:\Users\TienDat\Desktop\ActorHome\PIC18_Zigbee_v2\PIC18_Zigbee_R&D_by_Lab411\Microchip\ZigBeeStack\zNWK.c
                 __pa_306   0x00474e    program     static C:\Users\TienDat\Desktop\ActorHome\PIC18_Zigbee_v2\PIC18_Zigbee_R&D_by_Lab411\Microchip\ZigBeeStack\zNWK.c
                 __pa_307   0x004756    program     static C:\Users\TienDat\Desktop\ActorHome\PIC18_Zigbee_v2\PIC18_Zigbee_R&D_by_Lab411\Microchip\ZigBeeStack\zNWK.c
                 __pa_308   0x00475c    program     static C:\Users\TienDat\Desktop\ActorHome\PIC18_Zigbee_v2\PIC18_Zigbee_R&D_by_Lab411\Microchip\ZigBeeStack\zNWK.c
                 __pa_309   0x004762    program     static C:\Users\TienDat\Desktop\ActorHome\PIC18_Zigbee_v2\PIC18_Zigbee_R&D_by_Lab411\Microchip\ZigBeeStack\zNWK.c
                  __pa_31   0x006a4c    program     static C:\Users\TienDat\Desktop\ActorHome\PIC18_Zigbee_v2\PIC18_Zigbee_R&D_by_Lab411\Microchip\ZigBeeStack\zZDO.c
                  __pa_31   0x009196    program     static C:\Users\TienDat\Desktop\ActorHome\PIC18_Zigbee_v2\PIC18_Zigbee_R&D_by_Lab411\Microchip\ZigBeeStack\zAPS.c
                  __pa_31   0x003b5a    program     static C:\Users\TienDat\Desktop\ActorHome\PIC18_Zigbee_v2\PIC18_Zigbee_R&D_by_Lab411\Microchip\ZigBeeStack\zNWK.c
                  __pa_31   0x00b1e6    program     static C:\Users\TienDat\Desktop\ActorHome\PIC18_Zigbee_v2\PIC18_Zigbee_R&D_by_Lab411\Microchip\ZigBeeStack\zMAC_MRF24J40.c
                 __pa_310   0x004768    program     static C:\Users\TienDat\Desktop\ActorHome\PIC18_Zigbee_v2\PIC18_Zigbee_R&D_by_Lab411\Microchip\ZigBeeStack\zNWK.c
                 __pa_311   0x00476e    program     static C:\Users\TienDat\Desktop\ActorHome\PIC18_Zigbee_v2\PIC18_Zigbee_R&D_by_Lab411\Microchip\ZigBeeStack\zNWK.c
                 __pa_312   0x004776    program     static C:\Users\TienDat\Desktop\ActorHome\PIC18_Zigbee_v2\PIC18_Zigbee_R&D_by_Lab411\Microchip\ZigBeeStack\zNWK.c
                  __pa_32   0x00b200    program     static C:\Users\TienDat\Desktop\ActorHome\PIC18_Zigbee_v2\PIC18_Zigbee_R&D_by_Lab411\Microchip\ZigBeeStack\zMAC_MRF24J40.c
                  __pa_32   0x00919e    program     static C:\Users\TienDat\Desktop\ActorHome\PIC18_Zigbee_v2\PIC18_Zigbee_R&D_by_Lab411\Microchip\ZigBeeStack\zAPS.c
                  __pa_32   0x003b68    program     static C:\Users\TienDat\Desktop\ActorHome\PIC18_Zigbee_v2\PIC18_Zigbee_R&D_by_Lab411\Microchip\ZigBeeStack\zNWK.c
                  __pa_32   0x006a54    program     static C:\Users\TienDat\Desktop\ActorHome\PIC18_Zigbee_v2\PIC18_Zigbee_R&D_by_Lab411\Microchip\ZigBeeStack\zZDO.c
                  __pa_33   0x006a5e    program     static C:\Users\TienDat\Desktop\ActorHome\PIC18_Zigbee_v2\PIC18_Zigbee_R&D_by_Lab411\Microchip\ZigBeeStack\zZDO.c
                  __pa_33   0x00b21a    program     static C:\Users\TienDat\Desktop\ActorHome\PIC18_Zigbee_v2\PIC18_Zigbee_R&D_by_Lab411\Microchip\ZigBeeStack\zMAC_MRF24J40.c
                  __pa_33   0x003b72    program     static C:\Users\TienDat\Desktop\ActorHome\PIC18_Zigbee_v2\PIC18_Zigbee_R&D_by_Lab411\Microchip\ZigBeeStack\zNWK.c
                  __pa_33   0x0091ac    program     static C:\Users\TienDat\Desktop\ActorHome\PIC18_Zigbee_v2\PIC18_Zigbee_R&D_by_Lab411\Microchip\ZigBeeStack\zAPS.c
                  __pa_34   0x006a74    program     static C:\Users\TienDat\Desktop\ActorHome\PIC18_Zigbee_v2\PIC18_Zigbee_R&D_by_Lab411\Microchip\ZigBeeStack\zZDO.c
                  __pa_34   0x003b7a    program     static C:\Users\TienDat\Desktop\ActorHome\PIC18_Zigbee_v2\PIC18_Zigbee_R&D_by_Lab411\Microchip\ZigBeeStack\zNWK.c
                  __pa_34   0x0091c4    program     static C:\Users\TienDat\Desktop\ActorHome\PIC18_Zigbee_v2\PIC18_Zigbee_R&D_by_Lab411\Microchip\ZigBeeStack\zAPS.c
                  __pa_34   0x00b22a    program     static C:\Users\TienDat\Desktop\ActorHome\PIC18_Zigbee_v2\PIC18_Zigbee_R&D_by_Lab411\Microchip\ZigBeeStack\zMAC_MRF24J40.c
                  __pa_35   0x003b84    program     static C:\Users\TienDat\Desktop\ActorHome\PIC18_Zigbee_v2\PIC18_Zigbee_R&D_by_Lab411\Microchip\ZigBeeStack\zNWK.c
                  __pa_35   0x0091cc    program     static C:\Users\TienDat\Desktop\ActorHome\PIC18_Zigbee_v2\PIC18_Zigbee_R&D_by_Lab411\Microchip\ZigBeeStack\zAPS.c
                  __pa_35   0x006aa0    program     static C:\Users\TienDat\Desktop\ActorHome\PIC18_Zigbee_v2\PIC18_Zigbee_R&D_by_Lab411\Microchip\ZigBeeStack\zZDO.c
                  __pa_35   0x00b230    program     static C:\Users\TienDat\Desktop\ActorHome\PIC18_Zigbee_v2\PIC18_Zigbee_R&D_by_Lab411\Microchip\ZigBeeStack\zMAC_MRF24J40.c
                  __pa_36   0x003b96    program     static C:\Users\TienDat\Desktop\ActorHome\PIC18_Zigbee_v2\PIC18_Zigbee_R&D_by_Lab411\Microchip\ZigBeeStack\zNWK.c
                  __pa_36   0x0091d6    program     static C:\Users\TienDat\Desktop\ActorHome\PIC18_Zigbee_v2\PIC18_Zigbee_R&D_by_Lab411\Microchip\ZigBeeStack\zAPS.c
                  __pa_36   0x00b23c    program     static C:\Users\TienDat\Desktop\ActorHome\PIC18_Zigbee_v2\PIC18_Zigbee_R&D_by_Lab411\Microchip\ZigBeeStack\zMAC_MRF24J40.c
                  __pa_36   0x006ab4    program     static C:\Users\TienDat\Desktop\ActorHome\PIC18_Zigbee_v2\PIC18_Zigbee_R&D_by_Lab411\Microchip\ZigBeeStack\zZDO.c
                  __pa_37   0x003b9e    program     static C:\Users\TienDat\Desktop\ActorHome\PIC18_Zigbee_v2\PIC18_Zigbee_R&D_by_Lab411\Microchip\ZigBeeStack\zNWK.c
                  __pa_37   0x0091f8    program     static C:\Users\TienDat\Desktop\ActorHome\PIC18_Zigbee_v2\PIC18_Zigbee_R&D_by_Lab411\Microchip\ZigBeeStack\zAPS.c
                  __pa_37   0x00b252    program     static C:\Users\TienDat\Desktop\ActorHome\PIC18_Zigbee_v2\PIC18_Zigbee_R&D_by_Lab411\Microchip\ZigBeeStack\zMAC_MRF24J40.c
                  __pa_37   0x006aba    program     static C:\Users\TienDat\Desktop\ActorHome\PIC18_Zigbee_v2\PIC18_Zigbee_R&D_by_Lab411\Microchip\ZigBeeStack\zZDO.c
                  __pa_38   0x009212    program     static C:\Users\TienDat\Desktop\ActorHome\PIC18_Zigbee_v2\PIC18_Zigbee_R&D_by_Lab411\Microchip\ZigBeeStack\zAPS.c
                  __pa_38   0x006ac2    program     static C:\Users\TienDat\Desktop\ActorHome\PIC18_Zigbee_v2\PIC18_Zigbee_R&D_by_Lab411\Microchip\ZigBeeStack\zZDO.c
                  __pa_38   0x00b264    program     static C:\Users\TienDat\Desktop\ActorHome\PIC18_Zigbee_v2\PIC18_Zigbee_R&D_by_Lab411\Microchip\ZigBeeStack\zMAC_MRF24J40.c
                  __pa_38   0x003ba6    program     static C:\Users\TienDat\Desktop\ActorHome\PIC18_Zigbee_v2\PIC18_Zigbee_R&D_by_Lab411\Microchip\ZigBeeStack\zNWK.c
                  __pa_39   0x00b270    program     static C:\Users\TienDat\Desktop\ActorHome\PIC18_Zigbee_v2\PIC18_Zigbee_R&D_by_Lab411\Microchip\ZigBeeStack\zMAC_MRF24J40.c
                  __pa_39   0x006ac8    program     static C:\Users\TienDat\Desktop\ActorHome\PIC18_Zigbee_v2\PIC18_Zigbee_R&D_by_Lab411\Microchip\ZigBeeStack\zZDO.c
                  __pa_39   0x003bae    program     static C:\Users\TienDat\Desktop\ActorHome\PIC18_Zigbee_v2\PIC18_Zigbee_R&D_by_Lab411\Microchip\ZigBeeStack\zNWK.c
                  __pa_39   0x009218    program     static C:\Users\TienDat\Desktop\ActorHome\PIC18_Zigbee_v2\PIC18_Zigbee_R&D_by_Lab411\Microchip\ZigBeeStack\zAPS.c
                   __pa_4   0x00b026    program     static C:\Users\TienDat\Desktop\ActorHome\PIC18_Zigbee_v2\PIC18_Zigbee_R&D_by_Lab411\Microchip\ZigBeeStack\zMAC_MRF24J40.c
                   __pa_4   0x00c16c    program     static C:\Users\TienDat\Desktop\ActorHome\PIC18_Zigbee_v2\PIC18_Zigbee_R&D_by_Lab411\Microchip\ZigBeeStack\zPHY_MRF24J40.c
                   __pa_4   0x0039da    program     static C:\Users\TienDat\Desktop\ActorHome\PIC18_Zigbee_v2\PIC18_Zigbee_R&D_by_Lab411\Microchip\ZigBeeStack\zNWK.c
                   __pa_4   0x00689a    program     static C:\Users\TienDat\Desktop\ActorHome\PIC18_Zigbee_v2\PIC18_Zigbee_R&D_by_Lab411\Microchip\ZigBeeStack\zZDO.c
                   __pa_4   0x00dab6    program     static C:\Users\TienDat\Desktop\ActorHome\PIC18_Zigbee_v2\PIC18_Zigbee_R&D_by_Lab411\Microchip\Common\sralloc.c
                   __pa_4   0x00904a    program     static C:\Users\TienDat\Desktop\ActorHome\PIC18_Zigbee_v2\PIC18_Zigbee_R&D_by_Lab411\Microchip\ZigBeeStack\zAPS.c
                   __pa_4   0x00d54c    program     static C:\Users\TienDat\Desktop\ActorHome\PIC18_Zigbee_v2\PIC18_Zigbee_R&D_by_Lab411\Microchip\Common\SHT1x.c
                   __pa_4   0x00c70a    program     static C:\Users\TienDat\Desktop\ActorHome\PIC18_Zigbee_v2\PIC18_Zigbee_R&D_by_Lab411\DemoPIC18Router\Router.c
                  __pa_40   0x003bb6    program     static C:\Users\TienDat\Desktop\ActorHome\PIC18_Zigbee_v2\PIC18_Zigbee_R&D_by_Lab411\Microchip\ZigBeeStack\zNWK.c
                  __pa_40   0x006ad4    program     static C:\Users\TienDat\Desktop\ActorHome\PIC18_Zigbee_v2\PIC18_Zigbee_R&D_by_Lab411\Microchip\ZigBeeStack\zZDO.c
                  __pa_40   0x00b27e    program     static C:\Users\TienDat\Desktop\ActorHome\PIC18_Zigbee_v2\PIC18_Zigbee_R&D_by_Lab411\Microchip\ZigBeeStack\zMAC_MRF24J40.c
                  __pa_40   0x009220    program     static C:\Users\TienDat\Desktop\ActorHome\PIC18_Zigbee_v2\PIC18_Zigbee_R&D_by_Lab411\Microchip\ZigBeeStack\zAPS.c
                  __pa_41   0x00b28e    program     static C:\Users\TienDat\Desktop\ActorHome\PIC18_Zigbee_v2\PIC18_Zigbee_R&D_by_Lab411\Microchip\ZigBeeStack\zMAC_MRF24J40.c
                  __pa_41   0x00922a    program     static C:\Users\TienDat\Desktop\ActorHome\PIC18_Zigbee_v2\PIC18_Zigbee_R&D_by_Lab411\Microchip\ZigBeeStack\zAPS.c
                  __pa_41   0x006ae2    program     static C:\Users\TienDat\Desktop\ActorHome\PIC18_Zigbee_v2\PIC18_Zigbee_R&D_by_Lab411\Microchip\ZigBeeStack\zZDO.c
                  __pa_41   0x003bc2    program     static C:\Users\TienDat\Desktop\ActorHome\PIC18_Zigbee_v2\PIC18_Zigbee_R&D_by_Lab411\Microchip\ZigBeeStack\zNWK.c
                  __pa_42   0x00b2a2    program     static C:\Users\TienDat\Desktop\ActorHome\PIC18_Zigbee_v2\PIC18_Zigbee_R&D_by_Lab411\Microchip\ZigBeeStack\zMAC_MRF24J40.c
                  __pa_42   0x003bce    program     static C:\Users\TienDat\Desktop\ActorHome\PIC18_Zigbee_v2\PIC18_Zigbee_R&D_by_Lab411\Microchip\ZigBeeStack\zNWK.c
                  __pa_42   0x00923c    program     static C:\Users\TienDat\Desktop\ActorHome\PIC18_Zigbee_v2\PIC18_Zigbee_R&D_by_Lab411\Microchip\ZigBeeStack\zAPS.c
                  __pa_42   0x006b0e    program     static C:\Users\TienDat\Desktop\ActorHome\PIC18_Zigbee_v2\PIC18_Zigbee_R&D_by_Lab411\Microchip\ZigBeeStack\zZDO.c
                  __pa_43   0x00b2ae    program     static C:\Users\TienDat\Desktop\ActorHome\PIC18_Zigbee_v2\PIC18_Zigbee_R&D_by_Lab411\Microchip\ZigBeeStack\zMAC_MRF24J40.c
                  __pa_43   0x00924a    program     static C:\Users\TienDat\Desktop\ActorHome\PIC18_Zigbee_v2\PIC18_Zigbee_R&D_by_Lab411\Microchip\ZigBeeStack\zAPS.c
                  __pa_43   0x006b20    program     static C:\Users\TienDat\Desktop\ActorHome\PIC18_Zigbee_v2\PIC18_Zigbee_R&D_by_Lab411\Microchip\ZigBeeStack\zZDO.c
                  __pa_43   0x003bda    program     static C:\Users\TienDat\Desktop\ActorHome\PIC18_Zigbee_v2\PIC18_Zigbee_R&D_by_Lab411\Microchip\ZigBeeStack\zNWK.c
                  __pa_44   0x006b26    program     static C:\Users\TienDat\Desktop\ActorHome\PIC18_Zigbee_v2\PIC18_Zigbee_R&D_by_Lab411\Microchip\ZigBeeStack\zZDO.c
                  __pa_44   0x00b2c0    program     static C:\Users\TienDat\Desktop\ActorHome\PIC18_Zigbee_v2\PIC18_Zigbee_R&D_by_Lab411\Microchip\ZigBeeStack\zMAC_MRF24J40.c
                  __pa_44   0x003be2    program     static C:\Users\TienDat\Desktop\ActorHome\PIC18_Zigbee_v2\PIC18_Zigbee_R&D_by_Lab411\Microchip\ZigBeeStack\zNWK.c
                  __pa_44   0x009252    program     static C:\Users\TienDat\Desktop\ActorHome\PIC18_Zigbee_v2\PIC18_Zigbee_R&D_by_Lab411\Microchip\ZigBeeStack\zAPS.c
                  __pa_45   0x006b2c    program     static C:\Users\TienDat\Desktop\ActorHome\PIC18_Zigbee_v2\PIC18_Zigbee_R&D_by_Lab411\Microchip\ZigBeeStack\zZDO.c
                  __pa_45   0x00b2d2    program     static C:\Users\TienDat\Desktop\ActorHome\PIC18_Zigbee_v2\PIC18_Zigbee_R&D_by_Lab411\Microchip\ZigBeeStack\zMAC_MRF24J40.c
                  __pa_45   0x003bf0    program     static C:\Users\TienDat\Desktop\ActorHome\PIC18_Zigbee_v2\PIC18_Zigbee_R&D_by_Lab411\Microchip\ZigBeeStack\zNWK.c
                  __pa_45   0x009262    program     static C:\Users\TienDat\Desktop\ActorHome\PIC18_Zigbee_v2\PIC18_Zigbee_R&D_by_Lab411\Microchip\ZigBeeStack\zAPS.c
                  __pa_46   0x006b32    program     static C:\Users\TienDat\Desktop\ActorHome\PIC18_Zigbee_v2\PIC18_Zigbee_R&D_by_Lab411\Microchip\ZigBeeStack\zZDO.c
                  __pa_46   0x00b2e4    program     static C:\Users\TienDat\Desktop\ActorHome\PIC18_Zigbee_v2\PIC18_Zigbee_R&D_by_Lab411\Microchip\ZigBeeStack\zMAC_MRF24J40.c
                  __pa_46   0x009272    program     static C:\Users\TienDat\Desktop\ActorHome\PIC18_Zigbee_v2\PIC18_Zigbee_R&D_by_Lab411\Microchip\ZigBeeStack\zAPS.c
                  __pa_46   0x003bfa    program     static C:\Users\TienDat\Desktop\ActorHome\PIC18_Zigbee_v2\PIC18_Zigbee_R&D_by_Lab411\Microchip\ZigBeeStack\zNWK.c
                  __pa_47   0x00b2f0    program     static C:\Users\TienDat\Desktop\ActorHome\PIC18_Zigbee_v2\PIC18_Zigbee_R&D_by_Lab411\Microchip\ZigBeeStack\zMAC_MRF24J40.c
                  __pa_47   0x00927c    program     static C:\Users\TienDat\Desktop\ActorHome\PIC18_Zigbee_v2\PIC18_Zigbee_R&D_by_Lab411\Microchip\ZigBeeStack\zAPS.c
                  __pa_47   0x003c02    program     static C:\Users\TienDat\Desktop\ActorHome\PIC18_Zigbee_v2\PIC18_Zigbee_R&D_by_Lab411\Microchip\ZigBeeStack\zNWK.c
                  __pa_47   0x006b56    program     static C:\Users\TienDat\Desktop\ActorHome\PIC18_Zigbee_v2\PIC18_Zigbee_R&D_by_Lab411\Microchip\ZigBeeStack\zZDO.c
                  __pa_48   0x00b2fc    program     static C:\Users\TienDat\Desktop\ActorHome\PIC18_Zigbee_v2\PIC18_Zigbee_R&D_by_Lab411\Microchip\ZigBeeStack\zMAC_MRF24J40.c
                  __pa_48   0x006b62    program     static C:\Users\TienDat\Desktop\ActorHome\PIC18_Zigbee_v2\PIC18_Zigbee_R&D_by_Lab411\Microchip\ZigBeeStack\zZDO.c
                  __pa_48   0x003c12    program     static C:\Users\TienDat\Desktop\ActorHome\PIC18_Zigbee_v2\PIC18_Zigbee_R&D_by_Lab411\Microchip\ZigBeeStack\zNWK.c
                  __pa_48   0x009284    program     static C:\Users\TienDat\Desktop\ActorHome\PIC18_Zigbee_v2\PIC18_Zigbee_R&D_by_Lab411\Microchip\ZigBeeStack\zAPS.c
                  __pa_49   0x006b68    program     static C:\Users\TienDat\Desktop\ActorHome\PIC18_Zigbee_v2\PIC18_Zigbee_R&D_by_Lab411\Microchip\ZigBeeStack\zZDO.c
                  __pa_49   0x003c1c    program     static C:\Users\TienDat\Desktop\ActorHome\PIC18_Zigbee_v2\PIC18_Zigbee_R&D_by_Lab411\Microchip\ZigBeeStack\zNWK.c
                  __pa_49   0x00b306    program     static C:\Users\TienDat\Desktop\ActorHome\PIC18_Zigbee_v2\PIC18_Zigbee_R&D_by_Lab411\Microchip\ZigBeeStack\zMAC_MRF24J40.c
                  __pa_49   0x009290    program     static C:\Users\TienDat\Desktop\ActorHome\PIC18_Zigbee_v2\PIC18_Zigbee_R&D_by_Lab411\Microchip\ZigBeeStack\zAPS.c
                   __pa_5   0x00c718    program     static C:\Users\TienDat\Desktop\ActorHome\PIC18_Zigbee_v2\PIC18_Zigbee_R&D_by_Lab411\DemoPIC18Router\Router.c
                   __pa_5   0x00d55a    program     static C:\Users\TienDat\Desktop\ActorHome\PIC18_Zigbee_v2\PIC18_Zigbee_R&D_by_Lab411\Microchip\Common\SHT1x.c
                   __pa_5   0x009050    program     static C:\Users\TienDat\Desktop\ActorHome\PIC18_Zigbee_v2\PIC18_Zigbee_R&D_by_Lab411\Microchip\ZigBeeStack\zAPS.c
                   __pa_5   0x0068a8    program     static C:\Users\TienDat\Desktop\ActorHome\PIC18_Zigbee_v2\PIC18_Zigbee_R&D_by_Lab411\Microchip\ZigBeeStack\zZDO.c
                   __pa_5   0x00dac0    program     static C:\Users\TienDat\Desktop\ActorHome\PIC18_Zigbee_v2\PIC18_Zigbee_R&D_by_Lab411\Microchip\Common\sralloc.c
                   __pa_5   0x00c17c    program     static C:\Users\TienDat\Desktop\ActorHome\PIC18_Zigbee_v2\PIC18_Zigbee_R&D_by_Lab411\Microchip\ZigBeeStack\zPHY_MRF24J40.c
                   __pa_5   0x00b034    program     static C:\Users\TienDat\Desktop\ActorHome\PIC18_Zigbee_v2\PIC18_Zigbee_R&D_by_Lab411\Microchip\ZigBeeStack\zMAC_MRF24J40.c
                   __pa_5   0x0039e0    program     static C:\Users\TienDat\Desktop\ActorHome\PIC18_Zigbee_v2\PIC18_Zigbee_R&D_by_Lab411\Microchip\ZigBeeStack\zNWK.c
                  __pa_50   0x009298    program     static C:\Users\TienDat\Desktop\ActorHome\PIC18_Zigbee_v2\PIC18_Zigbee_R&D_by_Lab411\Microchip\ZigBeeStack\zAPS.c
                  __pa_50   0x00b30e    program     static C:\Users\TienDat\Desktop\ActorHome\PIC18_Zigbee_v2\PIC18_Zigbee_R&D_by_Lab411\Microchip\ZigBeeStack\zMAC_MRF24J40.c
                  __pa_50   0x003c2c    program     static C:\Users\TienDat\Desktop\ActorHome\PIC18_Zigbee_v2\PIC18_Zigbee_R&D_by_Lab411\Microchip\ZigBeeStack\zNWK.c
                  __pa_50   0x006b8a    program     static C:\Users\TienDat\Desktop\ActorHome\PIC18_Zigbee_v2\PIC18_Zigbee_R&D_by_Lab411\Microchip\ZigBeeStack\zZDO.c
                  __pa_51   0x00b31a    program     static C:\Users\TienDat\Desktop\ActorHome\PIC18_Zigbee_v2\PIC18_Zigbee_R&D_by_Lab411\Microchip\ZigBeeStack\zMAC_MRF24J40.c
                  __pa_51   0x003c50    program     static C:\Users\TienDat\Desktop\ActorHome\PIC18_Zigbee_v2\PIC18_Zigbee_R&D_by_Lab411\Microchip\ZigBeeStack\zNWK.c
                  __pa_51   0x006b96    program     static C:\Users\TienDat\Desktop\ActorHome\PIC18_Zigbee_v2\PIC18_Zigbee_R&D_by_Lab411\Microchip\ZigBeeStack\zZDO.c
                  __pa_51   0x0092ae    program     static C:\Users\TienDat\Desktop\ActorHome\PIC18_Zigbee_v2\PIC18_Zigbee_R&D_by_Lab411\Microchip\ZigBeeStack\zAPS.c
                  __pa_52   0x006b9c    program     static C:\Users\TienDat\Desktop\ActorHome\PIC18_Zigbee_v2\PIC18_Zigbee_R&D_by_Lab411\Microchip\ZigBeeStack\zZDO.c
                  __pa_52   0x003c5e    program     static C:\Users\TienDat\Desktop\ActorHome\PIC18_Zigbee_v2\PIC18_Zigbee_R&D_by_Lab411\Microchip\ZigBeeStack\zNWK.c
                  __pa_52   0x0092bc    program     static C:\Users\TienDat\Desktop\ActorHome\PIC18_Zigbee_v2\PIC18_Zigbee_R&D_by_Lab411\Microchip\ZigBeeStack\zAPS.c
                  __pa_52   0x00b326    program     static C:\Users\TienDat\Desktop\ActorHome\PIC18_Zigbee_v2\PIC18_Zigbee_R&D_by_Lab411\Microchip\ZigBeeStack\zMAC_MRF24J40.c
                  __pa_53   0x006bba    program     static C:\Users\TienDat\Desktop\ActorHome\PIC18_Zigbee_v2\PIC18_Zigbee_R&D_by_Lab411\Microchip\ZigBeeStack\zZDO.c
                  __pa_53   0x0092c4    program     static C:\Users\TienDat\Desktop\ActorHome\PIC18_Zigbee_v2\PIC18_Zigbee_R&D_by_Lab411\Microchip\ZigBeeStack\zAPS.c
                  __pa_53   0x003c6c    program     static C:\Users\TienDat\Desktop\ActorHome\PIC18_Zigbee_v2\PIC18_Zigbee_R&D_by_Lab411\Microchip\ZigBeeStack\zNWK.c
                  __pa_53   0x00b32e    program     static C:\Users\TienDat\Desktop\ActorHome\PIC18_Zigbee_v2\PIC18_Zigbee_R&D_by_Lab411\Microchip\ZigBeeStack\zMAC_MRF24J40.c
                  __pa_54   0x006bce    program     static C:\Users\TienDat\Desktop\ActorHome\PIC18_Zigbee_v2\PIC18_Zigbee_R&D_by_Lab411\Microchip\ZigBeeStack\zZDO.c
                  __pa_54   0x0092cc    program     static C:\Users\TienDat\Desktop\ActorHome\PIC18_Zigbee_v2\PIC18_Zigbee_R&D_by_Lab411\Microchip\ZigBeeStack\zAPS.c
                  __pa_54   0x003c7a    program     static C:\Users\TienDat\Desktop\ActorHome\PIC18_Zigbee_v2\PIC18_Zigbee_R&D_by_Lab411\Microchip\ZigBeeStack\zNWK.c
                  __pa_54   0x00b33c    program     static C:\Users\TienDat\Desktop\ActorHome\PIC18_Zigbee_v2\PIC18_Zigbee_R&D_by_Lab411\Microchip\ZigBeeStack\zMAC_MRF24J40.c
                  __pa_55   0x006bdc    program     static C:\Users\TienDat\Desktop\ActorHome\PIC18_Zigbee_v2\PIC18_Zigbee_R&D_by_Lab411\Microchip\ZigBeeStack\zZDO.c
                  __pa_55   0x00b34a    program     static C:\Users\TienDat\Desktop\ActorHome\PIC18_Zigbee_v2\PIC18_Zigbee_R&D_by_Lab411\Microchip\ZigBeeStack\zMAC_MRF24J40.c
                  __pa_55   0x003c88    program     static C:\Users\TienDat\Desktop\ActorHome\PIC18_Zigbee_v2\PIC18_Zigbee_R&D_by_Lab411\Microchip\ZigBeeStack\zNWK.c
                  __pa_55   0x0092d6    program     static C:\Users\TienDat\Desktop\ActorHome\PIC18_Zigbee_v2\PIC18_Zigbee_R&D_by_Lab411\Microchip\ZigBeeStack\zAPS.c
                  __pa_56   0x006bea    program     static C:\Users\TienDat\Desktop\ActorHome\PIC18_Zigbee_v2\PIC18_Zigbee_R&D_by_Lab411\Microchip\ZigBeeStack\zZDO.c
                  __pa_56   0x00b354    program     static C:\Users\TienDat\Desktop\ActorHome\PIC18_Zigbee_v2\PIC18_Zigbee_R&D_by_Lab411\Microchip\ZigBeeStack\zMAC_MRF24J40.c
                  __pa_56   0x003c96    program     static C:\Users\TienDat\Desktop\ActorHome\PIC18_Zigbee_v2\PIC18_Zigbee_R&D_by_Lab411\Microchip\ZigBeeStack\zNWK.c
                  __pa_56   0x0092da    program     static C:\Users\TienDat\Desktop\ActorHome\PIC18_Zigbee_v2\PIC18_Zigbee_R&D_by_Lab411\Microchip\ZigBeeStack\zAPS.c
                  __pa_57   0x006bf0    program     static C:\Users\TienDat\Desktop\ActorHome\PIC18_Zigbee_v2\PIC18_Zigbee_R&D_by_Lab411\Microchip\ZigBeeStack\zZDO.c
                  __pa_57   0x003ca4    program     static C:\Users\TienDat\Desktop\ActorHome\PIC18_Zigbee_v2\PIC18_Zigbee_R&D_by_Lab411\Microchip\ZigBeeStack\zNWK.c
                  __pa_57   0x0092ec    program     static C:\Users\TienDat\Desktop\ActorHome\PIC18_Zigbee_v2\PIC18_Zigbee_R&D_by_Lab411\Microchip\ZigBeeStack\zAPS.c
                  __pa_57   0x00b362    program     static C:\Users\TienDat\Desktop\ActorHome\PIC18_Zigbee_v2\PIC18_Zigbee_R&D_by_Lab411\Microchip\ZigBeeStack\zMAC_MRF24J40.c
                  __pa_58   0x0092fe    program     static C:\Users\TienDat\Desktop\ActorHome\PIC18_Zigbee_v2\PIC18_Zigbee_R&D_by_Lab411\Microchip\ZigBeeStack\zAPS.c
                  __pa_58   0x006c00    program     static C:\Users\TienDat\Desktop\ActorHome\PIC18_Zigbee_v2\PIC18_Zigbee_R&D_by_Lab411\Microchip\ZigBeeStack\zZDO.c
                  __pa_58   0x003cae    program     static C:\Users\TienDat\Desktop\ActorHome\PIC18_Zigbee_v2\PIC18_Zigbee_R&D_by_Lab411\Microchip\ZigBeeStack\zNWK.c
                  __pa_58   0x00b370    program     static C:\Users\TienDat\Desktop\ActorHome\PIC18_Zigbee_v2\PIC18_Zigbee_R&D_by_Lab411\Microchip\ZigBeeStack\zMAC_MRF24J40.c
                  __pa_59   0x00930a    program     static C:\Users\TienDat\Desktop\ActorHome\PIC18_Zigbee_v2\PIC18_Zigbee_R&D_by_Lab411\Microchip\ZigBeeStack\zAPS.c
                  __pa_59   0x00b37e    program     static C:\Users\TienDat\Desktop\ActorHome\PIC18_Zigbee_v2\PIC18_Zigbee_R&D_by_Lab411\Microchip\ZigBeeStack\zMAC_MRF24J40.c
                  __pa_59   0x003cc4    program     static C:\Users\TienDat\Desktop\ActorHome\PIC18_Zigbee_v2\PIC18_Zigbee_R&D_by_Lab411\Microchip\ZigBeeStack\zNWK.c
                  __pa_59   0x006c10    program     static C:\Users\TienDat\Desktop\ActorHome\PIC18_Zigbee_v2\PIC18_Zigbee_R&D_by_Lab411\Microchip\ZigBeeStack\zZDO.c
                   __pa_6   0x00905a    program     static C:\Users\TienDat\Desktop\ActorHome\PIC18_Zigbee_v2\PIC18_Zigbee_R&D_by_Lab411\Microchip\ZigBeeStack\zAPS.c
                   __pa_6   0x0039e8    program     static C:\Users\TienDat\Desktop\ActorHome\PIC18_Zigbee_v2\PIC18_Zigbee_R&D_by_Lab411\Microchip\ZigBeeStack\zNWK.c
                   __pa_6   0x0068b6    program     static C:\Users\TienDat\Desktop\ActorHome\PIC18_Zigbee_v2\PIC18_Zigbee_R&D_by_Lab411\Microchip\ZigBeeStack\zZDO.c
                   __pa_6   0x00dad2    program     static C:\Users\TienDat\Desktop\ActorHome\PIC18_Zigbee_v2\PIC18_Zigbee_R&D_by_Lab411\Microchip\Common\sralloc.c
                   __pa_6   0x00c724    program     static C:\Users\TienDat\Desktop\ActorHome\PIC18_Zigbee_v2\PIC18_Zigbee_R&D_by_Lab411\DemoPIC18Router\Router.c
                   __pa_6   0x00d568    program     static C:\Users\TienDat\Desktop\ActorHome\PIC18_Zigbee_v2\PIC18_Zigbee_R&D_by_Lab411\Microchip\Common\SHT1x.c
                   __pa_6   0x00b03c    program     static C:\Users\TienDat\Desktop\ActorHome\PIC18_Zigbee_v2\PIC18_Zigbee_R&D_by_Lab411\Microchip\ZigBeeStack\zMAC_MRF24J40.c
                  __pa_60   0x00b38c    program     static C:\Users\TienDat\Desktop\ActorHome\PIC18_Zigbee_v2\PIC18_Zigbee_R&D_by_Lab411\Microchip\ZigBeeStack\zMAC_MRF24J40.c
                  __pa_60   0x006c26    program     static C:\Users\TienDat\Desktop\ActorHome\PIC18_Zigbee_v2\PIC18_Zigbee_R&D_by_Lab411\Microchip\ZigBeeStack\zZDO.c
                  __pa_60   0x003cce    program     static C:\Users\TienDat\Desktop\ActorHome\PIC18_Zigbee_v2\PIC18_Zigbee_R&D_by_Lab411\Microchip\ZigBeeStack\zNWK.c
                  __pa_60   0x009316    program     static C:\Users\TienDat\Desktop\ActorHome\PIC18_Zigbee_v2\PIC18_Zigbee_R&D_by_Lab411\Microchip\ZigBeeStack\zAPS.c
                  __pa_61   0x006c30    program     static C:\Users\TienDat\Desktop\ActorHome\PIC18_Zigbee_v2\PIC18_Zigbee_R&D_by_Lab411\Microchip\ZigBeeStack\zZDO.c
                  __pa_61   0x00b390    program     static C:\Users\TienDat\Desktop\ActorHome\PIC18_Zigbee_v2\PIC18_Zigbee_R&D_by_Lab411\Microchip\ZigBeeStack\zMAC_MRF24J40.c
                  __pa_61   0x003cde    program     static C:\Users\TienDat\Desktop\ActorHome\PIC18_Zigbee_v2\PIC18_Zigbee_R&D_by_Lab411\Microchip\ZigBeeStack\zNWK.c
                  __pa_61   0x009328    program     static C:\Users\TienDat\Desktop\ActorHome\PIC18_Zigbee_v2\PIC18_Zigbee_R&D_by_Lab411\Microchip\ZigBeeStack\zAPS.c
                  __pa_62   0x003d00    program     static C:\Users\TienDat\Desktop\ActorHome\PIC18_Zigbee_v2\PIC18_Zigbee_R&D_by_Lab411\Microchip\ZigBeeStack\zNWK.c
                  __pa_62   0x006c36    program     static C:\Users\TienDat\Desktop\ActorHome\PIC18_Zigbee_v2\PIC18_Zigbee_R&D_by_Lab411\Microchip\ZigBeeStack\zZDO.c
                  __pa_62   0x009330    program     static C:\Users\TienDat\Desktop\ActorHome\PIC18_Zigbee_v2\PIC18_Zigbee_R&D_by_Lab411\Microchip\ZigBeeStack\zAPS.c
                  __pa_62   0x00b39a    program     static C:\Users\TienDat\Desktop\ActorHome\PIC18_Zigbee_v2\PIC18_Zigbee_R&D_by_Lab411\Microchip\ZigBeeStack\zMAC_MRF24J40.c
                  __pa_63   0x006c42    program     static C:\Users\TienDat\Desktop\ActorHome\PIC18_Zigbee_v2\PIC18_Zigbee_R&D_by_Lab411\Microchip\ZigBeeStack\zZDO.c
                  __pa_63   0x003d0a    program     static C:\Users\TienDat\Desktop\ActorHome\PIC18_Zigbee_v2\PIC18_Zigbee_R&D_by_Lab411\Microchip\ZigBeeStack\zNWK.c
                  __pa_63   0x009338    program     static C:\Users\TienDat\Desktop\ActorHome\PIC18_Zigbee_v2\PIC18_Zigbee_R&D_by_Lab411\Microchip\ZigBeeStack\zAPS.c
                  __pa_63   0x00b3a4    program     static C:\Users\TienDat\Desktop\ActorHome\PIC18_Zigbee_v2\PIC18_Zigbee_R&D_by_Lab411\Microchip\ZigBeeStack\zMAC_MRF24J40.c
                  __pa_64   0x003d14    program     static C:\Users\TienDat\Desktop\ActorHome\PIC18_Zigbee_v2\PIC18_Zigbee_R&D_by_Lab411\Microchip\ZigBeeStack\zNWK.c
                  __pa_64   0x006c4a    program     static C:\Users\TienDat\Desktop\ActorHome\PIC18_Zigbee_v2\PIC18_Zigbee_R&D_by_Lab411\Microchip\ZigBeeStack\zZDO.c
                  __pa_64   0x009344    program     static C:\Users\TienDat\Desktop\ActorHome\PIC18_Zigbee_v2\PIC18_Zigbee_R&D_by_Lab411\Microchip\ZigBeeStack\zAPS.c
                  __pa_64   0x00b3ac    program     static C:\Users\TienDat\Desktop\ActorHome\PIC18_Zigbee_v2\PIC18_Zigbee_R&D_by_Lab411\Microchip\ZigBeeStack\zMAC_MRF24J40.c
                  __pa_65   0x003d1a    program     static C:\Users\TienDat\Desktop\ActorHome\PIC18_Zigbee_v2\PIC18_Zigbee_R&D_by_Lab411\Microchip\ZigBeeStack\zNWK.c
                  __pa_65   0x009354    program     static C:\Users\TienDat\Desktop\ActorHome\PIC18_Zigbee_v2\PIC18_Zigbee_R&D_by_Lab411\Microchip\ZigBeeStack\zAPS.c
                  __pa_65   0x00b3b4    program     static C:\Users\TienDat\Desktop\ActorHome\PIC18_Zigbee_v2\PIC18_Zigbee_R&D_by_Lab411\Microchip\ZigBeeStack\zMAC_MRF24J40.c
                  __pa_65   0x006c50    program     static C:\Users\TienDat\Desktop\ActorHome\PIC18_Zigbee_v2\PIC18_Zigbee_R&D_by_Lab411\Microchip\ZigBeeStack\zZDO.c
                  __pa_66   0x003d20    program     static C:\Users\TienDat\Desktop\ActorHome\PIC18_Zigbee_v2\PIC18_Zigbee_R&D_by_Lab411\Microchip\ZigBeeStack\zNWK.c
                  __pa_66   0x006c66    program     static C:\Users\TienDat\Desktop\ActorHome\PIC18_Zigbee_v2\PIC18_Zigbee_R&D_by_Lab411\Microchip\ZigBeeStack\zZDO.c
                  __pa_66   0x009364    program     static C:\Users\TienDat\Desktop\ActorHome\PIC18_Zigbee_v2\PIC18_Zigbee_R&D_by_Lab411\Microchip\ZigBeeStack\zAPS.c
                  __pa_66   0x00b3bc    program     static C:\Users\TienDat\Desktop\ActorHome\PIC18_Zigbee_v2\PIC18_Zigbee_R&D_by_Lab411\Microchip\ZigBeeStack\zMAC_MRF24J40.c
                  __pa_67   0x009374    program     static C:\Users\TienDat\Desktop\ActorHome\PIC18_Zigbee_v2\PIC18_Zigbee_R&D_by_Lab411\Microchip\ZigBeeStack\zAPS.c
                  __pa_67   0x003d2e    program     static C:\Users\TienDat\Desktop\ActorHome\PIC18_Zigbee_v2\PIC18_Zigbee_R&D_by_Lab411\Microchip\ZigBeeStack\zNWK.c
                  __pa_67   0x00b3d8    program     static C:\Users\TienDat\Desktop\ActorHome\PIC18_Zigbee_v2\PIC18_Zigbee_R&D_by_Lab411\Microchip\ZigBeeStack\zMAC_MRF24J40.c
                  __pa_67   0x006c76    program     static C:\Users\TienDat\Desktop\ActorHome\PIC18_Zigbee_v2\PIC18_Zigbee_R&D_by_Lab411\Microchip\ZigBeeStack\zZDO.c
                  __pa_68   0x00937a    program     static C:\Users\TienDat\Desktop\ActorHome\PIC18_Zigbee_v2\PIC18_Zigbee_R&D_by_Lab411\Microchip\ZigBeeStack\zAPS.c
                  __pa_68   0x003d3c    program     static C:\Users\TienDat\Desktop\ActorHome\PIC18_Zigbee_v2\PIC18_Zigbee_R&D_by_Lab411\Microchip\ZigBeeStack\zNWK.c
                  __pa_68   0x006c82    program     static C:\Users\TienDat\Desktop\ActorHome\PIC18_Zigbee_v2\PIC18_Zigbee_R&D_by_Lab411\Microchip\ZigBeeStack\zZDO.c
                  __pa_68   0x00b3e4    program     static C:\Users\TienDat\Desktop\ActorHome\PIC18_Zigbee_v2\PIC18_Zigbee_R&D_by_Lab411\Microchip\ZigBeeStack\zMAC_MRF24J40.c
                  __pa_69   0x009388    program     static C:\Users\TienDat\Desktop\ActorHome\PIC18_Zigbee_v2\PIC18_Zigbee_R&D_by_Lab411\Microchip\ZigBeeStack\zAPS.c
                  __pa_69   0x003d44    program     static C:\Users\TienDat\Desktop\ActorHome\PIC18_Zigbee_v2\PIC18_Zigbee_R&D_by_Lab411\Microchip\ZigBeeStack\zNWK.c
                  __pa_69   0x006c90    program     static C:\Users\TienDat\Desktop\ActorHome\PIC18_Zigbee_v2\PIC18_Zigbee_R&D_by_Lab411\Microchip\ZigBeeStack\zZDO.c
                  __pa_69   0x00b40c    program     static C:\Users\TienDat\Desktop\ActorHome\PIC18_Zigbee_v2\PIC18_Zigbee_R&D_by_Lab411\Microchip\ZigBeeStack\zMAC_MRF24J40.c
                   __pa_7   0x00dade    program     static C:\Users\TienDat\Desktop\ActorHome\PIC18_Zigbee_v2\PIC18_Zigbee_R&D_by_Lab411\Microchip\Common\sralloc.c
                   __pa_7   0x0039f8    program     static C:\Users\TienDat\Desktop\ActorHome\PIC18_Zigbee_v2\PIC18_Zigbee_R&D_by_Lab411\Microchip\ZigBeeStack\zNWK.c
                   __pa_7   0x00b04e    program     static C:\Users\TienDat\Desktop\ActorHome\PIC18_Zigbee_v2\PIC18_Zigbee_R&D_by_Lab411\Microchip\ZigBeeStack\zMAC_MRF24J40.c
                   __pa_7   0x009062    program     static C:\Users\TienDat\Desktop\ActorHome\PIC18_Zigbee_v2\PIC18_Zigbee_R&D_by_Lab411\Microchip\ZigBeeStack\zAPS.c
                   __pa_7   0x00c73a    program     static C:\Users\TienDat\Desktop\ActorHome\PIC18_Zigbee_v2\PIC18_Zigbee_R&D_by_Lab411\DemoPIC18Router\Router.c
                   __pa_7   0x00d576    program     static C:\Users\TienDat\Desktop\ActorHome\PIC18_Zigbee_v2\PIC18_Zigbee_R&D_by_Lab411\Microchip\Common\SHT1x.c
                   __pa_7   0x0068c0    program     static C:\Users\TienDat\Desktop\ActorHome\PIC18_Zigbee_v2\PIC18_Zigbee_R&D_by_Lab411\Microchip\ZigBeeStack\zZDO.c
                  __pa_70   0x00b422    program     static C:\Users\TienDat\Desktop\ActorHome\PIC18_Zigbee_v2\PIC18_Zigbee_R&D_by_Lab411\Microchip\ZigBeeStack\zMAC_MRF24J40.c
                  __pa_70   0x003d4c    program     static C:\Users\TienDat\Desktop\ActorHome\PIC18_Zigbee_v2\PIC18_Zigbee_R&D_by_Lab411\Microchip\ZigBeeStack\zNWK.c
                  __pa_70   0x006c98    program     static C:\Users\TienDat\Desktop\ActorHome\PIC18_Zigbee_v2\PIC18_Zigbee_R&D_by_Lab411\Microchip\ZigBeeStack\zZDO.c
                  __pa_70   0x009390    program     static C:\Users\TienDat\Desktop\ActorHome\PIC18_Zigbee_v2\PIC18_Zigbee_R&D_by_Lab411\Microchip\ZigBeeStack\zAPS.c
                  __pa_71   0x006ca0    program     static C:\Users\TienDat\Desktop\ActorHome\PIC18_Zigbee_v2\PIC18_Zigbee_R&D_by_Lab411\Microchip\ZigBeeStack\zZDO.c
                  __pa_71   0x003d54    program     static C:\Users\TienDat\Desktop\ActorHome\PIC18_Zigbee_v2\PIC18_Zigbee_R&D_by_Lab411\Microchip\ZigBeeStack\zNWK.c
                  __pa_71   0x009396    program     static C:\Users\TienDat\Desktop\ActorHome\PIC18_Zigbee_v2\PIC18_Zigbee_R&D_by_Lab411\Microchip\ZigBeeStack\zAPS.c
                  __pa_71   0x00b42c    program     static C:\Users\TienDat\Desktop\ActorHome\PIC18_Zigbee_v2\PIC18_Zigbee_R&D_by_Lab411\Microchip\ZigBeeStack\zMAC_MRF24J40.c
                  __pa_72   0x0093a4    program     static C:\Users\TienDat\Desktop\ActorHome\PIC18_Zigbee_v2\PIC18_Zigbee_R&D_by_Lab411\Microchip\ZigBeeStack\zAPS.c
                  __pa_72   0x00b434    program     static C:\Users\TienDat\Desktop\ActorHome\PIC18_Zigbee_v2\PIC18_Zigbee_R&D_by_Lab411\Microchip\ZigBeeStack\zMAC_MRF24J40.c
                  __pa_72   0x003d5e    program     static C:\Users\TienDat\Desktop\ActorHome\PIC18_Zigbee_v2\PIC18_Zigbee_R&D_by_Lab411\Microchip\ZigBeeStack\zNWK.c
                  __pa_72   0x006cae    program     static C:\Users\TienDat\Desktop\ActorHome\PIC18_Zigbee_v2\PIC18_Zigbee_R&D_by_Lab411\Microchip\ZigBeeStack\zZDO.c
                  __pa_73   0x003d78    program     static C:\Users\TienDat\Desktop\ActorHome\PIC18_Zigbee_v2\PIC18_Zigbee_R&D_by_Lab411\Microchip\ZigBeeStack\zNWK.c
                  __pa_73   0x00b450    program     static C:\Users\TienDat\Desktop\ActorHome\PIC18_Zigbee_v2\PIC18_Zigbee_R&D_by_Lab411\Microchip\ZigBeeStack\zMAC_MRF24J40.c
                  __pa_73   0x0093b2    program     static C:\Users\TienDat\Desktop\ActorHome\PIC18_Zigbee_v2\PIC18_Zigbee_R&D_by_Lab411\Microchip\ZigBeeStack\zAPS.c
                  __pa_73   0x006cbc    program     static C:\Users\TienDat\Desktop\ActorHome\PIC18_Zigbee_v2\PIC18_Zigbee_R&D_by_Lab411\Microchip\ZigBeeStack\zZDO.c
                  __pa_74   0x006cc2    program     static C:\Users\TienDat\Desktop\ActorHome\PIC18_Zigbee_v2\PIC18_Zigbee_R&D_by_Lab411\Microchip\ZigBeeStack\zZDO.c
                  __pa_74   0x003d88    program     static C:\Users\TienDat\Desktop\ActorHome\PIC18_Zigbee_v2\PIC18_Zigbee_R&D_by_Lab411\Microchip\ZigBeeStack\zNWK.c
                  __pa_74   0x00b456    program     static C:\Users\TienDat\Desktop\ActorHome\PIC18_Zigbee_v2\PIC18_Zigbee_R&D_by_Lab411\Microchip\ZigBeeStack\zMAC_MRF24J40.c
                  __pa_74   0x0093ba    program     static C:\Users\TienDat\Desktop\ActorHome\PIC18_Zigbee_v2\PIC18_Zigbee_R&D_by_Lab411\Microchip\ZigBeeStack\zAPS.c
                  __pa_75   0x006cca    program     static C:\Users\TienDat\Desktop\ActorHome\PIC18_Zigbee_v2\PIC18_Zigbee_R&D_by_Lab411\Microchip\ZigBeeStack\zZDO.c
                  __pa_75   0x00b462    program     static C:\Users\TienDat\Desktop\ActorHome\PIC18_Zigbee_v2\PIC18_Zigbee_R&D_by_Lab411\Microchip\ZigBeeStack\zMAC_MRF24J40.c
                  __pa_75   0x0093c4    program     static C:\Users\TienDat\Desktop\ActorHome\PIC18_Zigbee_v2\PIC18_Zigbee_R&D_by_Lab411\Microchip\ZigBeeStack\zAPS.c
                  __pa_75   0x003d92    program     static C:\Users\TienDat\Desktop\ActorHome\PIC18_Zigbee_v2\PIC18_Zigbee_R&D_by_Lab411\Microchip\ZigBeeStack\zNWK.c
                  __pa_76   0x0093d2    program     static C:\Users\TienDat\Desktop\ActorHome\PIC18_Zigbee_v2\PIC18_Zigbee_R&D_by_Lab411\Microchip\ZigBeeStack\zAPS.c
                  __pa_76   0x003d9c    program     static C:\Users\TienDat\Desktop\ActorHome\PIC18_Zigbee_v2\PIC18_Zigbee_R&D_by_Lab411\Microchip\ZigBeeStack\zNWK.c
                  __pa_76   0x00b472    program     static C:\Users\TienDat\Desktop\ActorHome\PIC18_Zigbee_v2\PIC18_Zigbee_R&D_by_Lab411\Microchip\ZigBeeStack\zMAC_MRF24J40.c
                  __pa_76   0x006cd8    program     static C:\Users\TienDat\Desktop\ActorHome\PIC18_Zigbee_v2\PIC18_Zigbee_R&D_by_Lab411\Microchip\ZigBeeStack\zZDO.c
                  __pa_77   0x0093d8    program     static C:\Users\TienDat\Desktop\ActorHome\PIC18_Zigbee_v2\PIC18_Zigbee_R&D_by_Lab411\Microchip\ZigBeeStack\zAPS.c
                  __pa_77   0x003dac    program     static C:\Users\TienDat\Desktop\ActorHome\PIC18_Zigbee_v2\PIC18_Zigbee_R&D_by_Lab411\Microchip\ZigBeeStack\zNWK.c
                  __pa_77   0x00b47e    program     static C:\Users\TienDat\Desktop\ActorHome\PIC18_Zigbee_v2\PIC18_Zigbee_R&D_by_Lab411\Microchip\ZigBeeStack\zMAC_MRF24J40.c
                  __pa_77   0x006ce0    program     static C:\Users\TienDat\Desktop\ActorHome\PIC18_Zigbee_v2\PIC18_Zigbee_R&D_by_Lab411\Microchip\ZigBeeStack\zZDO.c
                  __pa_78   0x006cee    program     static C:\Users\TienDat\Desktop\ActorHome\PIC18_Zigbee_v2\PIC18_Zigbee_R&D_by_Lab411\Microchip\ZigBeeStack\zZDO.c
                  __pa_78   0x003db6    program     static C:\Users\TienDat\Desktop\ActorHome\PIC18_Zigbee_v2\PIC18_Zigbee_R&D_by_Lab411\Microchip\ZigBeeStack\zNWK.c
                  __pa_78   0x00b48a    program     static C:\Users\TienDat\Desktop\ActorHome\PIC18_Zigbee_v2\PIC18_Zigbee_R&D_by_Lab411\Microchip\ZigBeeStack\zMAC_MRF24J40.c
                  __pa_78   0x0093e0    program     static C:\Users\TienDat\Desktop\ActorHome\PIC18_Zigbee_v2\PIC18_Zigbee_R&D_by_Lab411\Microchip\ZigBeeStack\zAPS.c
                  __pa_79   0x003dc0    program     static C:\Users\TienDat\Desktop\ActorHome\PIC18_Zigbee_v2\PIC18_Zigbee_R&D_by_Lab411\Microchip\ZigBeeStack\zNWK.c
                  __pa_79   0x006cfe    program     static C:\Users\TienDat\Desktop\ActorHome\PIC18_Zigbee_v2\PIC18_Zigbee_R&D_by_Lab411\Microchip\ZigBeeStack\zZDO.c
                  __pa_79   0x0093ea    program     static C:\Users\TienDat\Desktop\ActorHome\PIC18_Zigbee_v2\PIC18_Zigbee_R&D_by_Lab411\Microchip\ZigBeeStack\zAPS.c
                  __pa_79   0x00b496    program     static C:\Users\TienDat\Desktop\ActorHome\PIC18_Zigbee_v2\PIC18_Zigbee_R&D_by_Lab411\Microchip\ZigBeeStack\zMAC_MRF24J40.c
                   __pa_8   0x00906c    program     static C:\Users\TienDat\Desktop\ActorHome\PIC18_Zigbee_v2\PIC18_Zigbee_R&D_by_Lab411\Microchip\ZigBeeStack\zAPS.c
                   __pa_8   0x00daea    program     static C:\Users\TienDat\Desktop\ActorHome\PIC18_Zigbee_v2\PIC18_Zigbee_R&D_by_Lab411\Microchip\Common\sralloc.c
                   __pa_8   0x003a00    program     static C:\Users\TienDat\Desktop\ActorHome\PIC18_Zigbee_v2\PIC18_Zigbee_R&D_by_Lab411\Microchip\ZigBeeStack\zNWK.c
                   __pa_8   0x0068c6    program     static C:\Users\TienDat\Desktop\ActorHome\PIC18_Zigbee_v2\PIC18_Zigbee_R&D_by_Lab411\Microchip\ZigBeeStack\zZDO.c
                   __pa_8   0x00b054    program     static C:\Users\TienDat\Desktop\ActorHome\PIC18_Zigbee_v2\PIC18_Zigbee_R&D_by_Lab411\Microchip\ZigBeeStack\zMAC_MRF24J40.c
                   __pa_8   0x00c750    program     static C:\Users\TienDat\Desktop\ActorHome\PIC18_Zigbee_v2\PIC18_Zigbee_R&D_by_Lab411\DemoPIC18Router\Router.c
                  __pa_80   0x0093f2    program     static C:\Users\TienDat\Desktop\ActorHome\PIC18_Zigbee_v2\PIC18_Zigbee_R&D_by_Lab411\Microchip\ZigBeeStack\zAPS.c
                  __pa_80   0x00b49e    program     static C:\Users\TienDat\Desktop\ActorHome\PIC18_Zigbee_v2\PIC18_Zigbee_R&D_by_Lab411\Microchip\ZigBeeStack\zMAC_MRF24J40.c
                  __pa_80   0x006d0e    program     static C:\Users\TienDat\Desktop\ActorHome\PIC18_Zigbee_v2\PIC18_Zigbee_R&D_by_Lab411\Microchip\ZigBeeStack\zZDO.c
                  __pa_80   0x003dc8    program     static C:\Users\TienDat\Desktop\ActorHome\PIC18_Zigbee_v2\PIC18_Zigbee_R&D_by_Lab411\Microchip\ZigBeeStack\zNWK.c
                  __pa_81   0x00b4aa    program     static C:\Users\TienDat\Desktop\ActorHome\PIC18_Zigbee_v2\PIC18_Zigbee_R&D_by_Lab411\Microchip\ZigBeeStack\zMAC_MRF24J40.c
                  __pa_81   0x006d1c    program     static C:\Users\TienDat\Desktop\ActorHome\PIC18_Zigbee_v2\PIC18_Zigbee_R&D_by_Lab411\Microchip\ZigBeeStack\zZDO.c
                  __pa_81   0x003dd2    program     static C:\Users\TienDat\Desktop\ActorHome\PIC18_Zigbee_v2\PIC18_Zigbee_R&D_by_Lab411\Microchip\ZigBeeStack\zNWK.c
                  __pa_81   0x0093fa    program     static C:\Users\TienDat\Desktop\ActorHome\PIC18_Zigbee_v2\PIC18_Zigbee_R&D_by_Lab411\Microchip\ZigBeeStack\zAPS.c
                  __pa_82   0x003de8    program     static C:\Users\TienDat\Desktop\ActorHome\PIC18_Zigbee_v2\PIC18_Zigbee_R&D_by_Lab411\Microchip\ZigBeeStack\zNWK.c
                  __pa_82   0x009400    program     static C:\Users\TienDat\Desktop\ActorHome\PIC18_Zigbee_v2\PIC18_Zigbee_R&D_by_Lab411\Microchip\ZigBeeStack\zAPS.c
                  __pa_82   0x00b4b4    program     static C:\Users\TienDat\Desktop\ActorHome\PIC18_Zigbee_v2\PIC18_Zigbee_R&D_by_Lab411\Microchip\ZigBeeStack\zMAC_MRF24J40.c
                  __pa_82   0x006d28    program     static C:\Users\TienDat\Desktop\ActorHome\PIC18_Zigbee_v2\PIC18_Zigbee_R&D_by_Lab411\Microchip\ZigBeeStack\zZDO.c
                  __pa_83   0x006d3a    program     static C:\Users\TienDat\Desktop\ActorHome\PIC18_Zigbee_v2\PIC18_Zigbee_R&D_by_Lab411\Microchip\ZigBeeStack\zZDO.c
                  __pa_83   0x00b4ba    program     static C:\Users\TienDat\Desktop\ActorHome\PIC18_Zigbee_v2\PIC18_Zigbee_R&D_by_Lab411\Microchip\ZigBeeStack\zMAC_MRF24J40.c
                  __pa_83   0x003df8    program     static C:\Users\TienDat\Desktop\ActorHome\PIC18_Zigbee_v2\PIC18_Zigbee_R&D_by_Lab411\Microchip\ZigBeeStack\zNWK.c
                  __pa_83   0x009408    program     static C:\Users\TienDat\Desktop\ActorHome\PIC18_Zigbee_v2\PIC18_Zigbee_R&D_by_Lab411\Microchip\ZigBeeStack\zAPS.c
                  __pa_84   0x009410    program     static C:\Users\TienDat\Desktop\ActorHome\PIC18_Zigbee_v2\PIC18_Zigbee_R&D_by_Lab411\Microchip\ZigBeeStack\zAPS.c
                  __pa_84   0x006d4c    program     static C:\Users\TienDat\Desktop\ActorHome\PIC18_Zigbee_v2\PIC18_Zigbee_R&D_by_Lab411\Microchip\ZigBeeStack\zZDO.c
                  __pa_84   0x003e0e    program     static C:\Users\TienDat\Desktop\ActorHome\PIC18_Zigbee_v2\PIC18_Zigbee_R&D_by_Lab411\Microchip\ZigBeeStack\zNWK.c
                  __pa_84   0x00b4c2    program     static C:\Users\TienDat\Desktop\ActorHome\PIC18_Zigbee_v2\PIC18_Zigbee_R&D_by_Lab411\Microchip\ZigBeeStack\zMAC_MRF24J40.c
                  __pa_85   0x009418    program     static C:\Users\TienDat\Desktop\ActorHome\PIC18_Zigbee_v2\PIC18_Zigbee_R&D_by_Lab411\Microchip\ZigBeeStack\zAPS.c
                  __pa_85   0x006d56    program     static C:\Users\TienDat\Desktop\ActorHome\PIC18_Zigbee_v2\PIC18_Zigbee_R&D_by_Lab411\Microchip\ZigBeeStack\zZDO.c
                  __pa_85   0x003e1e    program     static C:\Users\TienDat\Desktop\ActorHome\PIC18_Zigbee_v2\PIC18_Zigbee_R&D_by_Lab411\Microchip\ZigBeeStack\zNWK.c
                  __pa_85   0x00b4ca    program     static C:\Users\TienDat\Desktop\ActorHome\PIC18_Zigbee_v2\PIC18_Zigbee_R&D_by_Lab411\Microchip\ZigBeeStack\zMAC_MRF24J40.c
                  __pa_86   0x006d68    program     static C:\Users\TienDat\Desktop\ActorHome\PIC18_Zigbee_v2\PIC18_Zigbee_R&D_by_Lab411\Microchip\ZigBeeStack\zZDO.c
                  __pa_86   0x003e2a    program     static C:\Users\TienDat\Desktop\ActorHome\PIC18_Zigbee_v2\PIC18_Zigbee_R&D_by_Lab411\Microchip\ZigBeeStack\zNWK.c
                  __pa_86   0x00b4d2    program     static C:\Users\TienDat\Desktop\ActorHome\PIC18_Zigbee_v2\PIC18_Zigbee_R&D_by_Lab411\Microchip\ZigBeeStack\zMAC_MRF24J40.c
                  __pa_86   0x00941e    program     static C:\Users\TienDat\Desktop\ActorHome\PIC18_Zigbee_v2\PIC18_Zigbee_R&D_by_Lab411\Microchip\ZigBeeStack\zAPS.c
                  __pa_87   0x003e32    program     static C:\Users\TienDat\Desktop\ActorHome\PIC18_Zigbee_v2\PIC18_Zigbee_R&D_by_Lab411\Microchip\ZigBeeStack\zNWK.c
                  __pa_87   0x00b4e2    program     static C:\Users\TienDat\Desktop\ActorHome\PIC18_Zigbee_v2\PIC18_Zigbee_R&D_by_Lab411\Microchip\ZigBeeStack\zMAC_MRF24J40.c
                  __pa_87   0x006d7a    program     static C:\Users\TienDat\Desktop\ActorHome\PIC18_Zigbee_v2\PIC18_Zigbee_R&D_by_Lab411\Microchip\ZigBeeStack\zZDO.c
                  __pa_87   0x009424    program     static C:\Users\TienDat\Desktop\ActorHome\PIC18_Zigbee_v2\PIC18_Zigbee_R&D_by_Lab411\Microchip\ZigBeeStack\zAPS.c
                  __pa_88   0x006d8c    program     static C:\Users\TienDat\Desktop\ActorHome\PIC18_Zigbee_v2\PIC18_Zigbee_R&D_by_Lab411\Microchip\ZigBeeStack\zZDO.c
                  __pa_88   0x00b4ee    program     static C:\Users\TienDat\Desktop\ActorHome\PIC18_Zigbee_v2\PIC18_Zigbee_R&D_by_Lab411\Microchip\ZigBeeStack\zMAC_MRF24J40.c
                  __pa_88   0x003e40    program     static C:\Users\TienDat\Desktop\ActorHome\PIC18_Zigbee_v2\PIC18_Zigbee_R&D_by_Lab411\Microchip\ZigBeeStack\zNWK.c
                  __pa_88   0x009434    program     static C:\Users\TienDat\Desktop\ActorHome\PIC18_Zigbee_v2\PIC18_Zigbee_R&D_by_Lab411\Microchip\ZigBeeStack\zAPS.c
                  __pa_89   0x00b4fc    program     static C:\Users\TienDat\Desktop\ActorHome\PIC18_Zigbee_v2\PIC18_Zigbee_R&D_by_Lab411\Microchip\ZigBeeStack\zMAC_MRF24J40.c
                  __pa_89   0x006d9e    program     static C:\Users\TienDat\Desktop\ActorHome\PIC18_Zigbee_v2\PIC18_Zigbee_R&D_by_Lab411\Microchip\ZigBeeStack\zZDO.c
                  __pa_89   0x003e4a    program     static C:\Users\TienDat\Desktop\ActorHome\PIC18_Zigbee_v2\PIC18_Zigbee_R&D_by_Lab411\Microchip\ZigBeeStack\zNWK.c
                  __pa_89   0x009444    program     static C:\Users\TienDat\Desktop\ActorHome\PIC18_Zigbee_v2\PIC18_Zigbee_R&D_by_Lab411\Microchip\ZigBeeStack\zAPS.c
                   __pa_9   0x009082    program     static C:\Users\TienDat\Desktop\ActorHome\PIC18_Zigbee_v2\PIC18_Zigbee_R&D_by_Lab411\Microchip\ZigBeeStack\zAPS.c
                   __pa_9   0x0068d2    program     static C:\Users\TienDat\Desktop\ActorHome\PIC18_Zigbee_v2\PIC18_Zigbee_R&D_by_Lab411\Microchip\ZigBeeStack\zZDO.c
                   __pa_9   0x00b05c    program     static C:\Users\TienDat\Desktop\ActorHome\PIC18_Zigbee_v2\PIC18_Zigbee_R&D_by_Lab411\Microchip\ZigBeeStack\zMAC_MRF24J40.c
                   __pa_9   0x003a26    program     static C:\Users\TienDat\Desktop\ActorHome\PIC18_Zigbee_v2\PIC18_Zigbee_R&D_by_Lab411\Microchip\ZigBeeStack\zNWK.c
                   __pa_9   0x00c75c    program     static C:\Users\TienDat\Desktop\ActorHome\PIC18_Zigbee_v2\PIC18_Zigbee_R&D_by_Lab411\DemoPIC18Router\Router.c
                  __pa_90   0x00944a    program     static C:\Users\TienDat\Desktop\ActorHome\PIC18_Zigbee_v2\PIC18_Zigbee_R&D_by_Lab411\Microchip\ZigBeeStack\zAPS.c
                  __pa_90   0x003e54    program     static C:\Users\TienDat\Desktop\ActorHome\PIC18_Zigbee_v2\PIC18_Zigbee_R&D_by_Lab411\Microchip\ZigBeeStack\zNWK.c
                  __pa_90   0x006db0    program     static C:\Users\TienDat\Desktop\ActorHome\PIC18_Zigbee_v2\PIC18_Zigbee_R&D_by_Lab411\Microchip\ZigBeeStack\zZDO.c
                  __pa_90   0x00b50a    program     static C:\Users\TienDat\Desktop\ActorHome\PIC18_Zigbee_v2\PIC18_Zigbee_R&D_by_Lab411\Microchip\ZigBeeStack\zMAC_MRF24J40.c
                  __pa_91   0x003e5e    program     static C:\Users\TienDat\Desktop\ActorHome\PIC18_Zigbee_v2\PIC18_Zigbee_R&D_by_Lab411\Microchip\ZigBeeStack\zNWK.c
                  __pa_91   0x009450    program     static C:\Users\TienDat\Desktop\ActorHome\PIC18_Zigbee_v2\PIC18_Zigbee_R&D_by_Lab411\Microchip\ZigBeeStack\zAPS.c
                  __pa_91   0x006dba    program     static C:\Users\TienDat\Desktop\ActorHome\PIC18_Zigbee_v2\PIC18_Zigbee_R&D_by_Lab411\Microchip\ZigBeeStack\zZDO.c
                  __pa_91   0x00b51a    program     static C:\Users\TienDat\Desktop\ActorHome\PIC18_Zigbee_v2\PIC18_Zigbee_R&D_by_Lab411\Microchip\ZigBeeStack\zMAC_MRF24J40.c
                  __pa_92   0x003e68    program     static C:\Users\TienDat\Desktop\ActorHome\PIC18_Zigbee_v2\PIC18_Zigbee_R&D_by_Lab411\Microchip\ZigBeeStack\zNWK.c
                  __pa_92   0x009460    program     static C:\Users\TienDat\Desktop\ActorHome\PIC18_Zigbee_v2\PIC18_Zigbee_R&D_by_Lab411\Microchip\ZigBeeStack\zAPS.c
                  __pa_92   0x00b528    program     static C:\Users\TienDat\Desktop\ActorHome\PIC18_Zigbee_v2\PIC18_Zigbee_R&D_by_Lab411\Microchip\ZigBeeStack\zMAC_MRF24J40.c
                  __pa_92   0x006dc4    program     static C:\Users\TienDat\Desktop\ActorHome\PIC18_Zigbee_v2\PIC18_Zigbee_R&D_by_Lab411\Microchip\ZigBeeStack\zZDO.c
                  __pa_93   0x003e7c    program     static C:\Users\TienDat\Desktop\ActorHome\PIC18_Zigbee_v2\PIC18_Zigbee_R&D_by_Lab411\Microchip\ZigBeeStack\zNWK.c
                  __pa_93   0x00946c    program     static C:\Users\TienDat\Desktop\ActorHome\PIC18_Zigbee_v2\PIC18_Zigbee_R&D_by_Lab411\Microchip\ZigBeeStack\zAPS.c
                  __pa_93   0x006dca    program     static C:\Users\TienDat\Desktop\ActorHome\PIC18_Zigbee_v2\PIC18_Zigbee_R&D_by_Lab411\Microchip\ZigBeeStack\zZDO.c
                  __pa_93   0x00b534    program     static C:\Users\TienDat\Desktop\ActorHome\PIC18_Zigbee_v2\PIC18_Zigbee_R&D_by_Lab411\Microchip\ZigBeeStack\zMAC_MRF24J40.c
                  __pa_94   0x006dd2    program     static C:\Users\TienDat\Desktop\ActorHome\PIC18_Zigbee_v2\PIC18_Zigbee_R&D_by_Lab411\Microchip\ZigBeeStack\zZDO.c
                  __pa_94   0x003e90    program     static C:\Users\TienDat\Desktop\ActorHome\PIC18_Zigbee_v2\PIC18_Zigbee_R&D_by_Lab411\Microchip\ZigBeeStack\zNWK.c
                  __pa_94   0x00b53c    program     static C:\Users\TienDat\Desktop\ActorHome\PIC18_Zigbee_v2\PIC18_Zigbee_R&D_by_Lab411\Microchip\ZigBeeStack\zMAC_MRF24J40.c
                  __pa_94   0x009472    program     static C:\Users\TienDat\Desktop\ActorHome\PIC18_Zigbee_v2\PIC18_Zigbee_R&D_by_Lab411\Microchip\ZigBeeStack\zAPS.c
                  __pa_95   0x003ea4    program     static C:\Users\TienDat\Desktop\ActorHome\PIC18_Zigbee_v2\PIC18_Zigbee_R&D_by_Lab411\Microchip\ZigBeeStack\zNWK.c
                  __pa_95   0x00b542    program     static C:\Users\TienDat\Desktop\ActorHome\PIC18_Zigbee_v2\PIC18_Zigbee_R&D_by_Lab411\Microchip\ZigBeeStack\zMAC_MRF24J40.c
                  __pa_95   0x009488    program     static C:\Users\TienDat\Desktop\ActorHome\PIC18_Zigbee_v2\PIC18_Zigbee_R&D_by_Lab411\Microchip\ZigBeeStack\zAPS.c
                  __pa_95   0x006dde    program     static C:\Users\TienDat\Desktop\ActorHome\PIC18_Zigbee_v2\PIC18_Zigbee_R&D_by_Lab411\Microchip\ZigBeeStack\zZDO.c
                  __pa_96   0x0094a2    program     static C:\Users\TienDat\Desktop\ActorHome\PIC18_Zigbee_v2\PIC18_Zigbee_R&D_by_Lab411\Microchip\ZigBeeStack\zAPS.c
                  __pa_96   0x00b548    program     static C:\Users\TienDat\Desktop\ActorHome\PIC18_Zigbee_v2\PIC18_Zigbee_R&D_by_Lab411\Microchip\ZigBeeStack\zMAC_MRF24J40.c
                  __pa_96   0x003eb8    program     static C:\Users\TienDat\Desktop\ActorHome\PIC18_Zigbee_v2\PIC18_Zigbee_R&D_by_Lab411\Microchip\ZigBeeStack\zNWK.c
                  __pa_96   0x006dea    program     static C:\Users\TienDat\Desktop\ActorHome\PIC18_Zigbee_v2\PIC18_Zigbee_R&D_by_Lab411\Microchip\ZigBeeStack\zZDO.c
                  __pa_97   0x0094b0    program     static C:\Users\TienDat\Desktop\ActorHome\PIC18_Zigbee_v2\PIC18_Zigbee_R&D_by_Lab411\Microchip\ZigBeeStack\zAPS.c
                  __pa_97   0x003ebe    program     static C:\Users\TienDat\Desktop\ActorHome\PIC18_Zigbee_v2\PIC18_Zigbee_R&D_by_Lab411\Microchip\ZigBeeStack\zNWK.c
                  __pa_97   0x006df6    program     static C:\Users\TienDat\Desktop\ActorHome\PIC18_Zigbee_v2\PIC18_Zigbee_R&D_by_Lab411\Microchip\ZigBeeStack\zZDO.c
                  __pa_97   0x00b552    program     static C:\Users\TienDat\Desktop\ActorHome\PIC18_Zigbee_v2\PIC18_Zigbee_R&D_by_Lab411\Microchip\ZigBeeStack\zMAC_MRF24J40.c
                  __pa_98   0x003ed2    program     static C:\Users\TienDat\Desktop\ActorHome\PIC18_Zigbee_v2\PIC18_Zigbee_R&D_by_Lab411\Microchip\ZigBeeStack\zNWK.c
                  __pa_98   0x006e02    program     static C:\Users\TienDat\Desktop\ActorHome\PIC18_Zigbee_v2\PIC18_Zigbee_R&D_by_Lab411\Microchip\ZigBeeStack\zZDO.c
                  __pa_98   0x0094c2    program     static C:\Users\TienDat\Desktop\ActorHome\PIC18_Zigbee_v2\PIC18_Zigbee_R&D_by_Lab411\Microchip\ZigBeeStack\zAPS.c
                  __pa_98   0x00b55a    program     static C:\Users\TienDat\Desktop\ActorHome\PIC18_Zigbee_v2\PIC18_Zigbee_R&D_by_Lab411\Microchip\ZigBeeStack\zMAC_MRF24J40.c
                  __pa_99   0x006e0a    program     static C:\Users\TienDat\Desktop\ActorHome\PIC18_Zigbee_v2\PIC18_Zigbee_R&D_by_Lab411\Microchip\ZigBeeStack\zZDO.c
                  __pa_99   0x00b56e    program     static C:\Users\TienDat\Desktop\ActorHome\PIC18_Zigbee_v2\PIC18_Zigbee_R&D_by_Lab411\Microchip\ZigBeeStack\zMAC_MRF24J40.c
                  __pa_99   0x0094c6    program     static C:\Users\TienDat\Desktop\ActorHome\PIC18_Zigbee_v2\PIC18_Zigbee_R&D_by_Lab411\Microchip\ZigBeeStack\zAPS.c
                  __pa_99   0x003ede    program     static C:\Users\TienDat\Desktop\ActorHome\PIC18_Zigbee_v2\PIC18_Zigbee_R&D_by_Lab411\Microchip\ZigBeeStack\zNWK.c
               __tmplbl_0   0x00cd38    program     static                          
               __tmplbl_0   0x00cb20    program     static                          
               __tmplbl_1   0x00cd32    program     static                          
               __tmplbl_1   0x00be3a    program     static                          
               __tmplbl_1   0x00cb18    program     static                          
             __tmplbl_100   0x00aba2    program     static                          
             __tmplbl_103   0x008470    program     static                          
             __tmplbl_104   0x008470    program     static                          
             __tmplbl_104   0x0050c2    program     static                          
             __tmplbl_104   0x00afaa    program     static                          
             __tmplbl_105   0x008470    program     static                          
             __tmplbl_105   0x00afaa    program     static                          
             __tmplbl_106   0x00afaa    program     static                          
             __tmplbl_106   0x008460    program     static                          
             __tmplbl_107   0x0083d8    program     static                          
             __tmplbl_108   0x0050bc    program     static                          
             __tmplbl_108   0x0083c4    program     static                          
             __tmplbl_109   0x00aee6    program     static                          
             __tmplbl_109   0x0083b4    program     static                          
             __tmplbl_110   0x0083a4    program     static                          
             __tmplbl_110   0x00afaa    program     static                          
             __tmplbl_112   0x008470    program     static                          
             __tmplbl_113   0x008470    program     static                          
             __tmplbl_117   0x00afaa    program     static                          
             __tmplbl_119   0x008472    program     static                          
             __tmplbl_119   0x00afa8    program     static                          
             __tmplbl_130   0x005b0c    program     static                          
             __tmplbl_132   0x00a684    program     static                          
             __tmplbl_134   0x0090cc    program     static                          
             __tmplbl_135   0x0090cc    program     static                          
             __tmplbl_136   0x005b0c    program     static                          
             __tmplbl_136   0x0090cc    program     static                          
             __tmplbl_137   0x005b0a    program     static                          
             __tmplbl_138   0x005b0c    program     static                          
             __tmplbl_139   0x005b0a    program     static                          
             __tmplbl_140   0x005b0a    program     static                          
             __tmplbl_141   0x005b0a    program     static                          
             __tmplbl_142   0x005b0c    program     static                          
             __tmplbl_143   0x005aec    program     static                          
             __tmplbl_144   0x005ace    program     static                          
             __tmplbl_145   0x00592c    program     static                          
             __tmplbl_146   0x005b0a    program     static                          
             __tmplbl_152   0x005b0c    program     static                          
             __tmplbl_192   0x006934    program     static                          
             __tmplbl_193   0x006934    program     static                          
             __tmplbl_194   0x006934    program     static                          
             __tmplbl_197   0x006934    program     static                          
               __tmplbl_2   0x00cd30    program     static                          
               __tmplbl_2   0x00cb10    program     static                          
               __tmplbl_2   0x00be30    program     static                          
             __tmplbl_202   0x006934    program     static                          
             __tmplbl_203   0x006934    program     static                          
             __tmplbl_206   0x003a94    program     static                          
             __tmplbl_208   0x000ae2    program     static                          
             __tmplbl_209   0x00282e    program     static                          
             __tmplbl_210   0x0072aa    program     static                          
             __tmplbl_217   0x00282e    program     static                          
             __tmplbl_218   0x00248e    program     static                          
             __tmplbl_219   0x002a0a    program     static                          
             __tmplbl_220   0x002a0a    program     static                          
             __tmplbl_225   0x0029fe    program     static                          
             __tmplbl_226   0x0029fe    program     static                          
             __tmplbl_229   0x002486    program     static                          
             __tmplbl_230   0x002a0a    program     static                          
             __tmplbl_231   0x00293a    program     static                          
             __tmplbl_233   0x002742    program     static                          
             __tmplbl_235   0x0022bc    program     static                          
             __tmplbl_236   0x00282e    program     static                          
             __tmplbl_238   0x0028b0    program     static                          
             __tmplbl_239   0x00282e    program     static                          
             __tmplbl_240   0x002894    program     static                          
             __tmplbl_241   0x002892    program     static                          
             __tmplbl_242   0x00282e    program     static                          
             __tmplbl_243   0x0029fe    program     static                          
             __tmplbl_244   0x0028de    program     static                          
             __tmplbl_245   0x0028ba    program     static                          
             __tmplbl_246   0x0028b0    program     static                          
             __tmplbl_247   0x0027b8    program     static                          
             __tmplbl_248   0x00278a    program     static                          
             __tmplbl_249   0x002612    program     static                          
             __tmplbl_250   0x0025cc    program     static                          
             __tmplbl_251   0x002582    program     static                          
             __tmplbl_252   0x002578    program     static                          
             __tmplbl_253   0x0024e0    program     static                          
             __tmplbl_254   0x0022e4    program     static                          
             __tmplbl_255   0x0022ce    program     static                          
             __tmplbl_256   0x0022c0    program     static                          
             __tmplbl_257   0x002296    program     static                          
             __tmplbl_258   0x001f82    program     static                          
             __tmplbl_259   0x001ebe    program     static                          
             __tmplbl_260   0x001e9a    program     static                          
             __tmplbl_261   0x001d90    program     static                          
             __tmplbl_262   0x001d16    program     static                          
             __tmplbl_263   0x001c08    program     static                          
             __tmplbl_264   0x001ba0    program     static                          
             __tmplbl_265   0x002a0e    program     static                          
             __tmplbl_266   0x002a0a    program     static                          
             __tmplbl_267   0x00282e    program     static                          
             __tmplbl_268   0x002a10    program     static                          
             __tmplbl_270   0x001e92    program     static                          
             __tmplbl_274   0x001e92    program     static                          
             __tmplbl_278   0x001e92    program     static                          
             __tmplbl_281   0x00282e    program     static                          
             __tmplbl_283   0x001e92    program     static                          
             __tmplbl_284   0x00282e    program     static                          
             __tmplbl_288   0x001e92    program     static                          
             __tmplbl_289   0x001e92    program     static                          
             __tmplbl_290   0x001e92    program     static                          
             __tmplbl_291   0x001e92    program     static                          
             __tmplbl_292   0x001e92    program     static                          
             __tmplbl_293   0x00282e    program     static                          
             __tmplbl_294   0x002a0a    program     static                          
             __tmplbl_295   0x001b98    program     static                          
             __tmplbl_296   0x001b98    program     static                          
             __tmplbl_297   0x001b94    program     static                          
             __tmplbl_298   0x001e92    program     static                          
             __tmplbl_299   0x001e92    program     static                          
               __tmplbl_3   0x00be28    program     static                          
               __tmplbl_3   0x00cb08    program     static                          
              __tmplbl_30   0x00b264    program     static                          
             __tmplbl_300   0x001e92    program     static                          
             __tmplbl_301   0x001e92    program     static                          
             __tmplbl_302   0x0028ac    program     static                          
             __tmplbl_303   0x001d86    program     static                          
             __tmplbl_304   0x001e92    program     static                          
             __tmplbl_305   0x001e92    program     static                          
             __tmplbl_306   0x001e92    program     static                          
             __tmplbl_309   0x001e92    program     static                          
              __tmplbl_31   0x00b264    program     static                          
             __tmplbl_312   0x00282e    program     static                          
             __tmplbl_314   0x00282e    program     static                          
             __tmplbl_315   0x00282e    program     static                          
             __tmplbl_316   0x00282e    program     static                          
             __tmplbl_317   0x0028ac    program     static                          
             __tmplbl_318   0x00282e    program     static                          
             __tmplbl_319   0x002742    program     static                          
             __tmplbl_320   0x002742    program     static                          
             __tmplbl_321   0x002a0a    program     static                          
             __tmplbl_322   0x002a0a    program     static                          
             __tmplbl_323   0x00241e    program     static                          
             __tmplbl_326   0x00282e    program     static                          
             __tmplbl_329   0x00282e    program     static                          
             __tmplbl_330   0x002a06    program     static                          
             __tmplbl_331   0x002940    program     static                          
             __tmplbl_332   0x002a10    program     static                          
             __tmplbl_337   0x002a0a    program     static                          
             __tmplbl_338   0x002a10    program     static                          
             __tmplbl_339   0x00266a    program     static                          
              __tmplbl_34   0x00a1d2    program     static                          
             __tmplbl_341   0x002742    program     static                          
             __tmplbl_342   0x00284a    program     static                          
             __tmplbl_343   0x00284a    program     static                          
             __tmplbl_344   0x0028aa    program     static                          
             __tmplbl_345   0x002a10    program     static                          
             __tmplbl_349   0x00282e    program     static                          
             __tmplbl_350   0x002a0e    program     static                          
             __tmplbl_351   0x002a10    program     static                          
             __tmplbl_353   0x0028ac    program     static                          
             __tmplbl_354   0x002a10    program     static                          
             __tmplbl_379   0x003a94    program     static                          
              __tmplbl_38   0x00a944    program     static                          
             __tmplbl_382   0x003a94    program     static                          
             __tmplbl_383   0x003a94    program     static                          
             __tmplbl_384   0x003a94    program     static                          
             __tmplbl_385   0x003a94    program     static                          
             __tmplbl_386   0x003a94    program     static                          
             __tmplbl_387   0x003a94    program     static                          
             __tmplbl_388   0x003a94    program     static                          
             __tmplbl_390   0x003a94    program     static                          
               __tmplbl_4   0x00cb00    program     static                          
               __tmplbl_4   0x00c04e    program     static                          
              __tmplbl_40   0x00a672    program     static                          
             __tmplbl_401   0x004298    program     static                          
             __tmplbl_402   0x004298    program     static                          
             __tmplbl_403   0x004602    program     static                          
             __tmplbl_404   0x004612    program     static                          
             __tmplbl_405   0x0043ce    program     static                          
             __tmplbl_406   0x00469a    program     static                          
              __tmplbl_42   0x00af50    program     static                          
              __tmplbl_44   0x00ad60    program     static                          
              __tmplbl_47   0x00a232    program     static                          
              __tmplbl_48   0x00aba6    program     static                          
               __tmplbl_5   0x00cb76    program     static                          
               __tmplbl_5   0x00c038    program     static                          
              __tmplbl_50   0x00a92a    program     static                          
              __tmplbl_51   0x00a92a    program     static                          
              __tmplbl_52   0x00a944    program     static                          
              __tmplbl_57   0x00afaa    program     static                          
              __tmplbl_58   0x00a672    program     static                          
               __tmplbl_6   0x00cb6e    program     static                          
               __tmplbl_6   0x00c160    program     static                          
              __tmplbl_61   0x00aee6    program     static                          
              __tmplbl_66   0x00a92a    program     static                          
              __tmplbl_67   0x00afa8    program     static                          
              __tmplbl_68   0x00afa8    program     static                          
              __tmplbl_69   0x00afa8    program     static                          
               __tmplbl_7   0x00cb66    program     static                          
              __tmplbl_70   0x00afa8    program     static                          
              __tmplbl_71   0x00afaa    program     static                          
              __tmplbl_72   0x00af46    program     static                          
              __tmplbl_73   0x00af12    program     static                          
              __tmplbl_74   0x00ae56    program     static                          
              __tmplbl_75   0x00ae02    program     static                          
              __tmplbl_76   0x00ad66    program     static                          
              __tmplbl_77   0x00acda    program     static                          
              __tmplbl_78   0x00ac7e    program     static                          
              __tmplbl_79   0x00ac1a    program     static                          
               __tmplbl_8   0x00cb5e    program     static                          
              __tmplbl_80   0x00abae    program     static                          
              __tmplbl_82   0x00afa8    program     static                          
              __tmplbl_87   0x0090cc    program     static                          
              __tmplbl_87   0x00afaa    program     static                          
               __tmplbl_9   0x00cb56    program     static                          
              __tmplbl_91   0x007e2e    program     static                          
              __tmplbl_92   0x00afaa    program     static                          
              __tmplbl_92   0x007e2a    program     static                          
              __tmplbl_93   0x00afa8    program     static                          
              __tmplbl_94   0x00afa8    program     static                          
              __tmplbl_94   0x007e2e    program     static                          
              __tmplbl_97   0x00af50    program     static                          
              __tmplbl_99   0x00ad62    program     static                          
            __zero_memory   0x00e08e    program     extern D:\3.43\pic18-lt\cxx-framework\src\traditional\proc\p18f26k20.asm
                _do_cinit   0x00de78    program     extern D:\3.43\pic18-lt\cxx-framework\src\traditional\startup\c018i.c
                   _entry   0x000000    program     extern D:\3.43\pic18-lt\cxx-framework\src\traditional\startup\c018i.c
                 _startup   0x00e0ae    program     extern D:\3.43\pic18-lt\cxx-framework\src\traditional\startup\c018i.c
            apsAddressMap   0x00d20c    program     extern C:\Users\TienDat\Desktop\ActorHome\PIC18_Zigbee_v2\PIC18_Zigbee_R&D_by_Lab411\Microchip\ZigBeeStack\zNVM.c
 apsAddressMapValidityKey   0x00d20a    program     extern C:\Users\TienDat\Desktop\ActorHome\PIC18_Zigbee_v2\PIC18_Zigbee_R&D_by_Lab411\Microchip\ZigBeeStack\zNVM.c
          apsBindingTable   0x00cfa2    program     extern C:\Users\TienDat\Desktop\ActorHome\PIC18_Zigbee_v2\PIC18_Zigbee_R&D_by_Lab411\Microchip\ZigBeeStack\zNVM.c
     apsGroupAddressTable   0x00cfe2    program     extern C:\Users\TienDat\Desktop\ActorHome\PIC18_Zigbee_v2\PIC18_Zigbee_R&D_by_Lab411\Microchip\ZigBeeStack\zNVM.c
bindingTableSourceNodeMap   0x00cfe0    program     extern C:\Users\TienDat\Desktop\ActorHome\PIC18_Zigbee_v2\PIC18_Zigbee_R&D_by_Lab411\Microchip\ZigBeeStack\zNVM.c
     bindingTableUsageMap   0x00cfde    program     extern C:\Users\TienDat\Desktop\ActorHome\PIC18_Zigbee_v2\PIC18_Zigbee_R&D_by_Lab411\Microchip\ZigBeeStack\zNVM.c
       bindingValidityKey   0x00cfa0    program     extern C:\Users\TienDat\Desktop\ActorHome\PIC18_Zigbee_v2\PIC18_Zigbee_R&D_by_Lab411\Microchip\ZigBeeStack\zNVM.c
                compare_l   0x00e0a4    program     static D:\3.43\pic18-lt\cxx-framework\src\traditional\proc\p18f26k20.asm
                 config1H   0x300001    program     extern C:\Users\TienDat\Desktop\ActorHome\PIC18_Zigbee_v2\PIC18_Zigbee_R&D_by_Lab411\DemoPIC18Router\Router.c
                 config2H   0x300003    program     extern C:\Users\TienDat\Desktop\ActorHome\PIC18_Zigbee_v2\PIC18_Zigbee_R&D_by_Lab411\DemoPIC18Router\Router.c
                 config2L   0x300002    program     extern C:\Users\TienDat\Desktop\ActorHome\PIC18_Zigbee_v2\PIC18_Zigbee_R&D_by_Lab411\DemoPIC18Router\Router.c
                 config3H   0x300005    program     extern C:\Users\TienDat\Desktop\ActorHome\PIC18_Zigbee_v2\PIC18_Zigbee_R&D_by_Lab411\DemoPIC18Router\Router.c
                 config4L   0x300006    program     extern C:\Users\TienDat\Desktop\ActorHome\PIC18_Zigbee_v2\PIC18_Zigbee_R&D_by_Lab411\DemoPIC18Router\Router.c
                copy_loop   0x00deea    program     static                          
            copy_one_byte   0x00def0    program     static                          
                     done   0x00df14    program     static                          
             done_copying   0x00defe    program     static                          
                   filler   0x00cf60    program     extern C:\Users\TienDat\Desktop\ActorHome\PIC18_Zigbee_v2\PIC18_Zigbee_R&D_by_Lab411\Microchip\ZigBeeStack\zNVM.c
                  filler2   0x00d25c    program     extern C:\Users\TienDat\Desktop\ActorHome\PIC18_Zigbee_v2\PIC18_Zigbee_R&D_by_Lab411\Microchip\ZigBeeStack\zNVM.c
        handleActiveEPReq   0x006170    program     extern C:\Users\TienDat\Desktop\ActorHome\PIC18_Zigbee_v2\PIC18_Zigbee_R&D_by_Lab411\Microchip\ZigBeeStack\zZDO.c
       handleMatchDescReq   0x0061f2    program     extern C:\Users\TienDat\Desktop\ActorHome\PIC18_Zigbee_v2\PIC18_Zigbee_R&D_by_Lab411\Microchip\ZigBeeStack\zZDO.c
                  jAisNeg   0x00d712    program     static D:\3.43\pic18-lt\cxx-framework\src\traditional\math\compFP.asm
             jBothNotZero   0x00d6b4    program     static D:\3.43\pic18-lt\cxx-framework\src\traditional\math\compFP.asm
                      jEQ   0x00d6d0    program     static D:\3.43\pic18-lt\cxx-framework\src\traditional\math\compFP.asm
                     jEnd   0x00db86    program     static D:\3.43\pic18-lt\cxx-framework\src\traditional\stdclib\mcmpp2r.asm
                     jEnd   0x00dbcc    program     static D:\3.43\pic18-lt\cxx-framework\src\traditional\stdclib\memcpy.asm
                     jEnd   0x00db34    program     static D:\3.43\pic18-lt\cxx-framework\src\traditional\stdclib\memcmp.asm
                     jEnd   0x00dc22    program     static D:\3.43\pic18-lt\cxx-framework\src\traditional\stdclib\mcpyp2r.asm
                    jExch   0x00d6dc    program     static D:\3.43\pic18-lt\cxx-framework\src\traditional\math\compFP.asm
                   jExpEQ   0x00d722    program     static D:\3.43\pic18-lt\cxx-framework\src\traditional\math\compFP.asm
                   jFinal   0x00d706    program     static D:\3.43\pic18-lt\cxx-framework\src\traditional\math\compFP.asm
                jI2F32Beg   0x00d59c    program     static D:\3.43\pic18-lt\cxx-framework\src\traditional\math\cast32FP.asm
                    jLoop   0x00db18    program     static D:\3.43\pic18-lt\cxx-framework\src\traditional\stdclib\memcmp.asm
                    jLoop   0x00db68    program     static D:\3.43\pic18-lt\cxx-framework\src\traditional\stdclib\mcmpp2r.asm
                    jLoop   0x00dc04    program     static D:\3.43\pic18-lt\cxx-framework\src\traditional\stdclib\mcpyp2r.asm
                    jLoop   0x00dbb0    program     static D:\3.43\pic18-lt\cxx-framework\src\traditional\stdclib\memcpy.asm
                      jNE   0x00d6d4    program     static D:\3.43\pic18-lt\cxx-framework\src\traditional\math\compFP.asm
                  jNoExch   0x00d6fc    program     static D:\3.43\pic18-lt\cxx-framework\src\traditional\math\compFP.asm
                  jPkLoop   0x00d786    program     static D:\3.43\pic18-lt\cxx-framework\src\traditional\math\packFP.asm
             jPkRoundDone   0x00d7d0    program     static D:\3.43\pic18-lt\cxx-framework\src\traditional\math\packFP.asm
               jPkRoundIt   0x00d7b8    program     static D:\3.43\pic18-lt\cxx-framework\src\traditional\math\packFP.asm
             jPkShiftDone   0x00d7a2    program     static D:\3.43\pic18-lt\cxx-framework\src\traditional\math\packFP.asm
           jReturnPosInf0   0x00d75c    program     static D:\3.43\pic18-lt\cxx-framework\src\traditional\math\packFP.asm
                  jRotate   0x00d72e    program     static D:\3.43\pic18-lt\cxx-framework\src\traditional\math\compFP.asm
                   jShift   0x00d718    program     static D:\3.43\pic18-lt\cxx-framework\src\traditional\math\compFP.asm
                 jSignsEQ   0x00d6b8    program     static D:\3.43\pic18-lt\cxx-framework\src\traditional\math\compFP.asm
                  jUnpkA1   0x00d7fa    program     static D:\3.43\pic18-lt\cxx-framework\src\traditional\math\UnpackFP.asm
                  jUnpkA2   0x00d812    program     static D:\3.43\pic18-lt\cxx-framework\src\traditional\math\UnpackFP.asm
                 jUnpkANZ   0x00d808    program     static D:\3.43\pic18-lt\cxx-framework\src\traditional\math\UnpackFP.asm
                  jUnpkB1   0x00d82a    program     static D:\3.43\pic18-lt\cxx-framework\src\traditional\math\UnpackFP.asm
                  jUnpkB2   0x00d842    program     static D:\3.43\pic18-lt\cxx-framework\src\traditional\math\UnpackFP.asm
                 jUnpkBNZ   0x00d838    program     static D:\3.43\pic18-lt\cxx-framework\src\traditional\math\UnpackFP.asm
                 jUnpkNaN   0x00d81c    program     static D:\3.43\pic18-lt\cxx-framework\src\traditional\math\UnpackFP.asm
               jZero1and2   0x00d760    program     static D:\3.43\pic18-lt\cxx-framework\src\traditional\math\packFP.asm
                     loop   0x00e0be    program     static                          
                   loop_h   0x00e09c    program     static D:\3.43\pic18-lt\cxx-framework\src\traditional\proc\p18f26k20.asm
                   loop_l   0x00e0a6    program     static D:\3.43\pic18-lt\cxx-framework\src\traditional\proc\p18f26k20.asm
              macLongAddr   0x00cf58    program     extern C:\Users\TienDat\Desktop\ActorHome\PIC18_Zigbee_v2\PIC18_Zigbee_R&D_by_Lab411\Microchip\ZigBeeStack\zNVM.c
                     main   0x00c184    program     extern C:\Users\TienDat\Desktop\ActorHome\PIC18_Zigbee_v2\PIC18_Zigbee_R&D_by_Lab411\DemoPIC18Router\Router.c
                   memcmp   0x00daf8    program     extern D:\3.43\pic18-lt\cxx-framework\src\traditional\stdclib\memcmp.asm
            memcmppgm2ram   0x00db4a    program     extern D:\3.43\pic18-lt\cxx-framework\src\traditional\stdclib\mcmpp2r.asm
                   memcpy   0x00db88    program     extern D:\3.43\pic18-lt\cxx-framework\src\traditional\stdclib\memcpy.asm
            memcpypgm2ram   0x00dbde    program     extern D:\3.43\pic18-lt\cxx-framework\src\traditional\stdclib\mcpyp2r.asm
            neighborTable   0x00d040    program     extern C:\Users\TienDat\Desktop\ActorHome\PIC18_Zigbee_v2\PIC18_Zigbee_R&D_by_Lab411\Microchip\ZigBeeStack\zNVM.c
        neighborTableInfo   0x00d032    program     extern C:\Users\TienDat\Desktop\ActorHome\PIC18_Zigbee_v2\PIC18_Zigbee_R&D_by_Lab411\Microchip\ZigBeeStack\zNVM.c
             routingTable   0x00d1d8    program     extern C:\Users\TienDat\Desktop\ActorHome\PIC18_Zigbee_v2\PIC18_Zigbee_R&D_by_Lab411\Microchip\ZigBeeStack\zNVM.c
        s_connectionreset   0x00d404    program     extern C:\Users\TienDat\Desktop\ActorHome\PIC18_Zigbee_v2\PIC18_Zigbee_R&D_by_Lab411\Microchip\Common\SHT1x.c
                s_measure   0x00d2b4    program     extern C:\Users\TienDat\Desktop\ActorHome\PIC18_Zigbee_v2\PIC18_Zigbee_R&D_by_Lab411\Microchip\Common\SHT1x.c
              s_read_byte   0x00d43e    program     extern C:\Users\TienDat\Desktop\ActorHome\PIC18_Zigbee_v2\PIC18_Zigbee_R&D_by_Lab411\Microchip\Common\SHT1x.c
              s_softreset   0x00d29c    program     extern C:\Users\TienDat\Desktop\ActorHome\PIC18_Zigbee_v2\PIC18_Zigbee_R&D_by_Lab411\Microchip\Common\SHT1x.c
             s_transstart   0x00d39e    program     extern C:\Users\TienDat\Desktop\ActorHome\PIC18_Zigbee_v2\PIC18_Zigbee_R&D_by_Lab411\Microchip\Common\SHT1x.c
             s_write_byte   0x00d4b8    program     extern C:\Users\TienDat\Desktop\ActorHome\PIC18_Zigbee_v2\PIC18_Zigbee_R&D_by_Lab411\Microchip\Common\SHT1x.c
                     test   0x00de92    program     static                          
                timeToAdd   0x00e052    program     extern C:\Users\TienDat\Desktop\ActorHome\PIC18_Zigbee_v2\PIC18_Zigbee_R&D_by_Lab411\Microchip\ZigBeeStack\zMAC_MRF24J40.c
               zero_block   0x00e09c    program     static D:\3.43\pic18-lt\cxx-framework\src\traditional\proc\p18f26k20.asm
                   ADCON0   0x000fc2       data     extern D:\3.43\pic18-lt\cxx-framework\src\traditional\proc\p18f26k20.asm
               ADCON0bits   0x000fc2       data     extern D:\3.43\pic18-lt\cxx-framework\src\traditional\proc\p18f26k20.asm
                   ADCON1   0x000fc1       data     extern D:\3.43\pic18-lt\cxx-framework\src\traditional\proc\p18f26k20.asm
               ADCON1bits   0x000fc1       data     extern D:\3.43\pic18-lt\cxx-framework\src\traditional\proc\p18f26k20.asm
                   ADCON2   0x000fc0       data     extern D:\3.43\pic18-lt\cxx-framework\src\traditional\proc\p18f26k20.asm
               ADCON2bits   0x000fc0       data     extern D:\3.43\pic18-lt\cxx-framework\src\traditional\proc\p18f26k20.asm
                    ADRES   0x000fc3       data     extern D:\3.43\pic18-lt\cxx-framework\src\traditional\proc\p18f26k20.asm
                   ADRESH   0x000fc4       data     extern D:\3.43\pic18-lt\cxx-framework\src\traditional\proc\p18f26k20.asm
                   ADRESL   0x000fc3       data     extern D:\3.43\pic18-lt\cxx-framework\src\traditional\proc\p18f26k20.asm
                    ANSEL   0x000f7e       data     extern D:\3.43\pic18-lt\cxx-framework\src\traditional\proc\p18f26k20.asm
                   ANSELH   0x000f7f       data     extern D:\3.43\pic18-lt\cxx-framework\src\traditional\proc\p18f26k20.asm
               ANSELHbits   0x000f7f       data     extern D:\3.43\pic18-lt\cxx-framework\src\traditional\proc\p18f26k20.asm
                ANSELbits   0x000f7e       data     extern D:\3.43\pic18-lt\cxx-framework\src\traditional\proc\p18f26k20.asm
               APSCounter   0x000f00       data     extern C:\Users\TienDat\Desktop\ActorHome\PIC18_Zigbee_v2\PIC18_Zigbee_R&D_by_Lab411\Microchip\ZigBeeStack\zAPS.c
                AllowJoin   0x0000a9       data     extern C:\Users\TienDat\Desktop\ActorHome\PIC18_Zigbee_v2\PIC18_Zigbee_R&D_by_Lab411\DemoPIC18Router\Router.c
                  BAUDCON   0x000fb8       data     extern D:\3.43\pic18-lt\cxx-framework\src\traditional\proc\p18f26k20.asm
              BAUDCONbits   0x000fb8       data     extern D:\3.43\pic18-lt\cxx-framework\src\traditional\proc\p18f26k20.asm
                  BAUDCTL   0x000fb8       data     extern D:\3.43\pic18-lt\cxx-framework\src\traditional\proc\p18f26k20.asm
              BAUDCTLbits   0x000fb8       data     extern D:\3.43\pic18-lt\cxx-framework\src\traditional\proc\p18f26k20.asm
                      BSR   0x000fe0       data     extern D:\3.43\pic18-lt\cxx-framework\src\traditional\proc\p18f26k20.asm
                  CCP1CON   0x000fbd       data     extern D:\3.43\pic18-lt\cxx-framework\src\traditional\proc\p18f26k20.asm
              CCP1CONbits   0x000fbd       data     extern D:\3.43\pic18-lt\cxx-framework\src\traditional\proc\p18f26k20.asm
                  CCP2CON   0x000fba       data     extern D:\3.43\pic18-lt\cxx-framework\src\traditional\proc\p18f26k20.asm
              CCP2CONbits   0x000fba       data     extern D:\3.43\pic18-lt\cxx-framework\src\traditional\proc\p18f26k20.asm
                    CCPR1   0x000fbe       data     extern D:\3.43\pic18-lt\cxx-framework\src\traditional\proc\p18f26k20.asm
                   CCPR1H   0x000fbf       data     extern D:\3.43\pic18-lt\cxx-framework\src\traditional\proc\p18f26k20.asm
                   CCPR1L   0x000fbe       data     extern D:\3.43\pic18-lt\cxx-framework\src\traditional\proc\p18f26k20.asm
                    CCPR2   0x000fbb       data     extern D:\3.43\pic18-lt\cxx-framework\src\traditional\proc\p18f26k20.asm
                   CCPR2H   0x000fbc       data     extern D:\3.43\pic18-lt\cxx-framework\src\traditional\proc\p18f26k20.asm
                   CCPR2L   0x000fbb       data     extern D:\3.43\pic18-lt\cxx-framework\src\traditional\proc\p18f26k20.asm
                  CM1CON0   0x000f7b       data     extern D:\3.43\pic18-lt\cxx-framework\src\traditional\proc\p18f26k20.asm
              CM1CON0bits   0x000f7b       data     extern D:\3.43\pic18-lt\cxx-framework\src\traditional\proc\p18f26k20.asm
                  CM2CON0   0x000f7a       data     extern D:\3.43\pic18-lt\cxx-framework\src\traditional\proc\p18f26k20.asm
              CM2CON0bits   0x000f7a       data     extern D:\3.43\pic18-lt\cxx-framework\src\traditional\proc\p18f26k20.asm
                  CM2CON1   0x000f79       data     extern D:\3.43\pic18-lt\cxx-framework\src\traditional\proc\p18f26k20.asm
              CM2CON1bits   0x000f79       data     extern D:\3.43\pic18-lt\cxx-framework\src\traditional\proc\p18f26k20.asm
                   CVRCON   0x000fb5       data     extern D:\3.43\pic18-lt\cxx-framework\src\traditional\proc\p18f26k20.asm
                  CVRCON2   0x000fb4       data     extern D:\3.43\pic18-lt\cxx-framework\src\traditional\proc\p18f26k20.asm
              CVRCON2bits   0x000fb4       data     extern D:\3.43\pic18-lt\cxx-framework\src\traditional\proc\p18f26k20.asm
               CVRCONbits   0x000fb5       data     extern D:\3.43\pic18-lt\cxx-framework\src\traditional\proc\p18f26k20.asm
          CurrentRxPacket   0x000a80       data     extern C:\Users\TienDat\Desktop\ActorHome\PIC18_Zigbee_v2\PIC18_Zigbee_R&D_by_Lab411\Microchip\ZigBeeStack\ZigbeeTasks.c
                     DDRA   0x000f92       data     extern D:\3.43\pic18-lt\cxx-framework\src\traditional\proc\p18f26k20.asm
                 DDRAbits   0x000f92       data     extern D:\3.43\pic18-lt\cxx-framework\src\traditional\proc\p18f26k20.asm
                     DDRB   0x000f93       data     extern D:\3.43\pic18-lt\cxx-framework\src\traditional\proc\p18f26k20.asm
                 DDRBbits   0x000f93       data     extern D:\3.43\pic18-lt\cxx-framework\src\traditional\proc\p18f26k20.asm
                     DDRC   0x000f94       data     extern D:\3.43\pic18-lt\cxx-framework\src\traditional\proc\p18f26k20.asm
                 DDRCbits   0x000f94       data     extern D:\3.43\pic18-lt\cxx-framework\src\traditional\proc\p18f26k20.asm
                  ECCP1AS   0x000fb6       data     extern D:\3.43\pic18-lt\cxx-framework\src\traditional\proc\p18f26k20.asm
              ECCP1ASbits   0x000fb6       data     extern D:\3.43\pic18-lt\cxx-framework\src\traditional\proc\p18f26k20.asm
                    EEADR   0x000fa9       data     extern D:\3.43\pic18-lt\cxx-framework\src\traditional\proc\p18f26k20.asm
                   EEADRH   0x000faa       data     extern D:\3.43\pic18-lt\cxx-framework\src\traditional\proc\p18f26k20.asm
               EEADRHbits   0x000faa       data     extern D:\3.43\pic18-lt\cxx-framework\src\traditional\proc\p18f26k20.asm
                EEADRbits   0x000fa9       data     extern D:\3.43\pic18-lt\cxx-framework\src\traditional\proc\p18f26k20.asm
                   EECON1   0x000fa6       data     extern D:\3.43\pic18-lt\cxx-framework\src\traditional\proc\p18f26k20.asm
               EECON1bits   0x000fa6       data     extern D:\3.43\pic18-lt\cxx-framework\src\traditional\proc\p18f26k20.asm
                   EECON2   0x000fa7       data     extern D:\3.43\pic18-lt\cxx-framework\src\traditional\proc\p18f26k20.asm
                   EEDATA   0x000fa8       data     extern D:\3.43\pic18-lt\cxx-framework\src\traditional\proc\p18f26k20.asm
             Energy_Level   0x000090       data     extern C:\Users\TienDat\Desktop\ActorHome\PIC18_Zigbee_v2\PIC18_Zigbee_R&D_by_Lab411\DemoPIC18Router\Router.c
                     FSR0   0x000fe9       data     extern D:\3.43\pic18-lt\cxx-framework\src\traditional\proc\p18f26k20.asm
                    FSR0H   0x000fea       data     extern D:\3.43\pic18-lt\cxx-framework\src\traditional\proc\p18f26k20.asm
                    FSR0L   0x000fe9       data     extern D:\3.43\pic18-lt\cxx-framework\src\traditional\proc\p18f26k20.asm
                     FSR1   0x000fe1       data     extern D:\3.43\pic18-lt\cxx-framework\src\traditional\proc\p18f26k20.asm
                    FSR1H   0x000fe2       data     extern D:\3.43\pic18-lt\cxx-framework\src\traditional\proc\p18f26k20.asm
                    FSR1L   0x000fe1       data     extern D:\3.43\pic18-lt\cxx-framework\src\traditional\proc\p18f26k20.asm
                     FSR2   0x000fd9       data     extern D:\3.43\pic18-lt\cxx-framework\src\traditional\proc\p18f26k20.asm
                    FSR2H   0x000fda       data     extern D:\3.43\pic18-lt\cxx-framework\src\traditional\proc\p18f26k20.asm
                    FSR2L   0x000fd9       data     extern D:\3.43\pic18-lt\cxx-framework\src\traditional\proc\p18f26k20.asm
                  HLVDCON   0x000fd2       data     extern D:\3.43\pic18-lt\cxx-framework\src\traditional\proc\p18f26k20.asm
              HLVDCONbits   0x000fd2       data     extern D:\3.43\pic18-lt\cxx-framework\src\traditional\proc\p18f26k20.asm
                    INDF0   0x000fef       data     extern D:\3.43\pic18-lt\cxx-framework\src\traditional\proc\p18f26k20.asm
                    INDF1   0x000fe7       data     extern D:\3.43\pic18-lt\cxx-framework\src\traditional\proc\p18f26k20.asm
                    INDF2   0x000fdf       data     extern D:\3.43\pic18-lt\cxx-framework\src\traditional\proc\p18f26k20.asm
                   INTCON   0x000ff2       data     extern D:\3.43\pic18-lt\cxx-framework\src\traditional\proc\p18f26k20.asm
                  INTCON2   0x000ff1       data     extern D:\3.43\pic18-lt\cxx-framework\src\traditional\proc\p18f26k20.asm
              INTCON2bits   0x000ff1       data     extern D:\3.43\pic18-lt\cxx-framework\src\traditional\proc\p18f26k20.asm
                  INTCON3   0x000ff0       data     extern D:\3.43\pic18-lt\cxx-framework\src\traditional\proc\p18f26k20.asm
              INTCON3bits   0x000ff0       data     extern D:\3.43\pic18-lt\cxx-framework\src\traditional\proc\p18f26k20.asm
               INTCONbits   0x000ff2       data     extern D:\3.43\pic18-lt\cxx-framework\src\traditional\proc\p18f26k20.asm
                     IOCB   0x000f7d       data     extern D:\3.43\pic18-lt\cxx-framework\src\traditional\proc\p18f26k20.asm
                 IOCBbits   0x000f7d       data     extern D:\3.43\pic18-lt\cxx-framework\src\traditional\proc\p18f26k20.asm
                     IPR1   0x000f9f       data     extern D:\3.43\pic18-lt\cxx-framework\src\traditional\proc\p18f26k20.asm
                 IPR1bits   0x000f9f       data     extern D:\3.43\pic18-lt\cxx-framework\src\traditional\proc\p18f26k20.asm
                     IPR2   0x000fa2       data     extern D:\3.43\pic18-lt\cxx-framework\src\traditional\proc\p18f26k20.asm
                 IPR2bits   0x000fa2       data     extern D:\3.43\pic18-lt\cxx-framework\src\traditional\proc\p18f26k20.asm
                IntStatus   0x000cf3       data     extern C:\Users\TienDat\Desktop\ActorHome\PIC18_Zigbee_v2\PIC18_Zigbee_R&D_by_Lab411\Microchip\ZigBeeStack\zPHY_MRF24J40.c
                     LATA   0x000f89       data     extern D:\3.43\pic18-lt\cxx-framework\src\traditional\proc\p18f26k20.asm
                 LATAbits   0x000f89       data     extern D:\3.43\pic18-lt\cxx-framework\src\traditional\proc\p18f26k20.asm
                     LATB   0x000f8a       data     extern D:\3.43\pic18-lt\cxx-framework\src\traditional\proc\p18f26k20.asm
                 LATBbits   0x000f8a       data     extern D:\3.43\pic18-lt\cxx-framework\src\traditional\proc\p18f26k20.asm
                     LATC   0x000f8b       data     extern D:\3.43\pic18-lt\cxx-framework\src\traditional\proc\p18f26k20.asm
                 LATCbits   0x000f8b       data     extern D:\3.43\pic18-lt\cxx-framework\src\traditional\proc\p18f26k20.asm
                   LVDCON   0x000fd2       data     extern D:\3.43\pic18-lt\cxx-framework\src\traditional\proc\p18f26k20.asm
               LVDCONbits   0x000fd2       data     extern D:\3.43\pic18-lt\cxx-framework\src\traditional\proc\p18f26k20.asm
                      NIB   0x000974       data     extern C:\Users\TienDat\Desktop\ActorHome\PIC18_Zigbee_v2\PIC18_Zigbee_R&D_by_Lab411\Microchip\ZigBeeStack\zNWK.c
        NetworkDescriptor   0x00009a       data     extern C:\Users\TienDat\Desktop\ActorHome\PIC18_Zigbee_v2\PIC18_Zigbee_R&D_by_Lab411\DemoPIC18Router\Router.c
                   OSCCON   0x000fd3       data     extern D:\3.43\pic18-lt\cxx-framework\src\traditional\proc\p18f26k20.asm
               OSCCONbits   0x000fd3       data     extern D:\3.43\pic18-lt\cxx-framework\src\traditional\proc\p18f26k20.asm
                  OSCTUNE   0x000f9b       data     extern D:\3.43\pic18-lt\cxx-framework\src\traditional\proc\p18f26k20.asm
              OSCTUNEbits   0x000f9b       data     extern D:\3.43\pic18-lt\cxx-framework\src\traditional\proc\p18f26k20.asm
                       PC   0x000ff9       data     extern D:\3.43\pic18-lt\cxx-framework\src\traditional\proc\p18f26k20.asm
                      PCL   0x000ff9       data     extern D:\3.43\pic18-lt\cxx-framework\src\traditional\proc\p18f26k20.asm
                   PCLATH   0x000ffa       data     extern D:\3.43\pic18-lt\cxx-framework\src\traditional\proc\p18f26k20.asm
                   PCLATU   0x000ffb       data     extern D:\3.43\pic18-lt\cxx-framework\src\traditional\proc\p18f26k20.asm
          PHYTasksPending   0x000cfa       data     extern C:\Users\TienDat\Desktop\ActorHome\PIC18_Zigbee_v2\PIC18_Zigbee_R&D_by_Lab411\Microchip\ZigBeeStack\zPHY_MRF24J40.c
                     PIE1   0x000f9d       data     extern D:\3.43\pic18-lt\cxx-framework\src\traditional\proc\p18f26k20.asm
                 PIE1bits   0x000f9d       data     extern D:\3.43\pic18-lt\cxx-framework\src\traditional\proc\p18f26k20.asm
                     PIE2   0x000fa0       data     extern D:\3.43\pic18-lt\cxx-framework\src\traditional\proc\p18f26k20.asm
                 PIE2bits   0x000fa0       data     extern D:\3.43\pic18-lt\cxx-framework\src\traditional\proc\p18f26k20.asm
                     PIR1   0x000f9e       data     extern D:\3.43\pic18-lt\cxx-framework\src\traditional\proc\p18f26k20.asm
                 PIR1bits   0x000f9e       data     extern D:\3.43\pic18-lt\cxx-framework\src\traditional\proc\p18f26k20.asm
                     PIR2   0x000fa1       data     extern D:\3.43\pic18-lt\cxx-framework\src\traditional\proc\p18f26k20.asm
                 PIR2bits   0x000fa1       data     extern D:\3.43\pic18-lt\cxx-framework\src\traditional\proc\p18f26k20.asm
                   PLUSW0   0x000feb       data     extern D:\3.43\pic18-lt\cxx-framework\src\traditional\proc\p18f26k20.asm
                   PLUSW1   0x000fe3       data     extern D:\3.43\pic18-lt\cxx-framework\src\traditional\proc\p18f26k20.asm
                   PLUSW2   0x000fdb       data     extern D:\3.43\pic18-lt\cxx-framework\src\traditional\proc\p18f26k20.asm
                    PORTA   0x000f80       data     extern D:\3.43\pic18-lt\cxx-framework\src\traditional\proc\p18f26k20.asm
                PORTAbits   0x000f80       data     extern D:\3.43\pic18-lt\cxx-framework\src\traditional\proc\p18f26k20.asm
                    PORTB   0x000f81       data     extern D:\3.43\pic18-lt\cxx-framework\src\traditional\proc\p18f26k20.asm
                PORTBbits   0x000f81       data     extern D:\3.43\pic18-lt\cxx-framework\src\traditional\proc\p18f26k20.asm
                    PORTC   0x000f82       data     extern D:\3.43\pic18-lt\cxx-framework\src\traditional\proc\p18f26k20.asm
                PORTCbits   0x000f82       data     extern D:\3.43\pic18-lt\cxx-framework\src\traditional\proc\p18f26k20.asm
                    PORTE   0x000f84       data     extern D:\3.43\pic18-lt\cxx-framework\src\traditional\proc\p18f26k20.asm
                PORTEbits   0x000f84       data     extern D:\3.43\pic18-lt\cxx-framework\src\traditional\proc\p18f26k20.asm
                 POSTDEC0   0x000fed       data     extern D:\3.43\pic18-lt\cxx-framework\src\traditional\proc\p18f26k20.asm
                 POSTDEC1   0x000fe5       data     extern D:\3.43\pic18-lt\cxx-framework\src\traditional\proc\p18f26k20.asm
                 POSTDEC2   0x000fdd       data     extern D:\3.43\pic18-lt\cxx-framework\src\traditional\proc\p18f26k20.asm
                 POSTINC0   0x000fee       data     extern D:\3.43\pic18-lt\cxx-framework\src\traditional\proc\p18f26k20.asm
                 POSTINC1   0x000fe6       data     extern D:\3.43\pic18-lt\cxx-framework\src\traditional\proc\p18f26k20.asm
                 POSTINC2   0x000fde       data     extern D:\3.43\pic18-lt\cxx-framework\src\traditional\proc\p18f26k20.asm
                      PR2   0x000fcb       data     extern D:\3.43\pic18-lt\cxx-framework\src\traditional\proc\p18f26k20.asm
                  PREINC0   0x000fec       data     extern D:\3.43\pic18-lt\cxx-framework\src\traditional\proc\p18f26k20.asm
                  PREINC1   0x000fe4       data     extern D:\3.43\pic18-lt\cxx-framework\src\traditional\proc\p18f26k20.asm
                  PREINC2   0x000fdc       data     extern D:\3.43\pic18-lt\cxx-framework\src\traditional\proc\p18f26k20.asm
                     PROD   0x000ff3       data     extern D:\3.43\pic18-lt\cxx-framework\src\traditional\proc\p18f26k20.asm
                    PRODH   0x000ff4       data     extern D:\3.43\pic18-lt\cxx-framework\src\traditional\proc\p18f26k20.asm
                    PRODL   0x000ff3       data     extern D:\3.43\pic18-lt\cxx-framework\src\traditional\proc\p18f26k20.asm
                  PSTRCON   0x000fb9       data     extern D:\3.43\pic18-lt\cxx-framework\src\traditional\proc\p18f26k20.asm
              PSTRCONbits   0x000fb9       data     extern D:\3.43\pic18-lt\cxx-framework\src\traditional\proc\p18f26k20.asm
                  PWM1CON   0x000fb7       data     extern D:\3.43\pic18-lt\cxx-framework\src\traditional\proc\p18f26k20.asm
              PWM1CONbits   0x000fb7       data     extern D:\3.43\pic18-lt\cxx-framework\src\traditional\proc\p18f26k20.asm
                     RCON   0x000fd0       data     extern D:\3.43\pic18-lt\cxx-framework\src\traditional\proc\p18f26k20.asm
                 RCONbits   0x000fd0       data     extern D:\3.43\pic18-lt\cxx-framework\src\traditional\proc\p18f26k20.asm
                    RCREG   0x000fae       data     extern D:\3.43\pic18-lt\cxx-framework\src\traditional\proc\p18f26k20.asm
                    RCSTA   0x000fab       data     extern D:\3.43\pic18-lt\cxx-framework\src\traditional\proc\p18f26k20.asm
                RCSTAbits   0x000fab       data     extern D:\3.43\pic18-lt\cxx-framework\src\traditional\proc\p18f26k20.asm
                 RxBuffer   0x000800       data     extern C:\Users\TienDat\Desktop\ActorHome\PIC18_Zigbee_v2\PIC18_Zigbee_R&D_by_Lab411\Microchip\ZigBeeStack\ZigbeeTasks.c
                   RxData   0x000cfb       data     extern C:\Users\TienDat\Desktop\ActorHome\PIC18_Zigbee_v2\PIC18_Zigbee_R&D_by_Lab411\Microchip\ZigBeeStack\zPHY_MRF24J40.c
                   RxRead   0x000aa4       data     extern C:\Users\TienDat\Desktop\ActorHome\PIC18_Zigbee_v2\PIC18_Zigbee_R&D_by_Lab411\Microchip\ZigBeeStack\ZigbeeTasks.c
                  RxWrite   0x000aa5       data     extern C:\Users\TienDat\Desktop\ActorHome\PIC18_Zigbee_v2\PIC18_Zigbee_R&D_by_Lab411\Microchip\ZigBeeStack\ZigbeeTasks.c
                     SIGN   0x000000       data     extern D:\3.43\pic18-lt\cxx-framework\src\traditional\math\cmath18.asm
                   SLRCON   0x000f78       data     extern D:\3.43\pic18-lt\cxx-framework\src\traditional\proc\p18f26k20.asm
               SLRCONbits   0x000f78       data     extern D:\3.43\pic18-lt\cxx-framework\src\traditional\proc\p18f26k20.asm
                    SPBRG   0x000faf       data     extern D:\3.43\pic18-lt\cxx-framework\src\traditional\proc\p18f26k20.asm
                   SPBRGH   0x000fb0       data     extern D:\3.43\pic18-lt\cxx-framework\src\traditional\proc\p18f26k20.asm
                   SSPADD   0x000fc8       data     extern D:\3.43\pic18-lt\cxx-framework\src\traditional\proc\p18f26k20.asm
                   SSPBUF   0x000fc9       data     extern D:\3.43\pic18-lt\cxx-framework\src\traditional\proc\p18f26k20.asm
                  SSPCON1   0x000fc6       data     extern D:\3.43\pic18-lt\cxx-framework\src\traditional\proc\p18f26k20.asm
              SSPCON1bits   0x000fc6       data     extern D:\3.43\pic18-lt\cxx-framework\src\traditional\proc\p18f26k20.asm
                  SSPCON2   0x000fc5       data     extern D:\3.43\pic18-lt\cxx-framework\src\traditional\proc\p18f26k20.asm
              SSPCON2bits   0x000fc5       data     extern D:\3.43\pic18-lt\cxx-framework\src\traditional\proc\p18f26k20.asm
                   SSPMSK   0x000f77       data     extern D:\3.43\pic18-lt\cxx-framework\src\traditional\proc\p18f26k20.asm
               SSPMSKbits   0x000f77       data     extern D:\3.43\pic18-lt\cxx-framework\src\traditional\proc\p18f26k20.asm
                  SSPSTAT   0x000fc7       data     extern D:\3.43\pic18-lt\cxx-framework\src\traditional\proc\p18f26k20.asm
              SSPSTATbits   0x000fc7       data     extern D:\3.43\pic18-lt\cxx-framework\src\traditional\proc\p18f26k20.asm
                   STATUS   0x000fd8       data     extern D:\3.43\pic18-lt\cxx-framework\src\traditional\proc\p18f26k20.asm
               STATUSbits   0x000fd8       data     extern D:\3.43\pic18-lt\cxx-framework\src\traditional\proc\p18f26k20.asm
                   STKPTR   0x000ffc       data     extern D:\3.43\pic18-lt\cxx-framework\src\traditional\proc\p18f26k20.asm
               STKPTRbits   0x000ffc       data     extern D:\3.43\pic18-lt\cxx-framework\src\traditional\proc\p18f26k20.asm
        SendingEDBRequest   0x0009fe       data     extern C:\Users\TienDat\Desktop\ActorHome\PIC18_Zigbee_v2\PIC18_Zigbee_R&D_by_Lab411\Microchip\ZigBeeStack\zAPS.c
          SentBindRequest   0x0009ff       data     extern C:\Users\TienDat\Desktop\ActorHome\PIC18_Zigbee_v2\PIC18_Zigbee_R&D_by_Lab411\Microchip\ZigBeeStack\zAPS.c
                    T0CON   0x000fd5       data     extern D:\3.43\pic18-lt\cxx-framework\src\traditional\proc\p18f26k20.asm
                T0CONbits   0x000fd5       data     extern D:\3.43\pic18-lt\cxx-framework\src\traditional\proc\p18f26k20.asm
                    T1CON   0x000fcd       data     extern D:\3.43\pic18-lt\cxx-framework\src\traditional\proc\p18f26k20.asm
                T1CONbits   0x000fcd       data     extern D:\3.43\pic18-lt\cxx-framework\src\traditional\proc\p18f26k20.asm
                    T2CON   0x000fca       data     extern D:\3.43\pic18-lt\cxx-framework\src\traditional\proc\p18f26k20.asm
                T2CONbits   0x000fca       data     extern D:\3.43\pic18-lt\cxx-framework\src\traditional\proc\p18f26k20.asm
                    T3CON   0x000fb1       data     extern D:\3.43\pic18-lt\cxx-framework\src\traditional\proc\p18f26k20.asm
                T3CONbits   0x000fb1       data     extern D:\3.43\pic18-lt\cxx-framework\src\traditional\proc\p18f26k20.asm
                   TABLAT   0x000ff5       data     extern D:\3.43\pic18-lt\cxx-framework\src\traditional\proc\p18f26k20.asm
                   TBLPTR   0x000ff6       data     extern D:\3.43\pic18-lt\cxx-framework\src\traditional\proc\p18f26k20.asm
                  TBLPTRH   0x000ff7       data     extern D:\3.43\pic18-lt\cxx-framework\src\traditional\proc\p18f26k20.asm
                  TBLPTRL   0x000ff6       data     extern D:\3.43\pic18-lt\cxx-framework\src\traditional\proc\p18f26k20.asm
                  TBLPTRU   0x000ff8       data     extern D:\3.43\pic18-lt\cxx-framework\src\traditional\proc\p18f26k20.asm
                    TMR0H   0x000fd7       data     extern D:\3.43\pic18-lt\cxx-framework\src\traditional\proc\p18f26k20.asm
                    TMR0L   0x000fd6       data     extern D:\3.43\pic18-lt\cxx-framework\src\traditional\proc\p18f26k20.asm
                    TMR1H   0x000fcf       data     extern D:\3.43\pic18-lt\cxx-framework\src\traditional\proc\p18f26k20.asm
                    TMR1L   0x000fce       data     extern D:\3.43\pic18-lt\cxx-framework\src\traditional\proc\p18f26k20.asm
                     TMR2   0x000fcc       data     extern D:\3.43\pic18-lt\cxx-framework\src\traditional\proc\p18f26k20.asm
                    TMR3H   0x000fb3       data     extern D:\3.43\pic18-lt\cxx-framework\src\traditional\proc\p18f26k20.asm
                    TMR3L   0x000fb2       data     extern D:\3.43\pic18-lt\cxx-framework\src\traditional\proc\p18f26k20.asm
                      TOS   0x000ffd       data     extern D:\3.43\pic18-lt\cxx-framework\src\traditional\proc\p18f26k20.asm
                     TOSH   0x000ffe       data     extern D:\3.43\pic18-lt\cxx-framework\src\traditional\proc\p18f26k20.asm
                     TOSL   0x000ffd       data     extern D:\3.43\pic18-lt\cxx-framework\src\traditional\proc\p18f26k20.asm
                     TOSU   0x000fff       data     extern D:\3.43\pic18-lt\cxx-framework\src\traditional\proc\p18f26k20.asm
                    TRISA   0x000f92       data     extern D:\3.43\pic18-lt\cxx-framework\src\traditional\proc\p18f26k20.asm
                TRISAbits   0x000f92       data     extern D:\3.43\pic18-lt\cxx-framework\src\traditional\proc\p18f26k20.asm
                    TRISB   0x000f93       data     extern D:\3.43\pic18-lt\cxx-framework\src\traditional\proc\p18f26k20.asm
                TRISBbits   0x000f93       data     extern D:\3.43\pic18-lt\cxx-framework\src\traditional\proc\p18f26k20.asm
                    TRISC   0x000f94       data     extern D:\3.43\pic18-lt\cxx-framework\src\traditional\proc\p18f26k20.asm
                TRISCbits   0x000f94       data     extern D:\3.43\pic18-lt\cxx-framework\src\traditional\proc\p18f26k20.asm
          TRXCurrentState   0x000cfc       data     extern C:\Users\TienDat\Desktop\ActorHome\PIC18_Zigbee_v2\PIC18_Zigbee_R&D_by_Lab411\Microchip\ZigBeeStack\zPHY_MRF24J40.c
                    TXREG   0x000fad       data     extern D:\3.43\pic18-lt\cxx-framework\src\traditional\proc\p18f26k20.asm
                    TXSTA   0x000fac       data     extern D:\3.43\pic18-lt\cxx-framework\src\traditional\proc\p18f26k20.asm
                TXSTAbits   0x000fac       data     extern D:\3.43\pic18-lt\cxx-framework\src\traditional\proc\p18f26k20.asm
                 TxBuffer   0x000a00       data     extern C:\Users\TienDat\Desktop\ActorHome\PIC18_Zigbee_v2\PIC18_Zigbee_R&D_by_Lab411\Microchip\ZigBeeStack\ZigbeeTasks.c
                   TxData   0x000aa6       data     extern C:\Users\TienDat\Desktop\ActorHome\PIC18_Zigbee_v2\PIC18_Zigbee_R&D_by_Lab411\Microchip\ZigBeeStack\ZigbeeTasks.c
                 TxHeader   0x000aa7       data     extern C:\Users\TienDat\Desktop\ActorHome\PIC18_Zigbee_v2\PIC18_Zigbee_R&D_by_Lab411\Microchip\ZigBeeStack\ZigbeeTasks.c
                   TxStat   0x000cfd       data     extern C:\Users\TienDat\Desktop\ActorHome\PIC18_Zigbee_v2\PIC18_Zigbee_R&D_by_Lab411\Microchip\ZigBeeStack\zPHY_MRF24J40.c
                        W   0x000fe8       data     extern D:\3.43\pic18-lt\cxx-framework\src\traditional\proc\p18f26k20.asm
                   WDTCON   0x000fd1       data     extern D:\3.43\pic18-lt\cxx-framework\src\traditional\proc\p18f26k20.asm
               WDTCONbits   0x000fd1       data     extern D:\3.43\pic18-lt\cxx-framework\src\traditional\proc\p18f26k20.asm
                     WPUB   0x000f7c       data     extern D:\3.43\pic18-lt\cxx-framework\src\traditional\proc\p18f26k20.asm
                 WPUBbits   0x000f7c       data     extern D:\3.43\pic18-lt\cxx-framework\src\traditional\proc\p18f26k20.asm
                     WREG   0x000fe8       data     extern D:\3.43\pic18-lt\cxx-framework\src\traditional\proc\p18f26k20.asm
                WSANFlags   0x000096       data     static C:\Users\TienDat\Desktop\ActorHome\PIC18_Zigbee_v2\PIC18_Zigbee_R&D_by_Lab411\DemoPIC18Router\Router.c
               ZDOCounter   0x000c80       data     extern C:\Users\TienDat\Desktop\ActorHome\PIC18_Zigbee_v2\PIC18_Zigbee_R&D_by_Lab411\Microchip\ZigBeeStack\zZDO.c
             ZigBeeStatus   0x000aa8       data     extern C:\Users\TienDat\Desktop\ActorHome\PIC18_Zigbee_v2\PIC18_Zigbee_R&D_by_Lab411\Microchip\ZigBeeStack\ZigbeeTasks.c
                 __AARGB0   0x000009       data     extern D:\3.43\pic18-lt\cxx-framework\src\traditional\math\aarg.asm
                 __AARGB1   0x000008       data     extern D:\3.43\pic18-lt\cxx-framework\src\traditional\math\aarg.asm
                 __AARGB2   0x000007       data     extern D:\3.43\pic18-lt\cxx-framework\src\traditional\math\aarg.asm
                 __AARGB3   0x000006       data     extern D:\3.43\pic18-lt\cxx-framework\src\traditional\math\aarg.asm
                 __AARGB4   0x000005       data     extern D:\3.43\pic18-lt\cxx-framework\src\traditional\math\aarg.asm
                 __AARGB5   0x000004       data     extern D:\3.43\pic18-lt\cxx-framework\src\traditional\math\aarg.asm
                 __AARGB6   0x000003       data     extern D:\3.43\pic18-lt\cxx-framework\src\traditional\math\aarg.asm
                 __AARGB7   0x000002       data     extern D:\3.43\pic18-lt\cxx-framework\src\traditional\math\aarg.asm
                   __AEXP   0x00000a       data     extern D:\3.43\pic18-lt\cxx-framework\src\traditional\math\aarg.asm
                 __BARGB0   0x00000e       data     extern D:\3.43\pic18-lt\cxx-framework\src\traditional\math\barg.asm
                 __BARGB1   0x00000d       data     extern D:\3.43\pic18-lt\cxx-framework\src\traditional\math\barg.asm
                 __BARGB2   0x00000c       data     extern D:\3.43\pic18-lt\cxx-framework\src\traditional\math\barg.asm
                 __BARGB3   0x00000b       data     extern D:\3.43\pic18-lt\cxx-framework\src\traditional\math\barg.asm
                   __BEXP   0x00000f       data     extern D:\3.43\pic18-lt\cxx-framework\src\traditional\math\barg.asm
                __FPFLAGS   0x000001       data     extern D:\3.43\pic18-lt\cxx-framework\src\traditional\math\cmath18.asm
            __FPFLAGSbits   0x000001       data     extern D:\3.43\pic18-lt\cxx-framework\src\traditional\math\cmath18.asm
                  __REMB0   0x000005       data     extern D:\3.43\pic18-lt\cxx-framework\src\traditional\math\aarg.asm
                  __REMB1   0x000004       data     extern D:\3.43\pic18-lt\cxx-framework\src\traditional\math\aarg.asm
                  __REMB2   0x000003       data     extern D:\3.43\pic18-lt\cxx-framework\src\traditional\math\aarg.asm
                  __REMB3   0x000002       data     extern D:\3.43\pic18-lt\cxx-framework\src\traditional\math\aarg.asm
                   __TEMP   0x000013       data     extern D:\3.43\pic18-lt\cxx-framework\src\traditional\math\temparg.asm
                 __TEMPB0   0x000013       data     extern D:\3.43\pic18-lt\cxx-framework\src\traditional\math\temparg.asm
                 __TEMPB1   0x000012       data     extern D:\3.43\pic18-lt\cxx-framework\src\traditional\math\temparg.asm
                 __TEMPB2   0x000011       data     extern D:\3.43\pic18-lt\cxx-framework\src\traditional\math\temparg.asm
                 __TEMPB3   0x000010       data     extern D:\3.43\pic18-lt\cxx-framework\src\traditional\math\temparg.asm
                  __tmp_0   0x000014       data     static C:\Users\TienDat\Desktop\ActorHome\PIC18_Zigbee_v2\PIC18_Zigbee_R&D_by_Lab411\Microchip\ZigBeeStack\zAPS.c
                  __tmp_0   0x000014       data     static C:\Users\TienDat\Desktop\ActorHome\PIC18_Zigbee_v2\PIC18_Zigbee_R&D_by_Lab411\Microchip\ZigBeeStack\zMAC_MRF24J40.c
                  __tmp_0   0x000014       data     static C:\Users\TienDat\Desktop\ActorHome\PIC18_Zigbee_v2\PIC18_Zigbee_R&D_by_Lab411\Microchip\ZigBeeStack\zNVM.c
                  __tmp_0   0x000014       data     static C:\Users\TienDat\Desktop\ActorHome\PIC18_Zigbee_v2\PIC18_Zigbee_R&D_by_Lab411\Microchip\Common\sralloc.c
                  __tmp_0   0x000014       data     static C:\Users\TienDat\Desktop\ActorHome\PIC18_Zigbee_v2\PIC18_Zigbee_R&D_by_Lab411\Microchip\Common\Console.c
                  __tmp_0   0x000014       data     static C:\Users\TienDat\Desktop\ActorHome\PIC18_Zigbee_v2\PIC18_Zigbee_R&D_by_Lab411\Microchip\Common\SHT1x.c
                  __tmp_0   0x000014       data     static C:\Users\TienDat\Desktop\ActorHome\PIC18_Zigbee_v2\PIC18_Zigbee_R&D_by_Lab411\DemoPIC18Router\Router.c
                  __tmp_0   0x000014       data     static C:\Users\TienDat\Desktop\ActorHome\PIC18_Zigbee_v2\PIC18_Zigbee_R&D_by_Lab411\Microchip\ZigBeeStack\zNWK.c
                  __tmp_0   0x000014       data     static C:\Users\TienDat\Desktop\ActorHome\PIC18_Zigbee_v2\PIC18_Zigbee_R&D_by_Lab411\Microchip\ZigBeeStack\zZDO.c
                  __tmp_0   0x000014       data     static C:\Users\TienDat\Desktop\ActorHome\PIC18_Zigbee_v2\PIC18_Zigbee_R&D_by_Lab411\Microchip\ZigBeeStack\zPHY_MRF24J40.c
                  __tmp_1   0x000024       data     static C:\Users\TienDat\Desktop\ActorHome\PIC18_Zigbee_v2\PIC18_Zigbee_R&D_by_Lab411\Microchip\ZigBeeStack\zPHY_MRF24J40.c
            _uDynamicHeap   0x000100       data     extern C:\Users\TienDat\Desktop\ActorHome\PIC18_Zigbee_v2\PIC18_Zigbee_R&D_by_Lab411\Microchip\Common\sralloc.c
           apsChannelMask   0x000f01       data     extern C:\Users\TienDat\Desktop\ActorHome\PIC18_Zigbee_v2\PIC18_Zigbee_R&D_by_Lab411\Microchip\ZigBeeStack\zAPS.c
   apsConfirmationHandles   0x000f32       data     extern C:\Users\TienDat\Desktop\ActorHome\PIC18_Zigbee_v2\PIC18_Zigbee_R&D_by_Lab411\Microchip\ZigBeeStack\zAPS.c
        apsDuplicateTable   0x000c00       data     extern C:\Users\TienDat\Desktop\ActorHome\PIC18_Zigbee_v2\PIC18_Zigbee_R&D_by_Lab411\Microchip\ZigBeeStack\zAPS.c
                apsStatus   0x000f05       data     extern C:\Users\TienDat\Desktop\ActorHome\PIC18_Zigbee_v2\PIC18_Zigbee_R&D_by_Lab411\Microchip\ZigBeeStack\zAPS.c
     associationReqParams   0x000aaa       data     extern C:\Users\TienDat\Desktop\ActorHome\PIC18_Zigbee_v2\PIC18_Zigbee_R&D_by_Lab411\Microchip\ZigBeeStack\zMAC_MRF24J40.c
                curr_byte   0x0000a1       data     static D:\3.43\pic18-lt\cxx-framework\src\traditional\startup\c018i.c
               curr_entry   0x0000a3       data     static D:\3.43\pic18-lt\cxx-framework\src\traditional\startup\c018i.c
        currentAPSAddress   0x000ce9       data     extern C:\Users\TienDat\Desktop\ActorHome\PIC18_Zigbee_v2\PIC18_Zigbee_R&D_by_Lab411\Microchip\ZigBeeStack\zNVM.c
     currentBindingRecord   0x000cb7       data     extern C:\Users\TienDat\Desktop\ActorHome\PIC18_Zigbee_v2\PIC18_Zigbee_R&D_by_Lab411\Microchip\ZigBeeStack\zNVM.c
currentGroupAddressRecord   0x000f54       data     extern C:\Users\TienDat\Desktop\ActorHome\PIC18_Zigbee_v2\PIC18_Zigbee_R&D_by_Lab411\Microchip\ZigBeeStack\zAPS.c
    currentNeighborRecord   0x000cc1       data     extern C:\Users\TienDat\Desktop\ActorHome\PIC18_Zigbee_v2\PIC18_Zigbee_R&D_by_Lab411\Microchip\ZigBeeStack\zNVM.c
 currentNeighborTableInfo   0x000cd2       data     extern C:\Users\TienDat\Desktop\ActorHome\PIC18_Zigbee_v2\PIC18_Zigbee_R&D_by_Lab411\Microchip\ZigBeeStack\zNVM.c
 currentNetworkDescriptor   0x000098       data     extern C:\Users\TienDat\Desktop\ActorHome\PIC18_Zigbee_v2\PIC18_Zigbee_R&D_by_Lab411\DemoPIC18Router\Router.c
            currentPacket   0x000aad       data     extern C:\Users\TienDat\Desktop\ActorHome\PIC18_Zigbee_v2\PIC18_Zigbee_R&D_by_Lab411\Microchip\ZigBeeStack\zMAC_MRF24J40.c
         currentPrimitive   0x0000a8       data     extern C:\Users\TienDat\Desktop\ActorHome\PIC18_Zigbee_v2\PIC18_Zigbee_R&D_by_Lab411\DemoPIC18Router\Router.c
      currentRoutingEntry   0x000ce2       data     extern C:\Users\TienDat\Desktop\ActorHome\PIC18_Zigbee_v2\PIC18_Zigbee_R&D_by_Lab411\Microchip\ZigBeeStack\zNVM.c
                    dAddr   0x000c81       data     extern C:\Users\TienDat\Desktop\ActorHome\PIC18_Zigbee_v2\PIC18_Zigbee_R&D_by_Lab411\Microchip\ZigBeeStack\zZDO.c
                 data_ptr   0x0000a5       data     static D:\3.43\pic18-lt\cxx-framework\src\traditional\startup\c018i.c
       doingRejoinCommand   0x0009fc       data     extern C:\Users\TienDat\Desktop\ActorHome\PIC18_Zigbee_v2\PIC18_Zigbee_R&D_by_Lab411\Microchip\ZigBeeStack\zNWK.c
                 humidity   0x000092       data     extern C:\Users\TienDat\Desktop\ActorHome\PIC18_Zigbee_v2\PIC18_Zigbee_R&D_by_Lab411\DemoPIC18Router\Router.c
                        i   0x00009d       data     extern C:\Users\TienDat\Desktop\ActorHome\PIC18_Zigbee_v2\PIC18_Zigbee_R&D_by_Lab411\DemoPIC18Router\Router.c
       macIndirectBuffers   0x000060       data     extern C:\Users\TienDat\Desktop\ActorHome\PIC18_Zigbee_v2\PIC18_Zigbee_R&D_by_Lab411\Microchip\ZigBeeStack\zMAC_MRF24J40.c
                   macPIB   0x000abd       data     extern C:\Users\TienDat\Desktop\ActorHome\PIC18_Zigbee_v2\PIC18_Zigbee_R&D_by_Lab411\Microchip\ZigBeeStack\zMAC_MRF24J40.c
                macStatus   0x000ad7       data     extern C:\Users\TienDat\Desktop\ActorHome\PIC18_Zigbee_v2\PIC18_Zigbee_R&D_by_Lab411\Microchip\ZigBeeStack\zMAC_MRF24J40.c
          macTasksPending   0x000ad8       data     extern C:\Users\TienDat\Desktop\ActorHome\PIC18_Zigbee_v2\PIC18_Zigbee_R&D_by_Lab411\Microchip\ZigBeeStack\zMAC_MRF24J40.c
            matchCluster1   0x000cb3       data     extern C:\Users\TienDat\Desktop\ActorHome\PIC18_Zigbee_v2\PIC18_Zigbee_R&D_by_Lab411\Microchip\ZigBeeStack\zZDO.c
            matchCluster2   0x000cb5       data     extern C:\Users\TienDat\Desktop\ActorHome\PIC18_Zigbee_v2\PIC18_Zigbee_R&D_by_Lab411\Microchip\ZigBeeStack\zZDO.c
   nwkConfirmationHandles   0x000918       data     extern C:\Users\TienDat\Desktop\ActorHome\PIC18_Zigbee_v2\PIC18_Zigbee_R&D_by_Lab411\Microchip\ZigBeeStack\zNWK.c
         nwkExtendedPANID   0x000975       data     extern C:\Users\TienDat\Desktop\ActorHome\PIC18_Zigbee_v2\PIC18_Zigbee_R&D_by_Lab411\Microchip\ZigBeeStack\zNWK.c
        nwkIEEEDstAddress   0x0009ea       data     static C:\Users\TienDat\Desktop\ActorHome\PIC18_Zigbee_v2\PIC18_Zigbee_R&D_by_Lab411\Microchip\ZigBeeStack\zNWK.c
        nwkIEEESrcAddress   0x0009f2       data     static C:\Users\TienDat\Desktop\ActorHome\PIC18_Zigbee_v2\PIC18_Zigbee_R&D_by_Lab411\Microchip\ZigBeeStack\zNWK.c
                nwkStatus   0x00097d       data     extern C:\Users\TienDat\Desktop\ActorHome\PIC18_Zigbee_v2\PIC18_Zigbee_R&D_by_Lab411\Microchip\ZigBeeStack\zNWK.c
             oldShortAddr   0x0009fa       data     static C:\Users\TienDat\Desktop\ActorHome\PIC18_Zigbee_v2\PIC18_Zigbee_R&D_by_Lab411\Microchip\ZigBeeStack\zNWK.c
              orphanTries   0x00009c       data     extern C:\Users\TienDat\Desktop\ActorHome\PIC18_Zigbee_v2\PIC18_Zigbee_R&D_by_Lab411\DemoPIC18Router\Router.c
      pBindInProgressInfo   0x000c78       data     extern C:\Users\TienDat\Desktop\ActorHome\PIC18_Zigbee_v2\PIC18_Zigbee_R&D_by_Lab411\Microchip\ZigBeeStack\zZDO.c
    pCurrentBindingRecord   0x000cbd       data     extern C:\Users\TienDat\Desktop\ActorHome\PIC18_Zigbee_v2\PIC18_Zigbee_R&D_by_Lab411\Microchip\ZigBeeStack\zNVM.c
pCurrentGroupAddressRecord   0x000cbf       data     extern C:\Users\TienDat\Desktop\ActorHome\PIC18_Zigbee_v2\PIC18_Zigbee_R&D_by_Lab411\Microchip\ZigBeeStack\zNVM.c
   pCurrentNeighborRecord   0x000ce0       data     extern C:\Users\TienDat\Desktop\ActorHome\PIC18_Zigbee_v2\PIC18_Zigbee_R&D_by_Lab411\Microchip\ZigBeeStack\zNVM.c
     pCurrentRoutingEntry   0x000ce7       data     extern C:\Users\TienDat\Desktop\ActorHome\PIC18_Zigbee_v2\PIC18_Zigbee_R&D_by_Lab411\Microchip\ZigBeeStack\zNVM.c
     pFirstEndBindRequest   0x000c7a       data     static C:\Users\TienDat\Desktop\ActorHome\PIC18_Zigbee_v2\PIC18_Zigbee_R&D_by_Lab411\Microchip\ZigBeeStack\zZDO.c
    pSecondEndBindRequest   0x000c7c       data     static C:\Users\TienDat\Desktop\ActorHome\PIC18_Zigbee_v2\PIC18_Zigbee_R&D_by_Lab411\Microchip\ZigBeeStack\zZDO.c
                   params   0x000a82       data     extern C:\Users\TienDat\Desktop\ActorHome\PIC18_Zigbee_v2\PIC18_Zigbee_R&D_by_Lab411\Microchip\ZigBeeStack\ZigbeeTasks.c
   pendingAckFrameControl   0x000cf4       data     extern C:\Users\TienDat\Desktop\ActorHome\PIC18_Zigbee_v2\PIC18_Zigbee_R&D_by_Lab411\Microchip\ZigBeeStack\zPHY_MRF24J40.c
                 phyError   0x000cf6       data     extern C:\Users\TienDat\Desktop\ActorHome\PIC18_Zigbee_v2\PIC18_Zigbee_R&D_by_Lab411\Microchip\ZigBeeStack\zPHY_MRF24J40.c
                   phyPIB   0x000cf7       data     extern C:\Users\TienDat\Desktop\ActorHome\PIC18_Zigbee_v2\PIC18_Zigbee_R&D_by_Lab411\Microchip\ZigBeeStack\zPHY_MRF24J40.c
                     prom   0x00009e       data     static D:\3.43\pic18-lt\cxx-framework\src\traditional\startup\c018i.c
         rejoinIndication   0x000900       data     extern C:\Users\TienDat\Desktop\ActorHome\PIC18_Zigbee_v2\PIC18_Zigbee_R&D_by_Lab411\Microchip\ZigBeeStack\zNWK.c
routeDiscoveryTablePointer   0x0009e4       data     extern C:\Users\TienDat\Desktop\ActorHome\PIC18_Zigbee_v2\PIC18_Zigbee_R&D_by_Lab411\Microchip\ZigBeeStack\zNWK.c
             routeDstInfo   0x0009d5       data     extern C:\Users\TienDat\Desktop\ActorHome\PIC18_Zigbee_v2\PIC18_Zigbee_R&D_by_Lab411\Microchip\ZigBeeStack\zNWK.c
                savedBits   0x000cfe       data     extern C:\Users\TienDat\Desktop\ActorHome\PIC18_Zigbee_v2\PIC18_Zigbee_R&D_by_Lab411\Microchip\ZigBeeStack\zPHY_MRF24J40.c
               scanParams   0x000ad9       data     extern C:\Users\TienDat\Desktop\ActorHome\PIC18_Zigbee_v2\PIC18_Zigbee_R&D_by_Lab411\Microchip\ZigBeeStack\zMAC_MRF24J40.c
           sequenceNumber   0x000c7e       data     extern C:\Users\TienDat\Desktop\ActorHome\PIC18_Zigbee_v2\PIC18_Zigbee_R&D_by_Lab411\Microchip\ZigBeeStack\zZDO.c
         simpleDescriptor   0x000c83       data     extern C:\Users\TienDat\Desktop\ActorHome\PIC18_Zigbee_v2\PIC18_Zigbee_R&D_by_Lab411\Microchip\ZigBeeStack\zZDO.c
              tblptru_sav   0x000f5e       data     static D:\3.43\pic18-lt\cxx-framework\src\traditional\stdclib\mcmpp2r.asm
              tblptru_sav   0x000f5f       data     static D:\3.43\pic18-lt\cxx-framework\src\traditional\stdclib\mcpyp2r.asm
          tempLongAddress   0x000af5       data     extern C:\Users\TienDat\Desktop\ActorHome\PIC18_Zigbee_v2\PIC18_Zigbee_R&D_by_Lab411\Microchip\ZigBeeStack\zMAC_MRF24J40.c
              temperature   0x000094       data     extern C:\Users\TienDat\Desktop\ActorHome\PIC18_Zigbee_v2\PIC18_Zigbee_R&D_by_Lab411\DemoPIC18Router\Router.c
          timerExtension1   0x000afd       data     extern C:\Users\TienDat\Desktop\ActorHome\PIC18_Zigbee_v2\PIC18_Zigbee_R&D_by_Lab411\Microchip\ZigBeeStack\SymbolTime.c
          timerExtension2   0x000afe       data     extern C:\Users\TienDat\Desktop\ActorHome\PIC18_Zigbee_v2\PIC18_Zigbee_R&D_by_Lab411\Microchip\ZigBeeStack\SymbolTime.c
            updatepayload   0x0009fd       data     extern C:\Users\TienDat\Desktop\ActorHome\PIC18_Zigbee_v2\PIC18_Zigbee_R&D_by_Lab411\Microchip\ZigBeeStack\zNWK.c
                zdoStatus   0x000c7f       data     extern C:\Users\TienDat\Desktop\ActorHome\PIC18_Zigbee_v2\PIC18_Zigbee_R&D_by_Lab411\Microchip\ZigBeeStack\zZDO.c



                              Symbols - Sorted by Address
                     Name    Address   Location    Storage File                     
                ---------  ---------  ---------  --------- ---------                
                   _entry   0x000000    program     extern D:\3.43\pic18-lt\cxx-framework\src\traditional\startup\c018i.c
       ___return_lbl00000   0x000004    program     static                          
               HighVector   0x000008    program     extern C:\Users\TienDat\Desktop\ActorHome\PIC18_Zigbee_v2\PIC18_Zigbee_R&D_by_Lab411\Microchip\ZigBeeStack\zPHY_MRF24J40.c
       ___return_lbl00085   0x00000c    program     static                          
                LowVector   0x000018    program     extern C:\Users\TienDat\Desktop\ActorHome\PIC18_Zigbee_v2\PIC18_Zigbee_R&D_by_Lab411\Microchip\ZigBeeStack\zPHY_MRF24J40.c
       ___return_lbl00086   0x00001c    program     static                          
    NWKHasBackgroundTasks   0x000058    program     extern C:\Users\TienDat\Desktop\ActorHome\PIC18_Zigbee_v2\PIC18_Zigbee_R&D_by_Lab411\Microchip\ZigBeeStack\zNWK.c
                  NWKInit   0x000072    program     extern C:\Users\TienDat\Desktop\ActorHome\PIC18_Zigbee_v2\PIC18_Zigbee_R&D_by_Lab411\Microchip\ZigBeeStack\zNWK.c
                 NWKTasks   0x0000fe    program     extern C:\Users\TienDat\Desktop\ActorHome\PIC18_Zigbee_v2\PIC18_Zigbee_R&D_by_Lab411\Microchip\ZigBeeStack\zNWK.c
             __tmplbl_208   0x000ae2    program     static                          
             __tmplbl_297   0x001b94    program     static                          
             __tmplbl_295   0x001b98    program     static                          
             __tmplbl_296   0x001b98    program     static                          
             __tmplbl_264   0x001ba0    program     static                          
             __tmplbl_263   0x001c08    program     static                          
             __tmplbl_262   0x001d16    program     static                          
             __tmplbl_303   0x001d86    program     static                          
             __tmplbl_261   0x001d90    program     static                          
             __tmplbl_309   0x001e92    program     static                          
             __tmplbl_274   0x001e92    program     static                          
             __tmplbl_278   0x001e92    program     static                          
             __tmplbl_283   0x001e92    program     static                          
             __tmplbl_288   0x001e92    program     static                          
             __tmplbl_306   0x001e92    program     static                          
             __tmplbl_289   0x001e92    program     static                          
             __tmplbl_290   0x001e92    program     static                          
             __tmplbl_291   0x001e92    program     static                          
             __tmplbl_292   0x001e92    program     static                          
             __tmplbl_305   0x001e92    program     static                          
             __tmplbl_304   0x001e92    program     static                          
             __tmplbl_301   0x001e92    program     static                          
             __tmplbl_298   0x001e92    program     static                          
             __tmplbl_300   0x001e92    program     static                          
             __tmplbl_299   0x001e92    program     static                          
             __tmplbl_270   0x001e92    program     static                          
             __tmplbl_260   0x001e9a    program     static                          
             __tmplbl_259   0x001ebe    program     static                          
             __tmplbl_258   0x001f82    program     static                          
             __tmplbl_257   0x002296    program     static                          
             __tmplbl_235   0x0022bc    program     static                          
             __tmplbl_256   0x0022c0    program     static                          
             __tmplbl_255   0x0022ce    program     static                          
             __tmplbl_254   0x0022e4    program     static                          
             __tmplbl_323   0x00241e    program     static                          
             __tmplbl_229   0x002486    program     static                          
             __tmplbl_218   0x00248e    program     static                          
             __tmplbl_253   0x0024e0    program     static                          
             __tmplbl_252   0x002578    program     static                          
             __tmplbl_251   0x002582    program     static                          
             __tmplbl_250   0x0025cc    program     static                          
             __tmplbl_249   0x002612    program     static                          
             __tmplbl_339   0x00266a    program     static                          
             __tmplbl_320   0x002742    program     static                          
             __tmplbl_319   0x002742    program     static                          
             __tmplbl_341   0x002742    program     static                          
             __tmplbl_233   0x002742    program     static                          
             __tmplbl_248   0x00278a    program     static                          
             __tmplbl_247   0x0027b8    program     static                          
             __tmplbl_209   0x00282e    program     static                          
             __tmplbl_316   0x00282e    program     static                          
             __tmplbl_242   0x00282e    program     static                          
             __tmplbl_349   0x00282e    program     static                          
             __tmplbl_318   0x00282e    program     static                          
             __tmplbl_217   0x00282e    program     static                          
             __tmplbl_281   0x00282e    program     static                          
             __tmplbl_326   0x00282e    program     static                          
             __tmplbl_329   0x00282e    program     static                          
             __tmplbl_267   0x00282e    program     static                          
             __tmplbl_239   0x00282e    program     static                          
             __tmplbl_293   0x00282e    program     static                          
             __tmplbl_284   0x00282e    program     static                          
             __tmplbl_315   0x00282e    program     static                          
             __tmplbl_236   0x00282e    program     static                          
             __tmplbl_314   0x00282e    program     static                          
             __tmplbl_312   0x00282e    program     static                          
             __tmplbl_342   0x00284a    program     static                          
             __tmplbl_343   0x00284a    program     static                          
             __tmplbl_241   0x002892    program     static                          
             __tmplbl_240   0x002894    program     static                          
             __tmplbl_344   0x0028aa    program     static                          
             __tmplbl_302   0x0028ac    program     static                          
             __tmplbl_353   0x0028ac    program     static                          
             __tmplbl_317   0x0028ac    program     static                          
             __tmplbl_246   0x0028b0    program     static                          
             __tmplbl_238   0x0028b0    program     static                          
             __tmplbl_245   0x0028ba    program     static                          
             __tmplbl_244   0x0028de    program     static                          
             __tmplbl_231   0x00293a    program     static                          
             __tmplbl_331   0x002940    program     static                          
             __tmplbl_226   0x0029fe    program     static                          
             __tmplbl_225   0x0029fe    program     static                          
             __tmplbl_243   0x0029fe    program     static                          
             __tmplbl_330   0x002a06    program     static                          
             __tmplbl_220   0x002a0a    program     static                          
             __tmplbl_321   0x002a0a    program     static                          
             __tmplbl_322   0x002a0a    program     static                          
             __tmplbl_266   0x002a0a    program     static                          
             __tmplbl_230   0x002a0a    program     static                          
             __tmplbl_219   0x002a0a    program     static                          
             __tmplbl_294   0x002a0a    program     static                          
             __tmplbl_337   0x002a0a    program     static                          
             __tmplbl_350   0x002a0e    program     static                          
             __tmplbl_265   0x002a0e    program     static                          
             __tmplbl_345   0x002a10    program     static                          
             __tmplbl_354   0x002a10    program     static                          
             __tmplbl_338   0x002a10    program     static                          
             __tmplbl_332   0x002a10    program     static                          
             __tmplbl_268   0x002a10    program     static                          
             __tmplbl_351   0x002a10    program     static                          
             AddChildNode   0x002a24    program     extern C:\Users\TienDat\Desktop\ActorHome\PIC18_Zigbee_v2\PIC18_Zigbee_R&D_by_Lab411\Microchip\ZigBeeStack\zNWK.c
          CanAddChildNode   0x002ae6    program     extern C:\Users\TienDat\Desktop\ActorHome\PIC18_Zigbee_v2\PIC18_Zigbee_R&D_by_Lab411\Microchip\ZigBeeStack\zNWK.c
       CanAddNeighborNode   0x002b58    program     extern C:\Users\TienDat\Desktop\ActorHome\PIC18_Zigbee_v2\PIC18_Zigbee_R&D_by_Lab411\Microchip\ZigBeeStack\zNWK.c
             CreateNewBTR   0x002b88    program     extern C:\Users\TienDat\Desktop\ActorHome\PIC18_Zigbee_v2\PIC18_Zigbee_R&D_by_Lab411\Microchip\ZigBeeStack\zNWK.c
         CreateRouteReply   0x002c3c    program     extern C:\Users\TienDat\Desktop\ActorHome\PIC18_Zigbee_v2\PIC18_Zigbee_R&D_by_Lab411\Microchip\ZigBeeStack\zNWK.c
CreateRoutingTableEntries   0x002ce4    program     extern C:\Users\TienDat\Desktop\ActorHome\PIC18_Zigbee_v2\PIC18_Zigbee_R&D_by_Lab411\Microchip\ZigBeeStack\zNWK.c
              GetCSkipVal   0x002de2    program     extern C:\Users\TienDat\Desktop\ActorHome\PIC18_Zigbee_v2\PIC18_Zigbee_R&D_by_Lab411\Microchip\ZigBeeStack\zNWK.c
               GetNextHop   0x002e42    program     extern C:\Users\TienDat\Desktop\ActorHome\PIC18_Zigbee_v2\PIC18_Zigbee_R&D_by_Lab411\Microchip\ZigBeeStack\zNWK.c
        GetRoutingAddress   0x002eb6    program     extern C:\Users\TienDat\Desktop\ActorHome\PIC18_Zigbee_v2\PIC18_Zigbee_R&D_by_Lab411\Microchip\ZigBeeStack\zNWK.c
      HaveRoutingCapacity   0x002f72    program     extern C:\Users\TienDat\Desktop\ActorHome\PIC18_Zigbee_v2\PIC18_Zigbee_R&D_by_Lab411\Microchip\ZigBeeStack\zNWK.c
   InitiateRouteDiscovery   0x003040    program     extern C:\Users\TienDat\Desktop\ActorHome\PIC18_Zigbee_v2\PIC18_Zigbee_R&D_by_Lab411\Microchip\ZigBeeStack\zNWK.c
             IsDescendant   0x00344a    program     extern C:\Users\TienDat\Desktop\ActorHome\PIC18_Zigbee_v2\PIC18_Zigbee_R&D_by_Lab411\Microchip\ZigBeeStack\zNWK.c
MarkNeighborAsPasssiveACKed   0x0034d4    program     extern C:\Users\TienDat\Desktop\ActorHome\PIC18_Zigbee_v2\PIC18_Zigbee_R&D_by_Lab411\Microchip\ZigBeeStack\zNWK.c
         NLME_GET_nwkBCSN   0x00351e    program     extern C:\Users\TienDat\Desktop\ActorHome\PIC18_Zigbee_v2\PIC18_Zigbee_R&D_by_Lab411\Microchip\ZigBeeStack\zNWK.c
    NWKClearNeighborTable   0x00352c    program     extern C:\Users\TienDat\Desktop\ActorHome\PIC18_Zigbee_v2\PIC18_Zigbee_R&D_by_Lab411\Microchip\ZigBeeStack\zNWK.c
     NWKClearRoutingTable   0x00357c    program     extern C:\Users\TienDat\Desktop\ActorHome\PIC18_Zigbee_v2\PIC18_Zigbee_R&D_by_Lab411\Microchip\ZigBeeStack\zNWK.c
                   NWKGet   0x0035b0    program     extern C:\Users\TienDat\Desktop\ActorHome\PIC18_Zigbee_v2\PIC18_Zigbee_R&D_by_Lab411\Microchip\ZigBeeStack\zNWK.c
  NWKLookupNodeByLongAddr   0x0035c8    program     extern C:\Users\TienDat\Desktop\ActorHome\PIC18_Zigbee_v2\PIC18_Zigbee_R&D_by_Lab411\Microchip\ZigBeeStack\zNWK.c
NWKLookupNodeByShortAddrVal   0x003602    program     extern C:\Users\TienDat\Desktop\ActorHome\PIC18_Zigbee_v2\PIC18_Zigbee_R&D_by_Lab411\Microchip\ZigBeeStack\zNWK.c
NWKLookupNodeByShortAddrValAndPANID   0x00363a    program     extern C:\Users\TienDat\Desktop\ActorHome\PIC18_Zigbee_v2\PIC18_Zigbee_R&D_by_Lab411\Microchip\ZigBeeStack\zNWK.c
   NWKThisIsMyLongAddress   0x00368a    program     extern C:\Users\TienDat\Desktop\ActorHome\PIC18_Zigbee_v2\PIC18_Zigbee_R&D_by_Lab411\Microchip\ZigBeeStack\zNWK.c
     NWKTidyNeighborTable   0x0036d4    program     extern C:\Users\TienDat\Desktop\ActorHome\PIC18_Zigbee_v2\PIC18_Zigbee_R&D_by_Lab411\Microchip\ZigBeeStack\zNWK.c
Prepare_MCPS_DATA_request   0x003724    program     extern C:\Users\TienDat\Desktop\ActorHome\PIC18_Zigbee_v2\PIC18_Zigbee_R&D_by_Lab411\Microchip\ZigBeeStack\zNWK.c
 RemoveNeighborTableEntry   0x003794    program     extern C:\Users\TienDat\Desktop\ActorHome\PIC18_Zigbee_v2\PIC18_Zigbee_R&D_by_Lab411\Microchip\ZigBeeStack\zNWK.c
           RouteAlongTree   0x0037e0    program     extern C:\Users\TienDat\Desktop\ActorHome\PIC18_Zigbee_v2\PIC18_Zigbee_R&D_by_Lab411\Microchip\ZigBeeStack\zNWK.c
         SetBeaconPayload   0x003886    program     extern C:\Users\TienDat\Desktop\ActorHome\PIC18_Zigbee_v2\PIC18_Zigbee_R&D_by_Lab411\Microchip\ZigBeeStack\zNWK.c
VariableAndTableInitialization   0x0038dc    program     extern C:\Users\TienDat\Desktop\ActorHome\PIC18_Zigbee_v2\PIC18_Zigbee_R&D_by_Lab411\Microchip\ZigBeeStack\zNWK.c
                   __pa_0   0x0039a0    program     static C:\Users\TienDat\Desktop\ActorHome\PIC18_Zigbee_v2\PIC18_Zigbee_R&D_by_Lab411\Microchip\ZigBeeStack\zNWK.c
                   __pa_1   0x0039a6    program     static C:\Users\TienDat\Desktop\ActorHome\PIC18_Zigbee_v2\PIC18_Zigbee_R&D_by_Lab411\Microchip\ZigBeeStack\zNWK.c
                   __pa_2   0x0039ac    program     static C:\Users\TienDat\Desktop\ActorHome\PIC18_Zigbee_v2\PIC18_Zigbee_R&D_by_Lab411\Microchip\ZigBeeStack\zNWK.c
                   __pa_3   0x0039b4    program     static C:\Users\TienDat\Desktop\ActorHome\PIC18_Zigbee_v2\PIC18_Zigbee_R&D_by_Lab411\Microchip\ZigBeeStack\zNWK.c
                   __pa_4   0x0039da    program     static C:\Users\TienDat\Desktop\ActorHome\PIC18_Zigbee_v2\PIC18_Zigbee_R&D_by_Lab411\Microchip\ZigBeeStack\zNWK.c
                   __pa_5   0x0039e0    program     static C:\Users\TienDat\Desktop\ActorHome\PIC18_Zigbee_v2\PIC18_Zigbee_R&D_by_Lab411\Microchip\ZigBeeStack\zNWK.c
                   __pa_6   0x0039e8    program     static C:\Users\TienDat\Desktop\ActorHome\PIC18_Zigbee_v2\PIC18_Zigbee_R&D_by_Lab411\Microchip\ZigBeeStack\zNWK.c
                   __pa_7   0x0039f8    program     static C:\Users\TienDat\Desktop\ActorHome\PIC18_Zigbee_v2\PIC18_Zigbee_R&D_by_Lab411\Microchip\ZigBeeStack\zNWK.c
                   __pa_8   0x003a00    program     static C:\Users\TienDat\Desktop\ActorHome\PIC18_Zigbee_v2\PIC18_Zigbee_R&D_by_Lab411\Microchip\ZigBeeStack\zNWK.c
                   __pa_9   0x003a26    program     static C:\Users\TienDat\Desktop\ActorHome\PIC18_Zigbee_v2\PIC18_Zigbee_R&D_by_Lab411\Microchip\ZigBeeStack\zNWK.c
                  __pa_10   0x003a32    program     static C:\Users\TienDat\Desktop\ActorHome\PIC18_Zigbee_v2\PIC18_Zigbee_R&D_by_Lab411\Microchip\ZigBeeStack\zNWK.c
                  __pa_11   0x003a4a    program     static C:\Users\TienDat\Desktop\ActorHome\PIC18_Zigbee_v2\PIC18_Zigbee_R&D_by_Lab411\Microchip\ZigBeeStack\zNWK.c
                  __pa_12   0x003a56    program     static C:\Users\TienDat\Desktop\ActorHome\PIC18_Zigbee_v2\PIC18_Zigbee_R&D_by_Lab411\Microchip\ZigBeeStack\zNWK.c
                  __pa_13   0x003a6e    program     static C:\Users\TienDat\Desktop\ActorHome\PIC18_Zigbee_v2\PIC18_Zigbee_R&D_by_Lab411\Microchip\ZigBeeStack\zNWK.c
                  __pa_14   0x003a84    program     static C:\Users\TienDat\Desktop\ActorHome\PIC18_Zigbee_v2\PIC18_Zigbee_R&D_by_Lab411\Microchip\ZigBeeStack\zNWK.c
                  __pa_15   0x003a8c    program     static C:\Users\TienDat\Desktop\ActorHome\PIC18_Zigbee_v2\PIC18_Zigbee_R&D_by_Lab411\Microchip\ZigBeeStack\zNWK.c
             __tmplbl_206   0x003a94    program     static                          
             __tmplbl_390   0x003a94    program     static                          
             __tmplbl_388   0x003a94    program     static                          
             __tmplbl_387   0x003a94    program     static                          
             __tmplbl_386   0x003a94    program     static                          
             __tmplbl_385   0x003a94    program     static                          
             __tmplbl_384   0x003a94    program     static                          
             __tmplbl_383   0x003a94    program     static                          
             __tmplbl_382   0x003a94    program     static                          
             __tmplbl_379   0x003a94    program     static                          
                  __pa_16   0x003a94    program     static C:\Users\TienDat\Desktop\ActorHome\PIC18_Zigbee_v2\PIC18_Zigbee_R&D_by_Lab411\Microchip\ZigBeeStack\zNWK.c
                  __pa_17   0x003aa0    program     static C:\Users\TienDat\Desktop\ActorHome\PIC18_Zigbee_v2\PIC18_Zigbee_R&D_by_Lab411\Microchip\ZigBeeStack\zNWK.c
                  __pa_18   0x003aa8    program     static C:\Users\TienDat\Desktop\ActorHome\PIC18_Zigbee_v2\PIC18_Zigbee_R&D_by_Lab411\Microchip\ZigBeeStack\zNWK.c
                  __pa_19   0x003ab4    program     static C:\Users\TienDat\Desktop\ActorHome\PIC18_Zigbee_v2\PIC18_Zigbee_R&D_by_Lab411\Microchip\ZigBeeStack\zNWK.c
                  __pa_20   0x003ad6    program     static C:\Users\TienDat\Desktop\ActorHome\PIC18_Zigbee_v2\PIC18_Zigbee_R&D_by_Lab411\Microchip\ZigBeeStack\zNWK.c
                  __pa_21   0x003ae4    program     static C:\Users\TienDat\Desktop\ActorHome\PIC18_Zigbee_v2\PIC18_Zigbee_R&D_by_Lab411\Microchip\ZigBeeStack\zNWK.c
                  __pa_22   0x003af4    program     static C:\Users\TienDat\Desktop\ActorHome\PIC18_Zigbee_v2\PIC18_Zigbee_R&D_by_Lab411\Microchip\ZigBeeStack\zNWK.c
                  __pa_23   0x003b02    program     static C:\Users\TienDat\Desktop\ActorHome\PIC18_Zigbee_v2\PIC18_Zigbee_R&D_by_Lab411\Microchip\ZigBeeStack\zNWK.c
                  __pa_24   0x003b0c    program     static C:\Users\TienDat\Desktop\ActorHome\PIC18_Zigbee_v2\PIC18_Zigbee_R&D_by_Lab411\Microchip\ZigBeeStack\zNWK.c
                  __pa_25   0x003b18    program     static C:\Users\TienDat\Desktop\ActorHome\PIC18_Zigbee_v2\PIC18_Zigbee_R&D_by_Lab411\Microchip\ZigBeeStack\zNWK.c
                  __pa_26   0x003b28    program     static C:\Users\TienDat\Desktop\ActorHome\PIC18_Zigbee_v2\PIC18_Zigbee_R&D_by_Lab411\Microchip\ZigBeeStack\zNWK.c
                  __pa_27   0x003b2e    program     static C:\Users\TienDat\Desktop\ActorHome\PIC18_Zigbee_v2\PIC18_Zigbee_R&D_by_Lab411\Microchip\ZigBeeStack\zNWK.c
                  __pa_28   0x003b36    program     static C:\Users\TienDat\Desktop\ActorHome\PIC18_Zigbee_v2\PIC18_Zigbee_R&D_by_Lab411\Microchip\ZigBeeStack\zNWK.c
                  __pa_29   0x003b44    program     static C:\Users\TienDat\Desktop\ActorHome\PIC18_Zigbee_v2\PIC18_Zigbee_R&D_by_Lab411\Microchip\ZigBeeStack\zNWK.c
                  __pa_30   0x003b4e    program     static C:\Users\TienDat\Desktop\ActorHome\PIC18_Zigbee_v2\PIC18_Zigbee_R&D_by_Lab411\Microchip\ZigBeeStack\zNWK.c
                  __pa_31   0x003b5a    program     static C:\Users\TienDat\Desktop\ActorHome\PIC18_Zigbee_v2\PIC18_Zigbee_R&D_by_Lab411\Microchip\ZigBeeStack\zNWK.c
                  __pa_32   0x003b68    program     static C:\Users\TienDat\Desktop\ActorHome\PIC18_Zigbee_v2\PIC18_Zigbee_R&D_by_Lab411\Microchip\ZigBeeStack\zNWK.c
                  __pa_33   0x003b72    program     static C:\Users\TienDat\Desktop\ActorHome\PIC18_Zigbee_v2\PIC18_Zigbee_R&D_by_Lab411\Microchip\ZigBeeStack\zNWK.c
                  __pa_34   0x003b7a    program     static C:\Users\TienDat\Desktop\ActorHome\PIC18_Zigbee_v2\PIC18_Zigbee_R&D_by_Lab411\Microchip\ZigBeeStack\zNWK.c
                  __pa_35   0x003b84    program     static C:\Users\TienDat\Desktop\ActorHome\PIC18_Zigbee_v2\PIC18_Zigbee_R&D_by_Lab411\Microchip\ZigBeeStack\zNWK.c
                  __pa_36   0x003b96    program     static C:\Users\TienDat\Desktop\ActorHome\PIC18_Zigbee_v2\PIC18_Zigbee_R&D_by_Lab411\Microchip\ZigBeeStack\zNWK.c
                  __pa_37   0x003b9e    program     static C:\Users\TienDat\Desktop\ActorHome\PIC18_Zigbee_v2\PIC18_Zigbee_R&D_by_Lab411\Microchip\ZigBeeStack\zNWK.c
                  __pa_38   0x003ba6    program     static C:\Users\TienDat\Desktop\ActorHome\PIC18_Zigbee_v2\PIC18_Zigbee_R&D_by_Lab411\Microchip\ZigBeeStack\zNWK.c
                  __pa_39   0x003bae    program     static C:\Users\TienDat\Desktop\ActorHome\PIC18_Zigbee_v2\PIC18_Zigbee_R&D_by_Lab411\Microchip\ZigBeeStack\zNWK.c
                  __pa_40   0x003bb6    program     static C:\Users\TienDat\Desktop\ActorHome\PIC18_Zigbee_v2\PIC18_Zigbee_R&D_by_Lab411\Microchip\ZigBeeStack\zNWK.c
                  __pa_41   0x003bc2    program     static C:\Users\TienDat\Desktop\ActorHome\PIC18_Zigbee_v2\PIC18_Zigbee_R&D_by_Lab411\Microchip\ZigBeeStack\zNWK.c
                  __pa_42   0x003bce    program     static C:\Users\TienDat\Desktop\ActorHome\PIC18_Zigbee_v2\PIC18_Zigbee_R&D_by_Lab411\Microchip\ZigBeeStack\zNWK.c
                  __pa_43   0x003bda    program     static C:\Users\TienDat\Desktop\ActorHome\PIC18_Zigbee_v2\PIC18_Zigbee_R&D_by_Lab411\Microchip\ZigBeeStack\zNWK.c
                  __pa_44   0x003be2    program     static C:\Users\TienDat\Desktop\ActorHome\PIC18_Zigbee_v2\PIC18_Zigbee_R&D_by_Lab411\Microchip\ZigBeeStack\zNWK.c
                  __pa_45   0x003bf0    program     static C:\Users\TienDat\Desktop\ActorHome\PIC18_Zigbee_v2\PIC18_Zigbee_R&D_by_Lab411\Microchip\ZigBeeStack\zNWK.c
                  __pa_46   0x003bfa    program     static C:\Users\TienDat\Desktop\ActorHome\PIC18_Zigbee_v2\PIC18_Zigbee_R&D_by_Lab411\Microchip\ZigBeeStack\zNWK.c
                  __pa_47   0x003c02    program     static C:\Users\TienDat\Desktop\ActorHome\PIC18_Zigbee_v2\PIC18_Zigbee_R&D_by_Lab411\Microchip\ZigBeeStack\zNWK.c
                  __pa_48   0x003c12    program     static C:\Users\TienDat\Desktop\ActorHome\PIC18_Zigbee_v2\PIC18_Zigbee_R&D_by_Lab411\Microchip\ZigBeeStack\zNWK.c
                  __pa_49   0x003c1c    program     static C:\Users\TienDat\Desktop\ActorHome\PIC18_Zigbee_v2\PIC18_Zigbee_R&D_by_Lab411\Microchip\ZigBeeStack\zNWK.c
                  __pa_50   0x003c2c    program     static C:\Users\TienDat\Desktop\ActorHome\PIC18_Zigbee_v2\PIC18_Zigbee_R&D_by_Lab411\Microchip\ZigBeeStack\zNWK.c
                  __pa_51   0x003c50    program     static C:\Users\TienDat\Desktop\ActorHome\PIC18_Zigbee_v2\PIC18_Zigbee_R&D_by_Lab411\Microchip\ZigBeeStack\zNWK.c
                  __pa_52   0x003c5e    program     static C:\Users\TienDat\Desktop\ActorHome\PIC18_Zigbee_v2\PIC18_Zigbee_R&D_by_Lab411\Microchip\ZigBeeStack\zNWK.c
                  __pa_53   0x003c6c    program     static C:\Users\TienDat\Desktop\ActorHome\PIC18_Zigbee_v2\PIC18_Zigbee_R&D_by_Lab411\Microchip\ZigBeeStack\zNWK.c
                  __pa_54   0x003c7a    program     static C:\Users\TienDat\Desktop\ActorHome\PIC18_Zigbee_v2\PIC18_Zigbee_R&D_by_Lab411\Microchip\ZigBeeStack\zNWK.c
                  __pa_55   0x003c88    program     static C:\Users\TienDat\Desktop\ActorHome\PIC18_Zigbee_v2\PIC18_Zigbee_R&D_by_Lab411\Microchip\ZigBeeStack\zNWK.c
                  __pa_56   0x003c96    program     static C:\Users\TienDat\Desktop\ActorHome\PIC18_Zigbee_v2\PIC18_Zigbee_R&D_by_Lab411\Microchip\ZigBeeStack\zNWK.c
                  __pa_57   0x003ca4    program     static C:\Users\TienDat\Desktop\ActorHome\PIC18_Zigbee_v2\PIC18_Zigbee_R&D_by_Lab411\Microchip\ZigBeeStack\zNWK.c
                  __pa_58   0x003cae    program     static C:\Users\TienDat\Desktop\ActorHome\PIC18_Zigbee_v2\PIC18_Zigbee_R&D_by_Lab411\Microchip\ZigBeeStack\zNWK.c
                  __pa_59   0x003cc4    program     static C:\Users\TienDat\Desktop\ActorHome\PIC18_Zigbee_v2\PIC18_Zigbee_R&D_by_Lab411\Microchip\ZigBeeStack\zNWK.c
                  __pa_60   0x003cce    program     static C:\Users\TienDat\Desktop\ActorHome\PIC18_Zigbee_v2\PIC18_Zigbee_R&D_by_Lab411\Microchip\ZigBeeStack\zNWK.c
                  __pa_61   0x003cde    program     static C:\Users\TienDat\Desktop\ActorHome\PIC18_Zigbee_v2\PIC18_Zigbee_R&D_by_Lab411\Microchip\ZigBeeStack\zNWK.c
                  __pa_62   0x003d00    program     static C:\Users\TienDat\Desktop\ActorHome\PIC18_Zigbee_v2\PIC18_Zigbee_R&D_by_Lab411\Microchip\ZigBeeStack\zNWK.c
                  __pa_63   0x003d0a    program     static C:\Users\TienDat\Desktop\ActorHome\PIC18_Zigbee_v2\PIC18_Zigbee_R&D_by_Lab411\Microchip\ZigBeeStack\zNWK.c
                  __pa_64   0x003d14    program     static C:\Users\TienDat\Desktop\ActorHome\PIC18_Zigbee_v2\PIC18_Zigbee_R&D_by_Lab411\Microchip\ZigBeeStack\zNWK.c
                  __pa_65   0x003d1a    program     static C:\Users\TienDat\Desktop\ActorHome\PIC18_Zigbee_v2\PIC18_Zigbee_R&D_by_Lab411\Microchip\ZigBeeStack\zNWK.c
                  __pa_66   0x003d20    program     static C:\Users\TienDat\Desktop\ActorHome\PIC18_Zigbee_v2\PIC18_Zigbee_R&D_by_Lab411\Microchip\ZigBeeStack\zNWK.c
                  __pa_67   0x003d2e    program     static C:\Users\TienDat\Desktop\ActorHome\PIC18_Zigbee_v2\PIC18_Zigbee_R&D_by_Lab411\Microchip\ZigBeeStack\zNWK.c
                  __pa_68   0x003d3c    program     static C:\Users\TienDat\Desktop\ActorHome\PIC18_Zigbee_v2\PIC18_Zigbee_R&D_by_Lab411\Microchip\ZigBeeStack\zNWK.c
                  __pa_69   0x003d44    program     static C:\Users\TienDat\Desktop\ActorHome\PIC18_Zigbee_v2\PIC18_Zigbee_R&D_by_Lab411\Microchip\ZigBeeStack\zNWK.c
                  __pa_70   0x003d4c    program     static C:\Users\TienDat\Desktop\ActorHome\PIC18_Zigbee_v2\PIC18_Zigbee_R&D_by_Lab411\Microchip\ZigBeeStack\zNWK.c
                  __pa_71   0x003d54    program     static C:\Users\TienDat\Desktop\ActorHome\PIC18_Zigbee_v2\PIC18_Zigbee_R&D_by_Lab411\Microchip\ZigBeeStack\zNWK.c
                  __pa_72   0x003d5e    program     static C:\Users\TienDat\Desktop\ActorHome\PIC18_Zigbee_v2\PIC18_Zigbee_R&D_by_Lab411\Microchip\ZigBeeStack\zNWK.c
                  __pa_73   0x003d78    program     static C:\Users\TienDat\Desktop\ActorHome\PIC18_Zigbee_v2\PIC18_Zigbee_R&D_by_Lab411\Microchip\ZigBeeStack\zNWK.c
                  __pa_74   0x003d88    program     static C:\Users\TienDat\Desktop\ActorHome\PIC18_Zigbee_v2\PIC18_Zigbee_R&D_by_Lab411\Microchip\ZigBeeStack\zNWK.c
                  __pa_75   0x003d92    program     static C:\Users\TienDat\Desktop\ActorHome\PIC18_Zigbee_v2\PIC18_Zigbee_R&D_by_Lab411\Microchip\ZigBeeStack\zNWK.c
                  __pa_76   0x003d9c    program     static C:\Users\TienDat\Desktop\ActorHome\PIC18_Zigbee_v2\PIC18_Zigbee_R&D_by_Lab411\Microchip\ZigBeeStack\zNWK.c
                  __pa_77   0x003dac    program     static C:\Users\TienDat\Desktop\ActorHome\PIC18_Zigbee_v2\PIC18_Zigbee_R&D_by_Lab411\Microchip\ZigBeeStack\zNWK.c
                  __pa_78   0x003db6    program     static C:\Users\TienDat\Desktop\ActorHome\PIC18_Zigbee_v2\PIC18_Zigbee_R&D_by_Lab411\Microchip\ZigBeeStack\zNWK.c
                  __pa_79   0x003dc0    program     static C:\Users\TienDat\Desktop\ActorHome\PIC18_Zigbee_v2\PIC18_Zigbee_R&D_by_Lab411\Microchip\ZigBeeStack\zNWK.c
                  __pa_80   0x003dc8    program     static C:\Users\TienDat\Desktop\ActorHome\PIC18_Zigbee_v2\PIC18_Zigbee_R&D_by_Lab411\Microchip\ZigBeeStack\zNWK.c
                  __pa_81   0x003dd2    program     static C:\Users\TienDat\Desktop\ActorHome\PIC18_Zigbee_v2\PIC18_Zigbee_R&D_by_Lab411\Microchip\ZigBeeStack\zNWK.c
                  __pa_82   0x003de8    program     static C:\Users\TienDat\Desktop\ActorHome\PIC18_Zigbee_v2\PIC18_Zigbee_R&D_by_Lab411\Microchip\ZigBeeStack\zNWK.c
                  __pa_83   0x003df8    program     static C:\Users\TienDat\Desktop\ActorHome\PIC18_Zigbee_v2\PIC18_Zigbee_R&D_by_Lab411\Microchip\ZigBeeStack\zNWK.c
                  __pa_84   0x003e0e    program     static C:\Users\TienDat\Desktop\ActorHome\PIC18_Zigbee_v2\PIC18_Zigbee_R&D_by_Lab411\Microchip\ZigBeeStack\zNWK.c
                  __pa_85   0x003e1e    program     static C:\Users\TienDat\Desktop\ActorHome\PIC18_Zigbee_v2\PIC18_Zigbee_R&D_by_Lab411\Microchip\ZigBeeStack\zNWK.c
                  __pa_86   0x003e2a    program     static C:\Users\TienDat\Desktop\ActorHome\PIC18_Zigbee_v2\PIC18_Zigbee_R&D_by_Lab411\Microchip\ZigBeeStack\zNWK.c
                  __pa_87   0x003e32    program     static C:\Users\TienDat\Desktop\ActorHome\PIC18_Zigbee_v2\PIC18_Zigbee_R&D_by_Lab411\Microchip\ZigBeeStack\zNWK.c
                  __pa_88   0x003e40    program     static C:\Users\TienDat\Desktop\ActorHome\PIC18_Zigbee_v2\PIC18_Zigbee_R&D_by_Lab411\Microchip\ZigBeeStack\zNWK.c
                  __pa_89   0x003e4a    program     static C:\Users\TienDat\Desktop\ActorHome\PIC18_Zigbee_v2\PIC18_Zigbee_R&D_by_Lab411\Microchip\ZigBeeStack\zNWK.c
                  __pa_90   0x003e54    program     static C:\Users\TienDat\Desktop\ActorHome\PIC18_Zigbee_v2\PIC18_Zigbee_R&D_by_Lab411\Microchip\ZigBeeStack\zNWK.c
                  __pa_91   0x003e5e    program     static C:\Users\TienDat\Desktop\ActorHome\PIC18_Zigbee_v2\PIC18_Zigbee_R&D_by_Lab411\Microchip\ZigBeeStack\zNWK.c
                  __pa_92   0x003e68    program     static C:\Users\TienDat\Desktop\ActorHome\PIC18_Zigbee_v2\PIC18_Zigbee_R&D_by_Lab411\Microchip\ZigBeeStack\zNWK.c
                  __pa_93   0x003e7c    program     static C:\Users\TienDat\Desktop\ActorHome\PIC18_Zigbee_v2\PIC18_Zigbee_R&D_by_Lab411\Microchip\ZigBeeStack\zNWK.c
                  __pa_94   0x003e90    program     static C:\Users\TienDat\Desktop\ActorHome\PIC18_Zigbee_v2\PIC18_Zigbee_R&D_by_Lab411\Microchip\ZigBeeStack\zNWK.c
                  __pa_95   0x003ea4    program     static C:\Users\TienDat\Desktop\ActorHome\PIC18_Zigbee_v2\PIC18_Zigbee_R&D_by_Lab411\Microchip\ZigBeeStack\zNWK.c
                  __pa_96   0x003eb8    program     static C:\Users\TienDat\Desktop\ActorHome\PIC18_Zigbee_v2\PIC18_Zigbee_R&D_by_Lab411\Microchip\ZigBeeStack\zNWK.c
                  __pa_97   0x003ebe    program     static C:\Users\TienDat\Desktop\ActorHome\PIC18_Zigbee_v2\PIC18_Zigbee_R&D_by_Lab411\Microchip\ZigBeeStack\zNWK.c
                  __pa_98   0x003ed2    program     static C:\Users\TienDat\Desktop\ActorHome\PIC18_Zigbee_v2\PIC18_Zigbee_R&D_by_Lab411\Microchip\ZigBeeStack\zNWK.c
                  __pa_99   0x003ede    program     static C:\Users\TienDat\Desktop\ActorHome\PIC18_Zigbee_v2\PIC18_Zigbee_R&D_by_Lab411\Microchip\ZigBeeStack\zNWK.c
                 __pa_100   0x003eea    program     static C:\Users\TienDat\Desktop\ActorHome\PIC18_Zigbee_v2\PIC18_Zigbee_R&D_by_Lab411\Microchip\ZigBeeStack\zNWK.c
                 __pa_101   0x003ef0    program     static C:\Users\TienDat\Desktop\ActorHome\PIC18_Zigbee_v2\PIC18_Zigbee_R&D_by_Lab411\Microchip\ZigBeeStack\zNWK.c
                 __pa_102   0x003efc    program     static C:\Users\TienDat\Desktop\ActorHome\PIC18_Zigbee_v2\PIC18_Zigbee_R&D_by_Lab411\Microchip\ZigBeeStack\zNWK.c
                 __pa_103   0x003f02    program     static C:\Users\TienDat\Desktop\ActorHome\PIC18_Zigbee_v2\PIC18_Zigbee_R&D_by_Lab411\Microchip\ZigBeeStack\zNWK.c
                 __pa_104   0x003f0e    program     static C:\Users\TienDat\Desktop\ActorHome\PIC18_Zigbee_v2\PIC18_Zigbee_R&D_by_Lab411\Microchip\ZigBeeStack\zNWK.c
                 __pa_105   0x003f18    program     static C:\Users\TienDat\Desktop\ActorHome\PIC18_Zigbee_v2\PIC18_Zigbee_R&D_by_Lab411\Microchip\ZigBeeStack\zNWK.c
                 __pa_106   0x003f24    program     static C:\Users\TienDat\Desktop\ActorHome\PIC18_Zigbee_v2\PIC18_Zigbee_R&D_by_Lab411\Microchip\ZigBeeStack\zNWK.c
                 __pa_107   0x003f2e    program     static C:\Users\TienDat\Desktop\ActorHome\PIC18_Zigbee_v2\PIC18_Zigbee_R&D_by_Lab411\Microchip\ZigBeeStack\zNWK.c
                 __pa_108   0x003f36    program     static C:\Users\TienDat\Desktop\ActorHome\PIC18_Zigbee_v2\PIC18_Zigbee_R&D_by_Lab411\Microchip\ZigBeeStack\zNWK.c
                 __pa_109   0x003f3e    program     static C:\Users\TienDat\Desktop\ActorHome\PIC18_Zigbee_v2\PIC18_Zigbee_R&D_by_Lab411\Microchip\ZigBeeStack\zNWK.c
                 __pa_110   0x003f46    program     static C:\Users\TienDat\Desktop\ActorHome\PIC18_Zigbee_v2\PIC18_Zigbee_R&D_by_Lab411\Microchip\ZigBeeStack\zNWK.c
                 __pa_111   0x003f4e    program     static C:\Users\TienDat\Desktop\ActorHome\PIC18_Zigbee_v2\PIC18_Zigbee_R&D_by_Lab411\Microchip\ZigBeeStack\zNWK.c
                 __pa_112   0x003f56    program     static C:\Users\TienDat\Desktop\ActorHome\PIC18_Zigbee_v2\PIC18_Zigbee_R&D_by_Lab411\Microchip\ZigBeeStack\zNWK.c
                 __pa_113   0x003f66    program     static C:\Users\TienDat\Desktop\ActorHome\PIC18_Zigbee_v2\PIC18_Zigbee_R&D_by_Lab411\Microchip\ZigBeeStack\zNWK.c
                 __pa_114   0x003f76    program     static C:\Users\TienDat\Desktop\ActorHome\PIC18_Zigbee_v2\PIC18_Zigbee_R&D_by_Lab411\Microchip\ZigBeeStack\zNWK.c
                 __pa_115   0x003f86    program     static C:\Users\TienDat\Desktop\ActorHome\PIC18_Zigbee_v2\PIC18_Zigbee_R&D_by_Lab411\Microchip\ZigBeeStack\zNWK.c
                 __pa_116   0x003f96    program     static C:\Users\TienDat\Desktop\ActorHome\PIC18_Zigbee_v2\PIC18_Zigbee_R&D_by_Lab411\Microchip\ZigBeeStack\zNWK.c
                 __pa_117   0x003fa6    program     static C:\Users\TienDat\Desktop\ActorHome\PIC18_Zigbee_v2\PIC18_Zigbee_R&D_by_Lab411\Microchip\ZigBeeStack\zNWK.c
                 __pa_118   0x003fb6    program     static C:\Users\TienDat\Desktop\ActorHome\PIC18_Zigbee_v2\PIC18_Zigbee_R&D_by_Lab411\Microchip\ZigBeeStack\zNWK.c
                 __pa_119   0x003fbe    program     static C:\Users\TienDat\Desktop\ActorHome\PIC18_Zigbee_v2\PIC18_Zigbee_R&D_by_Lab411\Microchip\ZigBeeStack\zNWK.c
                 __pa_120   0x003fc6    program     static C:\Users\TienDat\Desktop\ActorHome\PIC18_Zigbee_v2\PIC18_Zigbee_R&D_by_Lab411\Microchip\ZigBeeStack\zNWK.c
                 __pa_121   0x003fd4    program     static C:\Users\TienDat\Desktop\ActorHome\PIC18_Zigbee_v2\PIC18_Zigbee_R&D_by_Lab411\Microchip\ZigBeeStack\zNWK.c
                 __pa_122   0x003fdc    program     static C:\Users\TienDat\Desktop\ActorHome\PIC18_Zigbee_v2\PIC18_Zigbee_R&D_by_Lab411\Microchip\ZigBeeStack\zNWK.c
                 __pa_123   0x003fe8    program     static C:\Users\TienDat\Desktop\ActorHome\PIC18_Zigbee_v2\PIC18_Zigbee_R&D_by_Lab411\Microchip\ZigBeeStack\zNWK.c
                 __pa_124   0x003ff0    program     static C:\Users\TienDat\Desktop\ActorHome\PIC18_Zigbee_v2\PIC18_Zigbee_R&D_by_Lab411\Microchip\ZigBeeStack\zNWK.c
                 __pa_125   0x003ffe    program     static C:\Users\TienDat\Desktop\ActorHome\PIC18_Zigbee_v2\PIC18_Zigbee_R&D_by_Lab411\Microchip\ZigBeeStack\zNWK.c
                 __pa_126   0x00400c    program     static C:\Users\TienDat\Desktop\ActorHome\PIC18_Zigbee_v2\PIC18_Zigbee_R&D_by_Lab411\Microchip\ZigBeeStack\zNWK.c
                 __pa_127   0x00401a    program     static C:\Users\TienDat\Desktop\ActorHome\PIC18_Zigbee_v2\PIC18_Zigbee_R&D_by_Lab411\Microchip\ZigBeeStack\zNWK.c
                 __pa_128   0x004024    program     static C:\Users\TienDat\Desktop\ActorHome\PIC18_Zigbee_v2\PIC18_Zigbee_R&D_by_Lab411\Microchip\ZigBeeStack\zNWK.c
                 __pa_129   0x00402e    program     static C:\Users\TienDat\Desktop\ActorHome\PIC18_Zigbee_v2\PIC18_Zigbee_R&D_by_Lab411\Microchip\ZigBeeStack\zNWK.c
                 __pa_130   0x004038    program     static C:\Users\TienDat\Desktop\ActorHome\PIC18_Zigbee_v2\PIC18_Zigbee_R&D_by_Lab411\Microchip\ZigBeeStack\zNWK.c
                 __pa_131   0x004042    program     static C:\Users\TienDat\Desktop\ActorHome\PIC18_Zigbee_v2\PIC18_Zigbee_R&D_by_Lab411\Microchip\ZigBeeStack\zNWK.c
                 __pa_132   0x00404c    program     static C:\Users\TienDat\Desktop\ActorHome\PIC18_Zigbee_v2\PIC18_Zigbee_R&D_by_Lab411\Microchip\ZigBeeStack\zNWK.c
                 __pa_133   0x004054    program     static C:\Users\TienDat\Desktop\ActorHome\PIC18_Zigbee_v2\PIC18_Zigbee_R&D_by_Lab411\Microchip\ZigBeeStack\zNWK.c
                 __pa_134   0x00405e    program     static C:\Users\TienDat\Desktop\ActorHome\PIC18_Zigbee_v2\PIC18_Zigbee_R&D_by_Lab411\Microchip\ZigBeeStack\zNWK.c
                 __pa_135   0x004068    program     static C:\Users\TienDat\Desktop\ActorHome\PIC18_Zigbee_v2\PIC18_Zigbee_R&D_by_Lab411\Microchip\ZigBeeStack\zNWK.c
                 __pa_136   0x004070    program     static C:\Users\TienDat\Desktop\ActorHome\PIC18_Zigbee_v2\PIC18_Zigbee_R&D_by_Lab411\Microchip\ZigBeeStack\zNWK.c
                 __pa_137   0x004078    program     static C:\Users\TienDat\Desktop\ActorHome\PIC18_Zigbee_v2\PIC18_Zigbee_R&D_by_Lab411\Microchip\ZigBeeStack\zNWK.c
                 __pa_138   0x004080    program     static C:\Users\TienDat\Desktop\ActorHome\PIC18_Zigbee_v2\PIC18_Zigbee_R&D_by_Lab411\Microchip\ZigBeeStack\zNWK.c
                 __pa_139   0x004088    program     static C:\Users\TienDat\Desktop\ActorHome\PIC18_Zigbee_v2\PIC18_Zigbee_R&D_by_Lab411\Microchip\ZigBeeStack\zNWK.c
                 __pa_140   0x0040a0    program     static C:\Users\TienDat\Desktop\ActorHome\PIC18_Zigbee_v2\PIC18_Zigbee_R&D_by_Lab411\Microchip\ZigBeeStack\zNWK.c
                 __pa_141   0x0040b2    program     static C:\Users\TienDat\Desktop\ActorHome\PIC18_Zigbee_v2\PIC18_Zigbee_R&D_by_Lab411\Microchip\ZigBeeStack\zNWK.c
                 __pa_142   0x0040c0    program     static C:\Users\TienDat\Desktop\ActorHome\PIC18_Zigbee_v2\PIC18_Zigbee_R&D_by_Lab411\Microchip\ZigBeeStack\zNWK.c
                 __pa_143   0x0040d4    program     static C:\Users\TienDat\Desktop\ActorHome\PIC18_Zigbee_v2\PIC18_Zigbee_R&D_by_Lab411\Microchip\ZigBeeStack\zNWK.c
                 __pa_144   0x0040da    program     static C:\Users\TienDat\Desktop\ActorHome\PIC18_Zigbee_v2\PIC18_Zigbee_R&D_by_Lab411\Microchip\ZigBeeStack\zNWK.c
                 __pa_145   0x0040e0    program     static C:\Users\TienDat\Desktop\ActorHome\PIC18_Zigbee_v2\PIC18_Zigbee_R&D_by_Lab411\Microchip\ZigBeeStack\zNWK.c
                 __pa_146   0x0040ea    program     static C:\Users\TienDat\Desktop\ActorHome\PIC18_Zigbee_v2\PIC18_Zigbee_R&D_by_Lab411\Microchip\ZigBeeStack\zNWK.c
                 __pa_147   0x0040f0    program     static C:\Users\TienDat\Desktop\ActorHome\PIC18_Zigbee_v2\PIC18_Zigbee_R&D_by_Lab411\Microchip\ZigBeeStack\zNWK.c
                 __pa_148   0x0040fa    program     static C:\Users\TienDat\Desktop\ActorHome\PIC18_Zigbee_v2\PIC18_Zigbee_R&D_by_Lab411\Microchip\ZigBeeStack\zNWK.c
                 __pa_149   0x004102    program     static C:\Users\TienDat\Desktop\ActorHome\PIC18_Zigbee_v2\PIC18_Zigbee_R&D_by_Lab411\Microchip\ZigBeeStack\zNWK.c
                 __pa_150   0x00410a    program     static C:\Users\TienDat\Desktop\ActorHome\PIC18_Zigbee_v2\PIC18_Zigbee_R&D_by_Lab411\Microchip\ZigBeeStack\zNWK.c
                 __pa_151   0x004112    program     static C:\Users\TienDat\Desktop\ActorHome\PIC18_Zigbee_v2\PIC18_Zigbee_R&D_by_Lab411\Microchip\ZigBeeStack\zNWK.c
                 __pa_152   0x004122    program     static C:\Users\TienDat\Desktop\ActorHome\PIC18_Zigbee_v2\PIC18_Zigbee_R&D_by_Lab411\Microchip\ZigBeeStack\zNWK.c
                 __pa_153   0x004128    program     static C:\Users\TienDat\Desktop\ActorHome\PIC18_Zigbee_v2\PIC18_Zigbee_R&D_by_Lab411\Microchip\ZigBeeStack\zNWK.c
                 __pa_154   0x00412e    program     static C:\Users\TienDat\Desktop\ActorHome\PIC18_Zigbee_v2\PIC18_Zigbee_R&D_by_Lab411\Microchip\ZigBeeStack\zNWK.c
                 __pa_155   0x004134    program     static C:\Users\TienDat\Desktop\ActorHome\PIC18_Zigbee_v2\PIC18_Zigbee_R&D_by_Lab411\Microchip\ZigBeeStack\zNWK.c
                 __pa_156   0x00413a    program     static C:\Users\TienDat\Desktop\ActorHome\PIC18_Zigbee_v2\PIC18_Zigbee_R&D_by_Lab411\Microchip\ZigBeeStack\zNWK.c
                 __pa_157   0x004140    program     static C:\Users\TienDat\Desktop\ActorHome\PIC18_Zigbee_v2\PIC18_Zigbee_R&D_by_Lab411\Microchip\ZigBeeStack\zNWK.c
                 __pa_158   0x00414a    program     static C:\Users\TienDat\Desktop\ActorHome\PIC18_Zigbee_v2\PIC18_Zigbee_R&D_by_Lab411\Microchip\ZigBeeStack\zNWK.c
                 __pa_159   0x004152    program     static C:\Users\TienDat\Desktop\ActorHome\PIC18_Zigbee_v2\PIC18_Zigbee_R&D_by_Lab411\Microchip\ZigBeeStack\zNWK.c
                 __pa_160   0x004158    program     static C:\Users\TienDat\Desktop\ActorHome\PIC18_Zigbee_v2\PIC18_Zigbee_R&D_by_Lab411\Microchip\ZigBeeStack\zNWK.c
                 __pa_161   0x00415e    program     static C:\Users\TienDat\Desktop\ActorHome\PIC18_Zigbee_v2\PIC18_Zigbee_R&D_by_Lab411\Microchip\ZigBeeStack\zNWK.c
                 __pa_162   0x00417e    program     static C:\Users\TienDat\Desktop\ActorHome\PIC18_Zigbee_v2\PIC18_Zigbee_R&D_by_Lab411\Microchip\ZigBeeStack\zNWK.c
                 __pa_163   0x00418a    program     static C:\Users\TienDat\Desktop\ActorHome\PIC18_Zigbee_v2\PIC18_Zigbee_R&D_by_Lab411\Microchip\ZigBeeStack\zNWK.c
                 __pa_164   0x004190    program     static C:\Users\TienDat\Desktop\ActorHome\PIC18_Zigbee_v2\PIC18_Zigbee_R&D_by_Lab411\Microchip\ZigBeeStack\zNWK.c
                 __pa_165   0x0041a2    program     static C:\Users\TienDat\Desktop\ActorHome\PIC18_Zigbee_v2\PIC18_Zigbee_R&D_by_Lab411\Microchip\ZigBeeStack\zNWK.c
                 __pa_166   0x0041a8    program     static C:\Users\TienDat\Desktop\ActorHome\PIC18_Zigbee_v2\PIC18_Zigbee_R&D_by_Lab411\Microchip\ZigBeeStack\zNWK.c
                 __pa_167   0x0041ae    program     static C:\Users\TienDat\Desktop\ActorHome\PIC18_Zigbee_v2\PIC18_Zigbee_R&D_by_Lab411\Microchip\ZigBeeStack\zNWK.c
                 __pa_168   0x0041bc    program     static C:\Users\TienDat\Desktop\ActorHome\PIC18_Zigbee_v2\PIC18_Zigbee_R&D_by_Lab411\Microchip\ZigBeeStack\zNWK.c
                 __pa_169   0x0041c2    program     static C:\Users\TienDat\Desktop\ActorHome\PIC18_Zigbee_v2\PIC18_Zigbee_R&D_by_Lab411\Microchip\ZigBeeStack\zNWK.c
                 __pa_170   0x0041d2    program     static C:\Users\TienDat\Desktop\ActorHome\PIC18_Zigbee_v2\PIC18_Zigbee_R&D_by_Lab411\Microchip\ZigBeeStack\zNWK.c
                 __pa_171   0x0041dc    program     static C:\Users\TienDat\Desktop\ActorHome\PIC18_Zigbee_v2\PIC18_Zigbee_R&D_by_Lab411\Microchip\ZigBeeStack\zNWK.c
                 __pa_172   0x0041e6    program     static C:\Users\TienDat\Desktop\ActorHome\PIC18_Zigbee_v2\PIC18_Zigbee_R&D_by_Lab411\Microchip\ZigBeeStack\zNWK.c
                 __pa_173   0x0041f0    program     static C:\Users\TienDat\Desktop\ActorHome\PIC18_Zigbee_v2\PIC18_Zigbee_R&D_by_Lab411\Microchip\ZigBeeStack\zNWK.c
                 __pa_174   0x0041fc    program     static C:\Users\TienDat\Desktop\ActorHome\PIC18_Zigbee_v2\PIC18_Zigbee_R&D_by_Lab411\Microchip\ZigBeeStack\zNWK.c
                 __pa_175   0x004204    program     static C:\Users\TienDat\Desktop\ActorHome\PIC18_Zigbee_v2\PIC18_Zigbee_R&D_by_Lab411\Microchip\ZigBeeStack\zNWK.c
                 __pa_176   0x00420c    program     static C:\Users\TienDat\Desktop\ActorHome\PIC18_Zigbee_v2\PIC18_Zigbee_R&D_by_Lab411\Microchip\ZigBeeStack\zNWK.c
                 __pa_177   0x004212    program     static C:\Users\TienDat\Desktop\ActorHome\PIC18_Zigbee_v2\PIC18_Zigbee_R&D_by_Lab411\Microchip\ZigBeeStack\zNWK.c
                 __pa_178   0x00422c    program     static C:\Users\TienDat\Desktop\ActorHome\PIC18_Zigbee_v2\PIC18_Zigbee_R&D_by_Lab411\Microchip\ZigBeeStack\zNWK.c
                 __pa_179   0x00423c    program     static C:\Users\TienDat\Desktop\ActorHome\PIC18_Zigbee_v2\PIC18_Zigbee_R&D_by_Lab411\Microchip\ZigBeeStack\zNWK.c
                 __pa_180   0x004244    program     static C:\Users\TienDat\Desktop\ActorHome\PIC18_Zigbee_v2\PIC18_Zigbee_R&D_by_Lab411\Microchip\ZigBeeStack\zNWK.c
                 __pa_181   0x004250    program     static C:\Users\TienDat\Desktop\ActorHome\PIC18_Zigbee_v2\PIC18_Zigbee_R&D_by_Lab411\Microchip\ZigBeeStack\zNWK.c
                 __pa_182   0x00425c    program     static C:\Users\TienDat\Desktop\ActorHome\PIC18_Zigbee_v2\PIC18_Zigbee_R&D_by_Lab411\Microchip\ZigBeeStack\zNWK.c
                 __pa_183   0x004264    program     static C:\Users\TienDat\Desktop\ActorHome\PIC18_Zigbee_v2\PIC18_Zigbee_R&D_by_Lab411\Microchip\ZigBeeStack\zNWK.c
                 __pa_184   0x004274    program     static C:\Users\TienDat\Desktop\ActorHome\PIC18_Zigbee_v2\PIC18_Zigbee_R&D_by_Lab411\Microchip\ZigBeeStack\zNWK.c
                 __pa_185   0x00427c    program     static C:\Users\TienDat\Desktop\ActorHome\PIC18_Zigbee_v2\PIC18_Zigbee_R&D_by_Lab411\Microchip\ZigBeeStack\zNWK.c
                 __pa_186   0x004282    program     static C:\Users\TienDat\Desktop\ActorHome\PIC18_Zigbee_v2\PIC18_Zigbee_R&D_by_Lab411\Microchip\ZigBeeStack\zNWK.c
                 __pa_187   0x00428a    program     static C:\Users\TienDat\Desktop\ActorHome\PIC18_Zigbee_v2\PIC18_Zigbee_R&D_by_Lab411\Microchip\ZigBeeStack\zNWK.c
             __tmplbl_401   0x004298    program     static                          
             __tmplbl_402   0x004298    program     static                          
                 __pa_188   0x004298    program     static C:\Users\TienDat\Desktop\ActorHome\PIC18_Zigbee_v2\PIC18_Zigbee_R&D_by_Lab411\Microchip\ZigBeeStack\zNWK.c
                 __pa_189   0x0042a4    program     static C:\Users\TienDat\Desktop\ActorHome\PIC18_Zigbee_v2\PIC18_Zigbee_R&D_by_Lab411\Microchip\ZigBeeStack\zNWK.c
                 __pa_190   0x0042ac    program     static C:\Users\TienDat\Desktop\ActorHome\PIC18_Zigbee_v2\PIC18_Zigbee_R&D_by_Lab411\Microchip\ZigBeeStack\zNWK.c
                 __pa_191   0x0042b6    program     static C:\Users\TienDat\Desktop\ActorHome\PIC18_Zigbee_v2\PIC18_Zigbee_R&D_by_Lab411\Microchip\ZigBeeStack\zNWK.c
                 __pa_192   0x0042c0    program     static C:\Users\TienDat\Desktop\ActorHome\PIC18_Zigbee_v2\PIC18_Zigbee_R&D_by_Lab411\Microchip\ZigBeeStack\zNWK.c
                 __pa_193   0x0042cc    program     static C:\Users\TienDat\Desktop\ActorHome\PIC18_Zigbee_v2\PIC18_Zigbee_R&D_by_Lab411\Microchip\ZigBeeStack\zNWK.c
                 __pa_194   0x0042d2    program     static C:\Users\TienDat\Desktop\ActorHome\PIC18_Zigbee_v2\PIC18_Zigbee_R&D_by_Lab411\Microchip\ZigBeeStack\zNWK.c
                 __pa_195   0x0042da    program     static C:\Users\TienDat\Desktop\ActorHome\PIC18_Zigbee_v2\PIC18_Zigbee_R&D_by_Lab411\Microchip\ZigBeeStack\zNWK.c
                 __pa_196   0x0042ec    program     static C:\Users\TienDat\Desktop\ActorHome\PIC18_Zigbee_v2\PIC18_Zigbee_R&D_by_Lab411\Microchip\ZigBeeStack\zNWK.c
                 __pa_197   0x0042fc    program     static C:\Users\TienDat\Desktop\ActorHome\PIC18_Zigbee_v2\PIC18_Zigbee_R&D_by_Lab411\Microchip\ZigBeeStack\zNWK.c
                 __pa_198   0x00430e    program     static C:\Users\TienDat\Desktop\ActorHome\PIC18_Zigbee_v2\PIC18_Zigbee_R&D_by_Lab411\Microchip\ZigBeeStack\zNWK.c
                 __pa_199   0x004318    program     static C:\Users\TienDat\Desktop\ActorHome\PIC18_Zigbee_v2\PIC18_Zigbee_R&D_by_Lab411\Microchip\ZigBeeStack\zNWK.c
                 __pa_200   0x004324    program     static C:\Users\TienDat\Desktop\ActorHome\PIC18_Zigbee_v2\PIC18_Zigbee_R&D_by_Lab411\Microchip\ZigBeeStack\zNWK.c
                 __pa_201   0x00432e    program     static C:\Users\TienDat\Desktop\ActorHome\PIC18_Zigbee_v2\PIC18_Zigbee_R&D_by_Lab411\Microchip\ZigBeeStack\zNWK.c
                 __pa_202   0x004338    program     static C:\Users\TienDat\Desktop\ActorHome\PIC18_Zigbee_v2\PIC18_Zigbee_R&D_by_Lab411\Microchip\ZigBeeStack\zNWK.c
                 __pa_203   0x004344    program     static C:\Users\TienDat\Desktop\ActorHome\PIC18_Zigbee_v2\PIC18_Zigbee_R&D_by_Lab411\Microchip\ZigBeeStack\zNWK.c
                 __pa_204   0x00434c    program     static C:\Users\TienDat\Desktop\ActorHome\PIC18_Zigbee_v2\PIC18_Zigbee_R&D_by_Lab411\Microchip\ZigBeeStack\zNWK.c
                 __pa_205   0x004356    program     static C:\Users\TienDat\Desktop\ActorHome\PIC18_Zigbee_v2\PIC18_Zigbee_R&D_by_Lab411\Microchip\ZigBeeStack\zNWK.c
                 __pa_206   0x00435e    program     static C:\Users\TienDat\Desktop\ActorHome\PIC18_Zigbee_v2\PIC18_Zigbee_R&D_by_Lab411\Microchip\ZigBeeStack\zNWK.c
                 __pa_207   0x004364    program     static C:\Users\TienDat\Desktop\ActorHome\PIC18_Zigbee_v2\PIC18_Zigbee_R&D_by_Lab411\Microchip\ZigBeeStack\zNWK.c
                 __pa_208   0x00436c    program     static C:\Users\TienDat\Desktop\ActorHome\PIC18_Zigbee_v2\PIC18_Zigbee_R&D_by_Lab411\Microchip\ZigBeeStack\zNWK.c
                 __pa_209   0x00437a    program     static C:\Users\TienDat\Desktop\ActorHome\PIC18_Zigbee_v2\PIC18_Zigbee_R&D_by_Lab411\Microchip\ZigBeeStack\zNWK.c
                 __pa_210   0x004388    program     static C:\Users\TienDat\Desktop\ActorHome\PIC18_Zigbee_v2\PIC18_Zigbee_R&D_by_Lab411\Microchip\ZigBeeStack\zNWK.c
                 __pa_211   0x004392    program     static C:\Users\TienDat\Desktop\ActorHome\PIC18_Zigbee_v2\PIC18_Zigbee_R&D_by_Lab411\Microchip\ZigBeeStack\zNWK.c
                 __pa_212   0x0043a2    program     static C:\Users\TienDat\Desktop\ActorHome\PIC18_Zigbee_v2\PIC18_Zigbee_R&D_by_Lab411\Microchip\ZigBeeStack\zNWK.c
                 __pa_213   0x0043b2    program     static C:\Users\TienDat\Desktop\ActorHome\PIC18_Zigbee_v2\PIC18_Zigbee_R&D_by_Lab411\Microchip\ZigBeeStack\zNWK.c
                 __pa_214   0x0043c0    program     static C:\Users\TienDat\Desktop\ActorHome\PIC18_Zigbee_v2\PIC18_Zigbee_R&D_by_Lab411\Microchip\ZigBeeStack\zNWK.c
                 __pa_215   0x0043ce    program     static C:\Users\TienDat\Desktop\ActorHome\PIC18_Zigbee_v2\PIC18_Zigbee_R&D_by_Lab411\Microchip\ZigBeeStack\zNWK.c
             __tmplbl_405   0x0043ce    program     static                          
                 __pa_216   0x0043dc    program     static C:\Users\TienDat\Desktop\ActorHome\PIC18_Zigbee_v2\PIC18_Zigbee_R&D_by_Lab411\Microchip\ZigBeeStack\zNWK.c
                 __pa_217   0x0043e4    program     static C:\Users\TienDat\Desktop\ActorHome\PIC18_Zigbee_v2\PIC18_Zigbee_R&D_by_Lab411\Microchip\ZigBeeStack\zNWK.c
                 __pa_218   0x0043ea    program     static C:\Users\TienDat\Desktop\ActorHome\PIC18_Zigbee_v2\PIC18_Zigbee_R&D_by_Lab411\Microchip\ZigBeeStack\zNWK.c
                 __pa_219   0x0043f4    program     static C:\Users\TienDat\Desktop\ActorHome\PIC18_Zigbee_v2\PIC18_Zigbee_R&D_by_Lab411\Microchip\ZigBeeStack\zNWK.c
                 __pa_220   0x004400    program     static C:\Users\TienDat\Desktop\ActorHome\PIC18_Zigbee_v2\PIC18_Zigbee_R&D_by_Lab411\Microchip\ZigBeeStack\zNWK.c
                 __pa_221   0x00440e    program     static C:\Users\TienDat\Desktop\ActorHome\PIC18_Zigbee_v2\PIC18_Zigbee_R&D_by_Lab411\Microchip\ZigBeeStack\zNWK.c
                 __pa_222   0x00441c    program     static C:\Users\TienDat\Desktop\ActorHome\PIC18_Zigbee_v2\PIC18_Zigbee_R&D_by_Lab411\Microchip\ZigBeeStack\zNWK.c
                 __pa_223   0x004428    program     static C:\Users\TienDat\Desktop\ActorHome\PIC18_Zigbee_v2\PIC18_Zigbee_R&D_by_Lab411\Microchip\ZigBeeStack\zNWK.c
                 __pa_224   0x004436    program     static C:\Users\TienDat\Desktop\ActorHome\PIC18_Zigbee_v2\PIC18_Zigbee_R&D_by_Lab411\Microchip\ZigBeeStack\zNWK.c
                 __pa_225   0x004444    program     static C:\Users\TienDat\Desktop\ActorHome\PIC18_Zigbee_v2\PIC18_Zigbee_R&D_by_Lab411\Microchip\ZigBeeStack\zNWK.c
                 __pa_226   0x004450    program     static C:\Users\TienDat\Desktop\ActorHome\PIC18_Zigbee_v2\PIC18_Zigbee_R&D_by_Lab411\Microchip\ZigBeeStack\zNWK.c
                 __pa_227   0x00445e    program     static C:\Users\TienDat\Desktop\ActorHome\PIC18_Zigbee_v2\PIC18_Zigbee_R&D_by_Lab411\Microchip\ZigBeeStack\zNWK.c
                 __pa_228   0x00446c    program     static C:\Users\TienDat\Desktop\ActorHome\PIC18_Zigbee_v2\PIC18_Zigbee_R&D_by_Lab411\Microchip\ZigBeeStack\zNWK.c
                 __pa_229   0x004472    program     static C:\Users\TienDat\Desktop\ActorHome\PIC18_Zigbee_v2\PIC18_Zigbee_R&D_by_Lab411\Microchip\ZigBeeStack\zNWK.c
                 __pa_230   0x004480    program     static C:\Users\TienDat\Desktop\ActorHome\PIC18_Zigbee_v2\PIC18_Zigbee_R&D_by_Lab411\Microchip\ZigBeeStack\zNWK.c
                 __pa_231   0x00448e    program     static C:\Users\TienDat\Desktop\ActorHome\PIC18_Zigbee_v2\PIC18_Zigbee_R&D_by_Lab411\Microchip\ZigBeeStack\zNWK.c
                 __pa_232   0x004496    program     static C:\Users\TienDat\Desktop\ActorHome\PIC18_Zigbee_v2\PIC18_Zigbee_R&D_by_Lab411\Microchip\ZigBeeStack\zNWK.c
                 __pa_233   0x00449e    program     static C:\Users\TienDat\Desktop\ActorHome\PIC18_Zigbee_v2\PIC18_Zigbee_R&D_by_Lab411\Microchip\ZigBeeStack\zNWK.c
                 __pa_234   0x0044a8    program     static C:\Users\TienDat\Desktop\ActorHome\PIC18_Zigbee_v2\PIC18_Zigbee_R&D_by_Lab411\Microchip\ZigBeeStack\zNWK.c
                 __pa_235   0x0044b2    program     static C:\Users\TienDat\Desktop\ActorHome\PIC18_Zigbee_v2\PIC18_Zigbee_R&D_by_Lab411\Microchip\ZigBeeStack\zNWK.c
                 __pa_236   0x0044bc    program     static C:\Users\TienDat\Desktop\ActorHome\PIC18_Zigbee_v2\PIC18_Zigbee_R&D_by_Lab411\Microchip\ZigBeeStack\zNWK.c
                 __pa_237   0x0044c6    program     static C:\Users\TienDat\Desktop\ActorHome\PIC18_Zigbee_v2\PIC18_Zigbee_R&D_by_Lab411\Microchip\ZigBeeStack\zNWK.c
                 __pa_238   0x0044ce    program     static C:\Users\TienDat\Desktop\ActorHome\PIC18_Zigbee_v2\PIC18_Zigbee_R&D_by_Lab411\Microchip\ZigBeeStack\zNWK.c
                 __pa_239   0x0044d6    program     static C:\Users\TienDat\Desktop\ActorHome\PIC18_Zigbee_v2\PIC18_Zigbee_R&D_by_Lab411\Microchip\ZigBeeStack\zNWK.c
                 __pa_240   0x0044e0    program     static C:\Users\TienDat\Desktop\ActorHome\PIC18_Zigbee_v2\PIC18_Zigbee_R&D_by_Lab411\Microchip\ZigBeeStack\zNWK.c
                 __pa_241   0x0044ea    program     static C:\Users\TienDat\Desktop\ActorHome\PIC18_Zigbee_v2\PIC18_Zigbee_R&D_by_Lab411\Microchip\ZigBeeStack\zNWK.c
                 __pa_242   0x0044f4    program     static C:\Users\TienDat\Desktop\ActorHome\PIC18_Zigbee_v2\PIC18_Zigbee_R&D_by_Lab411\Microchip\ZigBeeStack\zNWK.c
                 __pa_243   0x0044fa    program     static C:\Users\TienDat\Desktop\ActorHome\PIC18_Zigbee_v2\PIC18_Zigbee_R&D_by_Lab411\Microchip\ZigBeeStack\zNWK.c
                 __pa_244   0x004500    program     static C:\Users\TienDat\Desktop\ActorHome\PIC18_Zigbee_v2\PIC18_Zigbee_R&D_by_Lab411\Microchip\ZigBeeStack\zNWK.c
                 __pa_245   0x004506    program     static C:\Users\TienDat\Desktop\ActorHome\PIC18_Zigbee_v2\PIC18_Zigbee_R&D_by_Lab411\Microchip\ZigBeeStack\zNWK.c
                 __pa_246   0x00450e    program     static C:\Users\TienDat\Desktop\ActorHome\PIC18_Zigbee_v2\PIC18_Zigbee_R&D_by_Lab411\Microchip\ZigBeeStack\zNWK.c
                 __pa_247   0x004516    program     static C:\Users\TienDat\Desktop\ActorHome\PIC18_Zigbee_v2\PIC18_Zigbee_R&D_by_Lab411\Microchip\ZigBeeStack\zNWK.c
                 __pa_248   0x00451e    program     static C:\Users\TienDat\Desktop\ActorHome\PIC18_Zigbee_v2\PIC18_Zigbee_R&D_by_Lab411\Microchip\ZigBeeStack\zNWK.c
                 __pa_249   0x004528    program     static C:\Users\TienDat\Desktop\ActorHome\PIC18_Zigbee_v2\PIC18_Zigbee_R&D_by_Lab411\Microchip\ZigBeeStack\zNWK.c
                 __pa_250   0x004544    program     static C:\Users\TienDat\Desktop\ActorHome\PIC18_Zigbee_v2\PIC18_Zigbee_R&D_by_Lab411\Microchip\ZigBeeStack\zNWK.c
                 __pa_251   0x00454a    program     static C:\Users\TienDat\Desktop\ActorHome\PIC18_Zigbee_v2\PIC18_Zigbee_R&D_by_Lab411\Microchip\ZigBeeStack\zNWK.c
                 __pa_252   0x004558    program     static C:\Users\TienDat\Desktop\ActorHome\PIC18_Zigbee_v2\PIC18_Zigbee_R&D_by_Lab411\Microchip\ZigBeeStack\zNWK.c
                 __pa_253   0x004564    program     static C:\Users\TienDat\Desktop\ActorHome\PIC18_Zigbee_v2\PIC18_Zigbee_R&D_by_Lab411\Microchip\ZigBeeStack\zNWK.c
                 __pa_254   0x004576    program     static C:\Users\TienDat\Desktop\ActorHome\PIC18_Zigbee_v2\PIC18_Zigbee_R&D_by_Lab411\Microchip\ZigBeeStack\zNWK.c
                 __pa_255   0x00457c    program     static C:\Users\TienDat\Desktop\ActorHome\PIC18_Zigbee_v2\PIC18_Zigbee_R&D_by_Lab411\Microchip\ZigBeeStack\zNWK.c
                 __pa_256   0x004586    program     static C:\Users\TienDat\Desktop\ActorHome\PIC18_Zigbee_v2\PIC18_Zigbee_R&D_by_Lab411\Microchip\ZigBeeStack\zNWK.c
                 __pa_257   0x00458e    program     static C:\Users\TienDat\Desktop\ActorHome\PIC18_Zigbee_v2\PIC18_Zigbee_R&D_by_Lab411\Microchip\ZigBeeStack\zNWK.c
                 __pa_258   0x0045a0    program     static C:\Users\TienDat\Desktop\ActorHome\PIC18_Zigbee_v2\PIC18_Zigbee_R&D_by_Lab411\Microchip\ZigBeeStack\zNWK.c
                 __pa_259   0x0045a8    program     static C:\Users\TienDat\Desktop\ActorHome\PIC18_Zigbee_v2\PIC18_Zigbee_R&D_by_Lab411\Microchip\ZigBeeStack\zNWK.c
                 __pa_260   0x0045b2    program     static C:\Users\TienDat\Desktop\ActorHome\PIC18_Zigbee_v2\PIC18_Zigbee_R&D_by_Lab411\Microchip\ZigBeeStack\zNWK.c
                 __pa_261   0x0045b8    program     static C:\Users\TienDat\Desktop\ActorHome\PIC18_Zigbee_v2\PIC18_Zigbee_R&D_by_Lab411\Microchip\ZigBeeStack\zNWK.c
                 __pa_262   0x0045c2    program     static C:\Users\TienDat\Desktop\ActorHome\PIC18_Zigbee_v2\PIC18_Zigbee_R&D_by_Lab411\Microchip\ZigBeeStack\zNWK.c
                 __pa_263   0x0045ca    program     static C:\Users\TienDat\Desktop\ActorHome\PIC18_Zigbee_v2\PIC18_Zigbee_R&D_by_Lab411\Microchip\ZigBeeStack\zNWK.c
                 __pa_264   0x0045d2    program     static C:\Users\TienDat\Desktop\ActorHome\PIC18_Zigbee_v2\PIC18_Zigbee_R&D_by_Lab411\Microchip\ZigBeeStack\zNWK.c
                 __pa_265   0x0045da    program     static C:\Users\TienDat\Desktop\ActorHome\PIC18_Zigbee_v2\PIC18_Zigbee_R&D_by_Lab411\Microchip\ZigBeeStack\zNWK.c
                 __pa_266   0x0045e0    program     static C:\Users\TienDat\Desktop\ActorHome\PIC18_Zigbee_v2\PIC18_Zigbee_R&D_by_Lab411\Microchip\ZigBeeStack\zNWK.c
                 __pa_267   0x0045ea    program     static C:\Users\TienDat\Desktop\ActorHome\PIC18_Zigbee_v2\PIC18_Zigbee_R&D_by_Lab411\Microchip\ZigBeeStack\zNWK.c
                 __pa_268   0x0045f4    program     static C:\Users\TienDat\Desktop\ActorHome\PIC18_Zigbee_v2\PIC18_Zigbee_R&D_by_Lab411\Microchip\ZigBeeStack\zNWK.c
                 __pa_269   0x004602    program     static C:\Users\TienDat\Desktop\ActorHome\PIC18_Zigbee_v2\PIC18_Zigbee_R&D_by_Lab411\Microchip\ZigBeeStack\zNWK.c
             __tmplbl_403   0x004602    program     static                          
             __tmplbl_404   0x004612    program     static                          
                 __pa_270   0x004612    program     static C:\Users\TienDat\Desktop\ActorHome\PIC18_Zigbee_v2\PIC18_Zigbee_R&D_by_Lab411\Microchip\ZigBeeStack\zNWK.c
                 __pa_271   0x004622    program     static C:\Users\TienDat\Desktop\ActorHome\PIC18_Zigbee_v2\PIC18_Zigbee_R&D_by_Lab411\Microchip\ZigBeeStack\zNWK.c
                 __pa_272   0x00462a    program     static C:\Users\TienDat\Desktop\ActorHome\PIC18_Zigbee_v2\PIC18_Zigbee_R&D_by_Lab411\Microchip\ZigBeeStack\zNWK.c
                 __pa_273   0x004630    program     static C:\Users\TienDat\Desktop\ActorHome\PIC18_Zigbee_v2\PIC18_Zigbee_R&D_by_Lab411\Microchip\ZigBeeStack\zNWK.c
                 __pa_274   0x00463a    program     static C:\Users\TienDat\Desktop\ActorHome\PIC18_Zigbee_v2\PIC18_Zigbee_R&D_by_Lab411\Microchip\ZigBeeStack\zNWK.c
                 __pa_275   0x004644    program     static C:\Users\TienDat\Desktop\ActorHome\PIC18_Zigbee_v2\PIC18_Zigbee_R&D_by_Lab411\Microchip\ZigBeeStack\zNWK.c
                 __pa_276   0x00464e    program     static C:\Users\TienDat\Desktop\ActorHome\PIC18_Zigbee_v2\PIC18_Zigbee_R&D_by_Lab411\Microchip\ZigBeeStack\zNWK.c
                 __pa_277   0x004658    program     static C:\Users\TienDat\Desktop\ActorHome\PIC18_Zigbee_v2\PIC18_Zigbee_R&D_by_Lab411\Microchip\ZigBeeStack\zNWK.c
                 __pa_278   0x004664    program     static C:\Users\TienDat\Desktop\ActorHome\PIC18_Zigbee_v2\PIC18_Zigbee_R&D_by_Lab411\Microchip\ZigBeeStack\zNWK.c
                 __pa_279   0x00466a    program     static C:\Users\TienDat\Desktop\ActorHome\PIC18_Zigbee_v2\PIC18_Zigbee_R&D_by_Lab411\Microchip\ZigBeeStack\zNWK.c
                 __pa_280   0x004670    program     static C:\Users\TienDat\Desktop\ActorHome\PIC18_Zigbee_v2\PIC18_Zigbee_R&D_by_Lab411\Microchip\ZigBeeStack\zNWK.c
                 __pa_281   0x004678    program     static C:\Users\TienDat\Desktop\ActorHome\PIC18_Zigbee_v2\PIC18_Zigbee_R&D_by_Lab411\Microchip\ZigBeeStack\zNWK.c
                 __pa_282   0x004680    program     static C:\Users\TienDat\Desktop\ActorHome\PIC18_Zigbee_v2\PIC18_Zigbee_R&D_by_Lab411\Microchip\ZigBeeStack\zNWK.c
                 __pa_283   0x004688    program     static C:\Users\TienDat\Desktop\ActorHome\PIC18_Zigbee_v2\PIC18_Zigbee_R&D_by_Lab411\Microchip\ZigBeeStack\zNWK.c
                 __pa_284   0x004690    program     static C:\Users\TienDat\Desktop\ActorHome\PIC18_Zigbee_v2\PIC18_Zigbee_R&D_by_Lab411\Microchip\ZigBeeStack\zNWK.c
             __tmplbl_406   0x00469a    program     static                          
                 __pa_285   0x00469a    program     static C:\Users\TienDat\Desktop\ActorHome\PIC18_Zigbee_v2\PIC18_Zigbee_R&D_by_Lab411\Microchip\ZigBeeStack\zNWK.c
                 __pa_286   0x0046a2    program     static C:\Users\TienDat\Desktop\ActorHome\PIC18_Zigbee_v2\PIC18_Zigbee_R&D_by_Lab411\Microchip\ZigBeeStack\zNWK.c
                 __pa_287   0x0046b0    program     static C:\Users\TienDat\Desktop\ActorHome\PIC18_Zigbee_v2\PIC18_Zigbee_R&D_by_Lab411\Microchip\ZigBeeStack\zNWK.c
                 __pa_288   0x0046b6    program     static C:\Users\TienDat\Desktop\ActorHome\PIC18_Zigbee_v2\PIC18_Zigbee_R&D_by_Lab411\Microchip\ZigBeeStack\zNWK.c
                 __pa_289   0x0046bc    program     static C:\Users\TienDat\Desktop\ActorHome\PIC18_Zigbee_v2\PIC18_Zigbee_R&D_by_Lab411\Microchip\ZigBeeStack\zNWK.c
                 __pa_290   0x0046c4    program     static C:\Users\TienDat\Desktop\ActorHome\PIC18_Zigbee_v2\PIC18_Zigbee_R&D_by_Lab411\Microchip\ZigBeeStack\zNWK.c
                 __pa_291   0x0046ce    program     static C:\Users\TienDat\Desktop\ActorHome\PIC18_Zigbee_v2\PIC18_Zigbee_R&D_by_Lab411\Microchip\ZigBeeStack\zNWK.c
                 __pa_292   0x0046d8    program     static C:\Users\TienDat\Desktop\ActorHome\PIC18_Zigbee_v2\PIC18_Zigbee_R&D_by_Lab411\Microchip\ZigBeeStack\zNWK.c
                 __pa_293   0x0046e2    program     static C:\Users\TienDat\Desktop\ActorHome\PIC18_Zigbee_v2\PIC18_Zigbee_R&D_by_Lab411\Microchip\ZigBeeStack\zNWK.c
                 __pa_294   0x0046ee    program     static C:\Users\TienDat\Desktop\ActorHome\PIC18_Zigbee_v2\PIC18_Zigbee_R&D_by_Lab411\Microchip\ZigBeeStack\zNWK.c
                 __pa_295   0x0046f8    program     static C:\Users\TienDat\Desktop\ActorHome\PIC18_Zigbee_v2\PIC18_Zigbee_R&D_by_Lab411\Microchip\ZigBeeStack\zNWK.c
                 __pa_296   0x0046fe    program     static C:\Users\TienDat\Desktop\ActorHome\PIC18_Zigbee_v2\PIC18_Zigbee_R&D_by_Lab411\Microchip\ZigBeeStack\zNWK.c
                 __pa_297   0x004704    program     static C:\Users\TienDat\Desktop\ActorHome\PIC18_Zigbee_v2\PIC18_Zigbee_R&D_by_Lab411\Microchip\ZigBeeStack\zNWK.c
                 __pa_298   0x00470c    program     static C:\Users\TienDat\Desktop\ActorHome\PIC18_Zigbee_v2\PIC18_Zigbee_R&D_by_Lab411\Microchip\ZigBeeStack\zNWK.c
                 __pa_299   0x004716    program     static C:\Users\TienDat\Desktop\ActorHome\PIC18_Zigbee_v2\PIC18_Zigbee_R&D_by_Lab411\Microchip\ZigBeeStack\zNWK.c
                 __pa_300   0x004720    program     static C:\Users\TienDat\Desktop\ActorHome\PIC18_Zigbee_v2\PIC18_Zigbee_R&D_by_Lab411\Microchip\ZigBeeStack\zNWK.c
                 __pa_301   0x004728    program     static C:\Users\TienDat\Desktop\ActorHome\PIC18_Zigbee_v2\PIC18_Zigbee_R&D_by_Lab411\Microchip\ZigBeeStack\zNWK.c
                 __pa_302   0x004730    program     static C:\Users\TienDat\Desktop\ActorHome\PIC18_Zigbee_v2\PIC18_Zigbee_R&D_by_Lab411\Microchip\ZigBeeStack\zNWK.c
                 __pa_303   0x004736    program     static C:\Users\TienDat\Desktop\ActorHome\PIC18_Zigbee_v2\PIC18_Zigbee_R&D_by_Lab411\Microchip\ZigBeeStack\zNWK.c
                 __pa_304   0x00473e    program     static C:\Users\TienDat\Desktop\ActorHome\PIC18_Zigbee_v2\PIC18_Zigbee_R&D_by_Lab411\Microchip\ZigBeeStack\zNWK.c
                 __pa_305   0x004744    program     static C:\Users\TienDat\Desktop\ActorHome\PIC18_Zigbee_v2\PIC18_Zigbee_R&D_by_Lab411\Microchip\ZigBeeStack\zNWK.c
                 __pa_306   0x00474e    program     static C:\Users\TienDat\Desktop\ActorHome\PIC18_Zigbee_v2\PIC18_Zigbee_R&D_by_Lab411\Microchip\ZigBeeStack\zNWK.c
                 __pa_307   0x004756    program     static C:\Users\TienDat\Desktop\ActorHome\PIC18_Zigbee_v2\PIC18_Zigbee_R&D_by_Lab411\Microchip\ZigBeeStack\zNWK.c
                 __pa_308   0x00475c    program     static C:\Users\TienDat\Desktop\ActorHome\PIC18_Zigbee_v2\PIC18_Zigbee_R&D_by_Lab411\Microchip\ZigBeeStack\zNWK.c
                 __pa_309   0x004762    program     static C:\Users\TienDat\Desktop\ActorHome\PIC18_Zigbee_v2\PIC18_Zigbee_R&D_by_Lab411\Microchip\ZigBeeStack\zNWK.c
                 __pa_310   0x004768    program     static C:\Users\TienDat\Desktop\ActorHome\PIC18_Zigbee_v2\PIC18_Zigbee_R&D_by_Lab411\Microchip\ZigBeeStack\zNWK.c
                 __pa_311   0x00476e    program     static C:\Users\TienDat\Desktop\ActorHome\PIC18_Zigbee_v2\PIC18_Zigbee_R&D_by_Lab411\Microchip\ZigBeeStack\zNWK.c
                 __pa_312   0x004776    program     static C:\Users\TienDat\Desktop\ActorHome\PIC18_Zigbee_v2\PIC18_Zigbee_R&D_by_Lab411\Microchip\ZigBeeStack\zNWK.c
    ZDOHasBackgroundTasks   0x00477c    program     extern C:\Users\TienDat\Desktop\ActorHome\PIC18_Zigbee_v2\PIC18_Zigbee_R&D_by_Lab411\Microchip\ZigBeeStack\zZDO.c
                  ZDOInit   0x004788    program     extern C:\Users\TienDat\Desktop\ActorHome\PIC18_Zigbee_v2\PIC18_Zigbee_R&D_by_Lab411\Microchip\ZigBeeStack\zZDO.c
                 ZDOTasks   0x00479c    program     extern C:\Users\TienDat\Desktop\ActorHome\PIC18_Zigbee_v2\PIC18_Zigbee_R&D_by_Lab411\Microchip\ZigBeeStack\zZDO.c
             __tmplbl_108   0x0050bc    program     static                          
             __tmplbl_104   0x0050c2    program     static                          
             __tmplbl_145   0x00592c    program     static                          
             __tmplbl_144   0x005ace    program     static                          
             __tmplbl_143   0x005aec    program     static                          
             __tmplbl_146   0x005b0a    program     static                          
             __tmplbl_141   0x005b0a    program     static                          
             __tmplbl_140   0x005b0a    program     static                          
             __tmplbl_139   0x005b0a    program     static                          
             __tmplbl_137   0x005b0a    program     static                          
             __tmplbl_130   0x005b0c    program     static                          
             __tmplbl_152   0x005b0c    program     static                          
             __tmplbl_142   0x005b0c    program     static                          
             __tmplbl_136   0x005b0c    program     static                          
             __tmplbl_138   0x005b0c    program     static                          
   FinishAddressResponses   0x005b20    program     extern C:\Users\TienDat\Desktop\ActorHome\PIC18_Zigbee_v2\PIC18_Zigbee_R&D_by_Lab411\Microchip\ZigBeeStack\zZDO.c
        IsThisMyShortAddr   0x005c3a    program     extern C:\Users\TienDat\Desktop\ActorHome\PIC18_Zigbee_v2\PIC18_Zigbee_R&D_by_Lab411\Microchip\ZigBeeStack\zZDO.c
GetOneEndDeviceBindRequest   0x005c9e    program     extern C:\Users\TienDat\Desktop\ActorHome\PIC18_Zigbee_v2\PIC18_Zigbee_R&D_by_Lab411\Microchip\ZigBeeStack\zZDO.c
     ProcessEndDeviceBind   0x005e90    program     extern C:\Users\TienDat\Desktop\ActorHome\PIC18_Zigbee_v2\PIC18_Zigbee_R&D_by_Lab411\Microchip\ZigBeeStack\zZDO.c
 Send_END_DEVICE_BIND_rsp   0x006072    program     extern C:\Users\TienDat\Desktop\ActorHome\PIC18_Zigbee_v2\PIC18_Zigbee_R&D_by_Lab411\Microchip\ZigBeeStack\zZDO.c
   PrepareMessageResponse   0x00612c    program     extern C:\Users\TienDat\Desktop\ActorHome\PIC18_Zigbee_v2\PIC18_Zigbee_R&D_by_Lab411\Microchip\ZigBeeStack\zZDO.c
        handleActiveEPReq   0x006170    program     extern C:\Users\TienDat\Desktop\ActorHome\PIC18_Zigbee_v2\PIC18_Zigbee_R&D_by_Lab411\Microchip\ZigBeeStack\zZDO.c
       handleMatchDescReq   0x0061f2    program     extern C:\Users\TienDat\Desktop\ActorHome\PIC18_Zigbee_v2\PIC18_Zigbee_R&D_by_Lab411\Microchip\ZigBeeStack\zZDO.c
     ProcessBindAndUnbind   0x00649a    program     extern C:\Users\TienDat\Desktop\ActorHome\PIC18_Zigbee_v2\PIC18_Zigbee_R&D_by_Lab411\Microchip\ZigBeeStack\zZDO.c
   SendBindAddressRequest   0x0067ac    program     extern C:\Users\TienDat\Desktop\ActorHome\PIC18_Zigbee_v2\PIC18_Zigbee_R&D_by_Lab411\Microchip\ZigBeeStack\zZDO.c
         SendUpBindResult   0x006826    program     extern C:\Users\TienDat\Desktop\ActorHome\PIC18_Zigbee_v2\PIC18_Zigbee_R&D_by_Lab411\Microchip\ZigBeeStack\zZDO.c
                   __pa_0   0x00687c    program     static C:\Users\TienDat\Desktop\ActorHome\PIC18_Zigbee_v2\PIC18_Zigbee_R&D_by_Lab411\Microchip\ZigBeeStack\zZDO.c
                   __pa_1   0x006882    program     static C:\Users\TienDat\Desktop\ActorHome\PIC18_Zigbee_v2\PIC18_Zigbee_R&D_by_Lab411\Microchip\ZigBeeStack\zZDO.c
                   __pa_2   0x006888    program     static C:\Users\TienDat\Desktop\ActorHome\PIC18_Zigbee_v2\PIC18_Zigbee_R&D_by_Lab411\Microchip\ZigBeeStack\zZDO.c
                   __pa_3   0x00688e    program     static C:\Users\TienDat\Desktop\ActorHome\PIC18_Zigbee_v2\PIC18_Zigbee_R&D_by_Lab411\Microchip\ZigBeeStack\zZDO.c
                   __pa_4   0x00689a    program     static C:\Users\TienDat\Desktop\ActorHome\PIC18_Zigbee_v2\PIC18_Zigbee_R&D_by_Lab411\Microchip\ZigBeeStack\zZDO.c
                   __pa_5   0x0068a8    program     static C:\Users\TienDat\Desktop\ActorHome\PIC18_Zigbee_v2\PIC18_Zigbee_R&D_by_Lab411\Microchip\ZigBeeStack\zZDO.c
                   __pa_6   0x0068b6    program     static C:\Users\TienDat\Desktop\ActorHome\PIC18_Zigbee_v2\PIC18_Zigbee_R&D_by_Lab411\Microchip\ZigBeeStack\zZDO.c
                   __pa_7   0x0068c0    program     static C:\Users\TienDat\Desktop\ActorHome\PIC18_Zigbee_v2\PIC18_Zigbee_R&D_by_Lab411\Microchip\ZigBeeStack\zZDO.c
                   __pa_8   0x0068c6    program     static C:\Users\TienDat\Desktop\ActorHome\PIC18_Zigbee_v2\PIC18_Zigbee_R&D_by_Lab411\Microchip\ZigBeeStack\zZDO.c
                   __pa_9   0x0068d2    program     static C:\Users\TienDat\Desktop\ActorHome\PIC18_Zigbee_v2\PIC18_Zigbee_R&D_by_Lab411\Microchip\ZigBeeStack\zZDO.c
                  __pa_10   0x0068dc    program     static C:\Users\TienDat\Desktop\ActorHome\PIC18_Zigbee_v2\PIC18_Zigbee_R&D_by_Lab411\Microchip\ZigBeeStack\zZDO.c
                  __pa_11   0x0068ee    program     static C:\Users\TienDat\Desktop\ActorHome\PIC18_Zigbee_v2\PIC18_Zigbee_R&D_by_Lab411\Microchip\ZigBeeStack\zZDO.c
                  __pa_12   0x0068f4    program     static C:\Users\TienDat\Desktop\ActorHome\PIC18_Zigbee_v2\PIC18_Zigbee_R&D_by_Lab411\Microchip\ZigBeeStack\zZDO.c
                  __pa_13   0x006922    program     static C:\Users\TienDat\Desktop\ActorHome\PIC18_Zigbee_v2\PIC18_Zigbee_R&D_by_Lab411\Microchip\ZigBeeStack\zZDO.c
                  __pa_14   0x00692e    program     static C:\Users\TienDat\Desktop\ActorHome\PIC18_Zigbee_v2\PIC18_Zigbee_R&D_by_Lab411\Microchip\ZigBeeStack\zZDO.c
             __tmplbl_197   0x006934    program     static                          
             __tmplbl_203   0x006934    program     static                          
             __tmplbl_202   0x006934    program     static                          
                  __pa_15   0x006934    program     static C:\Users\TienDat\Desktop\ActorHome\PIC18_Zigbee_v2\PIC18_Zigbee_R&D_by_Lab411\Microchip\ZigBeeStack\zZDO.c
             __tmplbl_194   0x006934    program     static                          
             __tmplbl_192   0x006934    program     static                          
             __tmplbl_193   0x006934    program     static                          
                  __pa_16   0x006940    program     static C:\Users\TienDat\Desktop\ActorHome\PIC18_Zigbee_v2\PIC18_Zigbee_R&D_by_Lab411\Microchip\ZigBeeStack\zZDO.c
                  __pa_17   0x00694a    program     static C:\Users\TienDat\Desktop\ActorHome\PIC18_Zigbee_v2\PIC18_Zigbee_R&D_by_Lab411\Microchip\ZigBeeStack\zZDO.c
                  __pa_18   0x006954    program     static C:\Users\TienDat\Desktop\ActorHome\PIC18_Zigbee_v2\PIC18_Zigbee_R&D_by_Lab411\Microchip\ZigBeeStack\zZDO.c
                  __pa_19   0x00695e    program     static C:\Users\TienDat\Desktop\ActorHome\PIC18_Zigbee_v2\PIC18_Zigbee_R&D_by_Lab411\Microchip\ZigBeeStack\zZDO.c
                  __pa_20   0x006966    program     static C:\Users\TienDat\Desktop\ActorHome\PIC18_Zigbee_v2\PIC18_Zigbee_R&D_by_Lab411\Microchip\ZigBeeStack\zZDO.c
                  __pa_21   0x006972    program     static C:\Users\TienDat\Desktop\ActorHome\PIC18_Zigbee_v2\PIC18_Zigbee_R&D_by_Lab411\Microchip\ZigBeeStack\zZDO.c
                  __pa_22   0x00697c    program     static C:\Users\TienDat\Desktop\ActorHome\PIC18_Zigbee_v2\PIC18_Zigbee_R&D_by_Lab411\Microchip\ZigBeeStack\zZDO.c
                  __pa_23   0x006982    program     static C:\Users\TienDat\Desktop\ActorHome\PIC18_Zigbee_v2\PIC18_Zigbee_R&D_by_Lab411\Microchip\ZigBeeStack\zZDO.c
                  __pa_24   0x0069c4    program     static C:\Users\TienDat\Desktop\ActorHome\PIC18_Zigbee_v2\PIC18_Zigbee_R&D_by_Lab411\Microchip\ZigBeeStack\zZDO.c
                  __pa_25   0x0069cc    program     static C:\Users\TienDat\Desktop\ActorHome\PIC18_Zigbee_v2\PIC18_Zigbee_R&D_by_Lab411\Microchip\ZigBeeStack\zZDO.c
                  __pa_26   0x0069f2    program     static C:\Users\TienDat\Desktop\ActorHome\PIC18_Zigbee_v2\PIC18_Zigbee_R&D_by_Lab411\Microchip\ZigBeeStack\zZDO.c
                  __pa_27   0x006a02    program     static C:\Users\TienDat\Desktop\ActorHome\PIC18_Zigbee_v2\PIC18_Zigbee_R&D_by_Lab411\Microchip\ZigBeeStack\zZDO.c
                  __pa_28   0x006a1a    program     static C:\Users\TienDat\Desktop\ActorHome\PIC18_Zigbee_v2\PIC18_Zigbee_R&D_by_Lab411\Microchip\ZigBeeStack\zZDO.c
                  __pa_29   0x006a3c    program     static C:\Users\TienDat\Desktop\ActorHome\PIC18_Zigbee_v2\PIC18_Zigbee_R&D_by_Lab411\Microchip\ZigBeeStack\zZDO.c
                  __pa_30   0x006a42    program     static C:\Users\TienDat\Desktop\ActorHome\PIC18_Zigbee_v2\PIC18_Zigbee_R&D_by_Lab411\Microchip\ZigBeeStack\zZDO.c
                  __pa_31   0x006a4c    program     static C:\Users\TienDat\Desktop\ActorHome\PIC18_Zigbee_v2\PIC18_Zigbee_R&D_by_Lab411\Microchip\ZigBeeStack\zZDO.c
                  __pa_32   0x006a54    program     static C:\Users\TienDat\Desktop\ActorHome\PIC18_Zigbee_v2\PIC18_Zigbee_R&D_by_Lab411\Microchip\ZigBeeStack\zZDO.c
                  __pa_33   0x006a5e    program     static C:\Users\TienDat\Desktop\ActorHome\PIC18_Zigbee_v2\PIC18_Zigbee_R&D_by_Lab411\Microchip\ZigBeeStack\zZDO.c
                  __pa_34   0x006a74    program     static C:\Users\TienDat\Desktop\ActorHome\PIC18_Zigbee_v2\PIC18_Zigbee_R&D_by_Lab411\Microchip\ZigBeeStack\zZDO.c
                  __pa_35   0x006aa0    program     static C:\Users\TienDat\Desktop\ActorHome\PIC18_Zigbee_v2\PIC18_Zigbee_R&D_by_Lab411\Microchip\ZigBeeStack\zZDO.c
                  __pa_36   0x006ab4    program     static C:\Users\TienDat\Desktop\ActorHome\PIC18_Zigbee_v2\PIC18_Zigbee_R&D_by_Lab411\Microchip\ZigBeeStack\zZDO.c
                  __pa_37   0x006aba    program     static C:\Users\TienDat\Desktop\ActorHome\PIC18_Zigbee_v2\PIC18_Zigbee_R&D_by_Lab411\Microchip\ZigBeeStack\zZDO.c
                  __pa_38   0x006ac2    program     static C:\Users\TienDat\Desktop\ActorHome\PIC18_Zigbee_v2\PIC18_Zigbee_R&D_by_Lab411\Microchip\ZigBeeStack\zZDO.c
                  __pa_39   0x006ac8    program     static C:\Users\TienDat\Desktop\ActorHome\PIC18_Zigbee_v2\PIC18_Zigbee_R&D_by_Lab411\Microchip\ZigBeeStack\zZDO.c
                  __pa_40   0x006ad4    program     static C:\Users\TienDat\Desktop\ActorHome\PIC18_Zigbee_v2\PIC18_Zigbee_R&D_by_Lab411\Microchip\ZigBeeStack\zZDO.c
                  __pa_41   0x006ae2    program     static C:\Users\TienDat\Desktop\ActorHome\PIC18_Zigbee_v2\PIC18_Zigbee_R&D_by_Lab411\Microchip\ZigBeeStack\zZDO.c
                  __pa_42   0x006b0e    program     static C:\Users\TienDat\Desktop\ActorHome\PIC18_Zigbee_v2\PIC18_Zigbee_R&D_by_Lab411\Microchip\ZigBeeStack\zZDO.c
                  __pa_43   0x006b20    program     static C:\Users\TienDat\Desktop\ActorHome\PIC18_Zigbee_v2\PIC18_Zigbee_R&D_by_Lab411\Microchip\ZigBeeStack\zZDO.c
                  __pa_44   0x006b26    program     static C:\Users\TienDat\Desktop\ActorHome\PIC18_Zigbee_v2\PIC18_Zigbee_R&D_by_Lab411\Microchip\ZigBeeStack\zZDO.c
                  __pa_45   0x006b2c    program     static C:\Users\TienDat\Desktop\ActorHome\PIC18_Zigbee_v2\PIC18_Zigbee_R&D_by_Lab411\Microchip\ZigBeeStack\zZDO.c
                  __pa_46   0x006b32    program     static C:\Users\TienDat\Desktop\ActorHome\PIC18_Zigbee_v2\PIC18_Zigbee_R&D_by_Lab411\Microchip\ZigBeeStack\zZDO.c
                  __pa_47   0x006b56    program     static C:\Users\TienDat\Desktop\ActorHome\PIC18_Zigbee_v2\PIC18_Zigbee_R&D_by_Lab411\Microchip\ZigBeeStack\zZDO.c
                  __pa_48   0x006b62    program     static C:\Users\TienDat\Desktop\ActorHome\PIC18_Zigbee_v2\PIC18_Zigbee_R&D_by_Lab411\Microchip\ZigBeeStack\zZDO.c
                  __pa_49   0x006b68    program     static C:\Users\TienDat\Desktop\ActorHome\PIC18_Zigbee_v2\PIC18_Zigbee_R&D_by_Lab411\Microchip\ZigBeeStack\zZDO.c
                  __pa_50   0x006b8a    program     static C:\Users\TienDat\Desktop\ActorHome\PIC18_Zigbee_v2\PIC18_Zigbee_R&D_by_Lab411\Microchip\ZigBeeStack\zZDO.c
                  __pa_51   0x006b96    program     static C:\Users\TienDat\Desktop\ActorHome\PIC18_Zigbee_v2\PIC18_Zigbee_R&D_by_Lab411\Microchip\ZigBeeStack\zZDO.c
                  __pa_52   0x006b9c    program     static C:\Users\TienDat\Desktop\ActorHome\PIC18_Zigbee_v2\PIC18_Zigbee_R&D_by_Lab411\Microchip\ZigBeeStack\zZDO.c
                  __pa_53   0x006bba    program     static C:\Users\TienDat\Desktop\ActorHome\PIC18_Zigbee_v2\PIC18_Zigbee_R&D_by_Lab411\Microchip\ZigBeeStack\zZDO.c
                  __pa_54   0x006bce    program     static C:\Users\TienDat\Desktop\ActorHome\PIC18_Zigbee_v2\PIC18_Zigbee_R&D_by_Lab411\Microchip\ZigBeeStack\zZDO.c
                  __pa_55   0x006bdc    program     static C:\Users\TienDat\Desktop\ActorHome\PIC18_Zigbee_v2\PIC18_Zigbee_R&D_by_Lab411\Microchip\ZigBeeStack\zZDO.c
                  __pa_56   0x006bea    program     static C:\Users\TienDat\Desktop\ActorHome\PIC18_Zigbee_v2\PIC18_Zigbee_R&D_by_Lab411\Microchip\ZigBeeStack\zZDO.c
                  __pa_57   0x006bf0    program     static C:\Users\TienDat\Desktop\ActorHome\PIC18_Zigbee_v2\PIC18_Zigbee_R&D_by_Lab411\Microchip\ZigBeeStack\zZDO.c
                  __pa_58   0x006c00    program     static C:\Users\TienDat\Desktop\ActorHome\PIC18_Zigbee_v2\PIC18_Zigbee_R&D_by_Lab411\Microchip\ZigBeeStack\zZDO.c
                  __pa_59   0x006c10    program     static C:\Users\TienDat\Desktop\ActorHome\PIC18_Zigbee_v2\PIC18_Zigbee_R&D_by_Lab411\Microchip\ZigBeeStack\zZDO.c
                  __pa_60   0x006c26    program     static C:\Users\TienDat\Desktop\ActorHome\PIC18_Zigbee_v2\PIC18_Zigbee_R&D_by_Lab411\Microchip\ZigBeeStack\zZDO.c
                  __pa_61   0x006c30    program     static C:\Users\TienDat\Desktop\ActorHome\PIC18_Zigbee_v2\PIC18_Zigbee_R&D_by_Lab411\Microchip\ZigBeeStack\zZDO.c
                  __pa_62   0x006c36    program     static C:\Users\TienDat\Desktop\ActorHome\PIC18_Zigbee_v2\PIC18_Zigbee_R&D_by_Lab411\Microchip\ZigBeeStack\zZDO.c
                  __pa_63   0x006c42    program     static C:\Users\TienDat\Desktop\ActorHome\PIC18_Zigbee_v2\PIC18_Zigbee_R&D_by_Lab411\Microchip\ZigBeeStack\zZDO.c
                  __pa_64   0x006c4a    program     static C:\Users\TienDat\Desktop\ActorHome\PIC18_Zigbee_v2\PIC18_Zigbee_R&D_by_Lab411\Microchip\ZigBeeStack\zZDO.c
                  __pa_65   0x006c50    program     static C:\Users\TienDat\Desktop\ActorHome\PIC18_Zigbee_v2\PIC18_Zigbee_R&D_by_Lab411\Microchip\ZigBeeStack\zZDO.c
                  __pa_66   0x006c66    program     static C:\Users\TienDat\Desktop\ActorHome\PIC18_Zigbee_v2\PIC18_Zigbee_R&D_by_Lab411\Microchip\ZigBeeStack\zZDO.c
                  __pa_67   0x006c76    program     static C:\Users\TienDat\Desktop\ActorHome\PIC18_Zigbee_v2\PIC18_Zigbee_R&D_by_Lab411\Microchip\ZigBeeStack\zZDO.c
                  __pa_68   0x006c82    program     static C:\Users\TienDat\Desktop\ActorHome\PIC18_Zigbee_v2\PIC18_Zigbee_R&D_by_Lab411\Microchip\ZigBeeStack\zZDO.c
                  __pa_69   0x006c90    program     static C:\Users\TienDat\Desktop\ActorHome\PIC18_Zigbee_v2\PIC18_Zigbee_R&D_by_Lab411\Microchip\ZigBeeStack\zZDO.c
                  __pa_70   0x006c98    program     static C:\Users\TienDat\Desktop\ActorHome\PIC18_Zigbee_v2\PIC18_Zigbee_R&D_by_Lab411\Microchip\ZigBeeStack\zZDO.c
                  __pa_71   0x006ca0    program     static C:\Users\TienDat\Desktop\ActorHome\PIC18_Zigbee_v2\PIC18_Zigbee_R&D_by_Lab411\Microchip\ZigBeeStack\zZDO.c
                  __pa_72   0x006cae    program     static C:\Users\TienDat\Desktop\ActorHome\PIC18_Zigbee_v2\PIC18_Zigbee_R&D_by_Lab411\Microchip\ZigBeeStack\zZDO.c
                  __pa_73   0x006cbc    program     static C:\Users\TienDat\Desktop\ActorHome\PIC18_Zigbee_v2\PIC18_Zigbee_R&D_by_Lab411\Microchip\ZigBeeStack\zZDO.c
                  __pa_74   0x006cc2    program     static C:\Users\TienDat\Desktop\ActorHome\PIC18_Zigbee_v2\PIC18_Zigbee_R&D_by_Lab411\Microchip\ZigBeeStack\zZDO.c
                  __pa_75   0x006cca    program     static C:\Users\TienDat\Desktop\ActorHome\PIC18_Zigbee_v2\PIC18_Zigbee_R&D_by_Lab411\Microchip\ZigBeeStack\zZDO.c
                  __pa_76   0x006cd8    program     static C:\Users\TienDat\Desktop\ActorHome\PIC18_Zigbee_v2\PIC18_Zigbee_R&D_by_Lab411\Microchip\ZigBeeStack\zZDO.c
                  __pa_77   0x006ce0    program     static C:\Users\TienDat\Desktop\ActorHome\PIC18_Zigbee_v2\PIC18_Zigbee_R&D_by_Lab411\Microchip\ZigBeeStack\zZDO.c
                  __pa_78   0x006cee    program     static C:\Users\TienDat\Desktop\ActorHome\PIC18_Zigbee_v2\PIC18_Zigbee_R&D_by_Lab411\Microchip\ZigBeeStack\zZDO.c
                  __pa_79   0x006cfe    program     static C:\Users\TienDat\Desktop\ActorHome\PIC18_Zigbee_v2\PIC18_Zigbee_R&D_by_Lab411\Microchip\ZigBeeStack\zZDO.c
                  __pa_80   0x006d0e    program     static C:\Users\TienDat\Desktop\ActorHome\PIC18_Zigbee_v2\PIC18_Zigbee_R&D_by_Lab411\Microchip\ZigBeeStack\zZDO.c
                  __pa_81   0x006d1c    program     static C:\Users\TienDat\Desktop\ActorHome\PIC18_Zigbee_v2\PIC18_Zigbee_R&D_by_Lab411\Microchip\ZigBeeStack\zZDO.c
                  __pa_82   0x006d28    program     static C:\Users\TienDat\Desktop\ActorHome\PIC18_Zigbee_v2\PIC18_Zigbee_R&D_by_Lab411\Microchip\ZigBeeStack\zZDO.c
                  __pa_83   0x006d3a    program     static C:\Users\TienDat\Desktop\ActorHome\PIC18_Zigbee_v2\PIC18_Zigbee_R&D_by_Lab411\Microchip\ZigBeeStack\zZDO.c
                  __pa_84   0x006d4c    program     static C:\Users\TienDat\Desktop\ActorHome\PIC18_Zigbee_v2\PIC18_Zigbee_R&D_by_Lab411\Microchip\ZigBeeStack\zZDO.c
                  __pa_85   0x006d56    program     static C:\Users\TienDat\Desktop\ActorHome\PIC18_Zigbee_v2\PIC18_Zigbee_R&D_by_Lab411\Microchip\ZigBeeStack\zZDO.c
                  __pa_86   0x006d68    program     static C:\Users\TienDat\Desktop\ActorHome\PIC18_Zigbee_v2\PIC18_Zigbee_R&D_by_Lab411\Microchip\ZigBeeStack\zZDO.c
                  __pa_87   0x006d7a    program     static C:\Users\TienDat\Desktop\ActorHome\PIC18_Zigbee_v2\PIC18_Zigbee_R&D_by_Lab411\Microchip\ZigBeeStack\zZDO.c
                  __pa_88   0x006d8c    program     static C:\Users\TienDat\Desktop\ActorHome\PIC18_Zigbee_v2\PIC18_Zigbee_R&D_by_Lab411\Microchip\ZigBeeStack\zZDO.c
                  __pa_89   0x006d9e    program     static C:\Users\TienDat\Desktop\ActorHome\PIC18_Zigbee_v2\PIC18_Zigbee_R&D_by_Lab411\Microchip\ZigBeeStack\zZDO.c
                  __pa_90   0x006db0    program     static C:\Users\TienDat\Desktop\ActorHome\PIC18_Zigbee_v2\PIC18_Zigbee_R&D_by_Lab411\Microchip\ZigBeeStack\zZDO.c
                  __pa_91   0x006dba    program     static C:\Users\TienDat\Desktop\ActorHome\PIC18_Zigbee_v2\PIC18_Zigbee_R&D_by_Lab411\Microchip\ZigBeeStack\zZDO.c
                  __pa_92   0x006dc4    program     static C:\Users\TienDat\Desktop\ActorHome\PIC18_Zigbee_v2\PIC18_Zigbee_R&D_by_Lab411\Microchip\ZigBeeStack\zZDO.c
                  __pa_93   0x006dca    program     static C:\Users\TienDat\Desktop\ActorHome\PIC18_Zigbee_v2\PIC18_Zigbee_R&D_by_Lab411\Microchip\ZigBeeStack\zZDO.c
                  __pa_94   0x006dd2    program     static C:\Users\TienDat\Desktop\ActorHome\PIC18_Zigbee_v2\PIC18_Zigbee_R&D_by_Lab411\Microchip\ZigBeeStack\zZDO.c
                  __pa_95   0x006dde    program     static C:\Users\TienDat\Desktop\ActorHome\PIC18_Zigbee_v2\PIC18_Zigbee_R&D_by_Lab411\Microchip\ZigBeeStack\zZDO.c
                  __pa_96   0x006dea    program     static C:\Users\TienDat\Desktop\ActorHome\PIC18_Zigbee_v2\PIC18_Zigbee_R&D_by_Lab411\Microchip\ZigBeeStack\zZDO.c
                  __pa_97   0x006df6    program     static C:\Users\TienDat\Desktop\ActorHome\PIC18_Zigbee_v2\PIC18_Zigbee_R&D_by_Lab411\Microchip\ZigBeeStack\zZDO.c
                  __pa_98   0x006e02    program     static C:\Users\TienDat\Desktop\ActorHome\PIC18_Zigbee_v2\PIC18_Zigbee_R&D_by_Lab411\Microchip\ZigBeeStack\zZDO.c
                  __pa_99   0x006e0a    program     static C:\Users\TienDat\Desktop\ActorHome\PIC18_Zigbee_v2\PIC18_Zigbee_R&D_by_Lab411\Microchip\ZigBeeStack\zZDO.c
                 __pa_100   0x006e16    program     static C:\Users\TienDat\Desktop\ActorHome\PIC18_Zigbee_v2\PIC18_Zigbee_R&D_by_Lab411\Microchip\ZigBeeStack\zZDO.c
                 __pa_101   0x006e26    program     static C:\Users\TienDat\Desktop\ActorHome\PIC18_Zigbee_v2\PIC18_Zigbee_R&D_by_Lab411\Microchip\ZigBeeStack\zZDO.c
                 __pa_102   0x006e30    program     static C:\Users\TienDat\Desktop\ActorHome\PIC18_Zigbee_v2\PIC18_Zigbee_R&D_by_Lab411\Microchip\ZigBeeStack\zZDO.c
                 __pa_103   0x006e38    program     static C:\Users\TienDat\Desktop\ActorHome\PIC18_Zigbee_v2\PIC18_Zigbee_R&D_by_Lab411\Microchip\ZigBeeStack\zZDO.c
                 __pa_104   0x006e40    program     static C:\Users\TienDat\Desktop\ActorHome\PIC18_Zigbee_v2\PIC18_Zigbee_R&D_by_Lab411\Microchip\ZigBeeStack\zZDO.c
                 __pa_105   0x006e48    program     static C:\Users\TienDat\Desktop\ActorHome\PIC18_Zigbee_v2\PIC18_Zigbee_R&D_by_Lab411\Microchip\ZigBeeStack\zZDO.c
                 __pa_106   0x006e50    program     static C:\Users\TienDat\Desktop\ActorHome\PIC18_Zigbee_v2\PIC18_Zigbee_R&D_by_Lab411\Microchip\ZigBeeStack\zZDO.c
                 __pa_107   0x006e58    program     static C:\Users\TienDat\Desktop\ActorHome\PIC18_Zigbee_v2\PIC18_Zigbee_R&D_by_Lab411\Microchip\ZigBeeStack\zZDO.c
                 __pa_108   0x006e66    program     static C:\Users\TienDat\Desktop\ActorHome\PIC18_Zigbee_v2\PIC18_Zigbee_R&D_by_Lab411\Microchip\ZigBeeStack\zZDO.c
                 __pa_109   0x006e74    program     static C:\Users\TienDat\Desktop\ActorHome\PIC18_Zigbee_v2\PIC18_Zigbee_R&D_by_Lab411\Microchip\ZigBeeStack\zZDO.c
                 __pa_110   0x006e82    program     static C:\Users\TienDat\Desktop\ActorHome\PIC18_Zigbee_v2\PIC18_Zigbee_R&D_by_Lab411\Microchip\ZigBeeStack\zZDO.c
                 __pa_111   0x006e90    program     static C:\Users\TienDat\Desktop\ActorHome\PIC18_Zigbee_v2\PIC18_Zigbee_R&D_by_Lab411\Microchip\ZigBeeStack\zZDO.c
                 __pa_112   0x006e98    program     static C:\Users\TienDat\Desktop\ActorHome\PIC18_Zigbee_v2\PIC18_Zigbee_R&D_by_Lab411\Microchip\ZigBeeStack\zZDO.c
                 __pa_113   0x006ea6    program     static C:\Users\TienDat\Desktop\ActorHome\PIC18_Zigbee_v2\PIC18_Zigbee_R&D_by_Lab411\Microchip\ZigBeeStack\zZDO.c
                 __pa_114   0x006eb4    program     static C:\Users\TienDat\Desktop\ActorHome\PIC18_Zigbee_v2\PIC18_Zigbee_R&D_by_Lab411\Microchip\ZigBeeStack\zZDO.c
                 __pa_115   0x006ec2    program     static C:\Users\TienDat\Desktop\ActorHome\PIC18_Zigbee_v2\PIC18_Zigbee_R&D_by_Lab411\Microchip\ZigBeeStack\zZDO.c
                 __pa_116   0x006ed0    program     static C:\Users\TienDat\Desktop\ActorHome\PIC18_Zigbee_v2\PIC18_Zigbee_R&D_by_Lab411\Microchip\ZigBeeStack\zZDO.c
                 __pa_117   0x006ed8    program     static C:\Users\TienDat\Desktop\ActorHome\PIC18_Zigbee_v2\PIC18_Zigbee_R&D_by_Lab411\Microchip\ZigBeeStack\zZDO.c
                 __pa_118   0x006ee0    program     static C:\Users\TienDat\Desktop\ActorHome\PIC18_Zigbee_v2\PIC18_Zigbee_R&D_by_Lab411\Microchip\ZigBeeStack\zZDO.c
                 __pa_119   0x006eea    program     static C:\Users\TienDat\Desktop\ActorHome\PIC18_Zigbee_v2\PIC18_Zigbee_R&D_by_Lab411\Microchip\ZigBeeStack\zZDO.c
                 __pa_120   0x006ef4    program     static C:\Users\TienDat\Desktop\ActorHome\PIC18_Zigbee_v2\PIC18_Zigbee_R&D_by_Lab411\Microchip\ZigBeeStack\zZDO.c
                 __pa_121   0x006efe    program     static C:\Users\TienDat\Desktop\ActorHome\PIC18_Zigbee_v2\PIC18_Zigbee_R&D_by_Lab411\Microchip\ZigBeeStack\zZDO.c
                 __pa_122   0x006f06    program     static C:\Users\TienDat\Desktop\ActorHome\PIC18_Zigbee_v2\PIC18_Zigbee_R&D_by_Lab411\Microchip\ZigBeeStack\zZDO.c
                 __pa_123   0x006f0e    program     static C:\Users\TienDat\Desktop\ActorHome\PIC18_Zigbee_v2\PIC18_Zigbee_R&D_by_Lab411\Microchip\ZigBeeStack\zZDO.c
                 __pa_124   0x006f18    program     static C:\Users\TienDat\Desktop\ActorHome\PIC18_Zigbee_v2\PIC18_Zigbee_R&D_by_Lab411\Microchip\ZigBeeStack\zZDO.c
                 __pa_125   0x006f22    program     static C:\Users\TienDat\Desktop\ActorHome\PIC18_Zigbee_v2\PIC18_Zigbee_R&D_by_Lab411\Microchip\ZigBeeStack\zZDO.c
                 __pa_126   0x006f2a    program     static C:\Users\TienDat\Desktop\ActorHome\PIC18_Zigbee_v2\PIC18_Zigbee_R&D_by_Lab411\Microchip\ZigBeeStack\zZDO.c
                 __pa_127   0x006f38    program     static C:\Users\TienDat\Desktop\ActorHome\PIC18_Zigbee_v2\PIC18_Zigbee_R&D_by_Lab411\Microchip\ZigBeeStack\zZDO.c
                 __pa_128   0x006f3e    program     static C:\Users\TienDat\Desktop\ActorHome\PIC18_Zigbee_v2\PIC18_Zigbee_R&D_by_Lab411\Microchip\ZigBeeStack\zZDO.c
                 __pa_129   0x006f46    program     static C:\Users\TienDat\Desktop\ActorHome\PIC18_Zigbee_v2\PIC18_Zigbee_R&D_by_Lab411\Microchip\ZigBeeStack\zZDO.c
                 __pa_130   0x006f4c    program     static C:\Users\TienDat\Desktop\ActorHome\PIC18_Zigbee_v2\PIC18_Zigbee_R&D_by_Lab411\Microchip\ZigBeeStack\zZDO.c
                 __pa_131   0x006f52    program     static C:\Users\TienDat\Desktop\ActorHome\PIC18_Zigbee_v2\PIC18_Zigbee_R&D_by_Lab411\Microchip\ZigBeeStack\zZDO.c
                 __pa_132   0x006f58    program     static C:\Users\TienDat\Desktop\ActorHome\PIC18_Zigbee_v2\PIC18_Zigbee_R&D_by_Lab411\Microchip\ZigBeeStack\zZDO.c
                 __pa_133   0x006f5e    program     static C:\Users\TienDat\Desktop\ActorHome\PIC18_Zigbee_v2\PIC18_Zigbee_R&D_by_Lab411\Microchip\ZigBeeStack\zZDO.c
                 __pa_134   0x006f74    program     static C:\Users\TienDat\Desktop\ActorHome\PIC18_Zigbee_v2\PIC18_Zigbee_R&D_by_Lab411\Microchip\ZigBeeStack\zZDO.c
                 __pa_135   0x006f7e    program     static C:\Users\TienDat\Desktop\ActorHome\PIC18_Zigbee_v2\PIC18_Zigbee_R&D_by_Lab411\Microchip\ZigBeeStack\zZDO.c
                 __pa_136   0x006f9e    program     static C:\Users\TienDat\Desktop\ActorHome\PIC18_Zigbee_v2\PIC18_Zigbee_R&D_by_Lab411\Microchip\ZigBeeStack\zZDO.c
                 __pa_137   0x006fb8    program     static C:\Users\TienDat\Desktop\ActorHome\PIC18_Zigbee_v2\PIC18_Zigbee_R&D_by_Lab411\Microchip\ZigBeeStack\zZDO.c
                 __pa_138   0x006fc4    program     static C:\Users\TienDat\Desktop\ActorHome\PIC18_Zigbee_v2\PIC18_Zigbee_R&D_by_Lab411\Microchip\ZigBeeStack\zZDO.c
                 __pa_139   0x006fce    program     static C:\Users\TienDat\Desktop\ActorHome\PIC18_Zigbee_v2\PIC18_Zigbee_R&D_by_Lab411\Microchip\ZigBeeStack\zZDO.c
                 __pa_140   0x006fe6    program     static C:\Users\TienDat\Desktop\ActorHome\PIC18_Zigbee_v2\PIC18_Zigbee_R&D_by_Lab411\Microchip\ZigBeeStack\zZDO.c
                 __pa_141   0x006ff4    program     static C:\Users\TienDat\Desktop\ActorHome\PIC18_Zigbee_v2\PIC18_Zigbee_R&D_by_Lab411\Microchip\ZigBeeStack\zZDO.c
                 __pa_142   0x006ffa    program     static C:\Users\TienDat\Desktop\ActorHome\PIC18_Zigbee_v2\PIC18_Zigbee_R&D_by_Lab411\Microchip\ZigBeeStack\zZDO.c
                 __pa_143   0x007006    program     static C:\Users\TienDat\Desktop\ActorHome\PIC18_Zigbee_v2\PIC18_Zigbee_R&D_by_Lab411\Microchip\ZigBeeStack\zZDO.c
                 __pa_144   0x007010    program     static C:\Users\TienDat\Desktop\ActorHome\PIC18_Zigbee_v2\PIC18_Zigbee_R&D_by_Lab411\Microchip\ZigBeeStack\zZDO.c
                 __pa_145   0x007014    program     static C:\Users\TienDat\Desktop\ActorHome\PIC18_Zigbee_v2\PIC18_Zigbee_R&D_by_Lab411\Microchip\ZigBeeStack\zZDO.c
                 __pa_146   0x00701e    program     static C:\Users\TienDat\Desktop\ActorHome\PIC18_Zigbee_v2\PIC18_Zigbee_R&D_by_Lab411\Microchip\ZigBeeStack\zZDO.c
                 __pa_147   0x007024    program     static C:\Users\TienDat\Desktop\ActorHome\PIC18_Zigbee_v2\PIC18_Zigbee_R&D_by_Lab411\Microchip\ZigBeeStack\zZDO.c
                 __pa_148   0x00702a    program     static C:\Users\TienDat\Desktop\ActorHome\PIC18_Zigbee_v2\PIC18_Zigbee_R&D_by_Lab411\Microchip\ZigBeeStack\zZDO.c
                 __pa_149   0x00703c    program     static C:\Users\TienDat\Desktop\ActorHome\PIC18_Zigbee_v2\PIC18_Zigbee_R&D_by_Lab411\Microchip\ZigBeeStack\zZDO.c
                 __pa_150   0x007046    program     static C:\Users\TienDat\Desktop\ActorHome\PIC18_Zigbee_v2\PIC18_Zigbee_R&D_by_Lab411\Microchip\ZigBeeStack\zZDO.c
                 __pa_151   0x007050    program     static C:\Users\TienDat\Desktop\ActorHome\PIC18_Zigbee_v2\PIC18_Zigbee_R&D_by_Lab411\Microchip\ZigBeeStack\zZDO.c
                 __pa_152   0x007056    program     static C:\Users\TienDat\Desktop\ActorHome\PIC18_Zigbee_v2\PIC18_Zigbee_R&D_by_Lab411\Microchip\ZigBeeStack\zZDO.c
                 __pa_153   0x007060    program     static C:\Users\TienDat\Desktop\ActorHome\PIC18_Zigbee_v2\PIC18_Zigbee_R&D_by_Lab411\Microchip\ZigBeeStack\zZDO.c
                 __pa_154   0x007070    program     static C:\Users\TienDat\Desktop\ActorHome\PIC18_Zigbee_v2\PIC18_Zigbee_R&D_by_Lab411\Microchip\ZigBeeStack\zZDO.c
                 __pa_155   0x00707c    program     static C:\Users\TienDat\Desktop\ActorHome\PIC18_Zigbee_v2\PIC18_Zigbee_R&D_by_Lab411\Microchip\ZigBeeStack\zZDO.c
                 __pa_156   0x007086    program     static C:\Users\TienDat\Desktop\ActorHome\PIC18_Zigbee_v2\PIC18_Zigbee_R&D_by_Lab411\Microchip\ZigBeeStack\zZDO.c
                 __pa_157   0x00708e    program     static C:\Users\TienDat\Desktop\ActorHome\PIC18_Zigbee_v2\PIC18_Zigbee_R&D_by_Lab411\Microchip\ZigBeeStack\zZDO.c
                 __pa_158   0x007098    program     static C:\Users\TienDat\Desktop\ActorHome\PIC18_Zigbee_v2\PIC18_Zigbee_R&D_by_Lab411\Microchip\ZigBeeStack\zZDO.c
                 __pa_159   0x0070a8    program     static C:\Users\TienDat\Desktop\ActorHome\PIC18_Zigbee_v2\PIC18_Zigbee_R&D_by_Lab411\Microchip\ZigBeeStack\zZDO.c
                 __pa_160   0x0070b0    program     static C:\Users\TienDat\Desktop\ActorHome\PIC18_Zigbee_v2\PIC18_Zigbee_R&D_by_Lab411\Microchip\ZigBeeStack\zZDO.c
                 __pa_161   0x0070c2    program     static C:\Users\TienDat\Desktop\ActorHome\PIC18_Zigbee_v2\PIC18_Zigbee_R&D_by_Lab411\Microchip\ZigBeeStack\zZDO.c
                 __pa_162   0x0070d0    program     static C:\Users\TienDat\Desktop\ActorHome\PIC18_Zigbee_v2\PIC18_Zigbee_R&D_by_Lab411\Microchip\ZigBeeStack\zZDO.c
                 __pa_163   0x0070dc    program     static C:\Users\TienDat\Desktop\ActorHome\PIC18_Zigbee_v2\PIC18_Zigbee_R&D_by_Lab411\Microchip\ZigBeeStack\zZDO.c
                 __pa_164   0x0070e8    program     static C:\Users\TienDat\Desktop\ActorHome\PIC18_Zigbee_v2\PIC18_Zigbee_R&D_by_Lab411\Microchip\ZigBeeStack\zZDO.c
                 __pa_165   0x0070f0    program     static C:\Users\TienDat\Desktop\ActorHome\PIC18_Zigbee_v2\PIC18_Zigbee_R&D_by_Lab411\Microchip\ZigBeeStack\zZDO.c
                 __pa_166   0x0070f6    program     static C:\Users\TienDat\Desktop\ActorHome\PIC18_Zigbee_v2\PIC18_Zigbee_R&D_by_Lab411\Microchip\ZigBeeStack\zZDO.c
                 __pa_167   0x007100    program     static C:\Users\TienDat\Desktop\ActorHome\PIC18_Zigbee_v2\PIC18_Zigbee_R&D_by_Lab411\Microchip\ZigBeeStack\zZDO.c
                 __pa_168   0x007108    program     static C:\Users\TienDat\Desktop\ActorHome\PIC18_Zigbee_v2\PIC18_Zigbee_R&D_by_Lab411\Microchip\ZigBeeStack\zZDO.c
                 __pa_169   0x007114    program     static C:\Users\TienDat\Desktop\ActorHome\PIC18_Zigbee_v2\PIC18_Zigbee_R&D_by_Lab411\Microchip\ZigBeeStack\zZDO.c
                 __pa_170   0x007120    program     static C:\Users\TienDat\Desktop\ActorHome\PIC18_Zigbee_v2\PIC18_Zigbee_R&D_by_Lab411\Microchip\ZigBeeStack\zZDO.c
                 __pa_171   0x007126    program     static C:\Users\TienDat\Desktop\ActorHome\PIC18_Zigbee_v2\PIC18_Zigbee_R&D_by_Lab411\Microchip\ZigBeeStack\zZDO.c
                 __pa_172   0x00712c    program     static C:\Users\TienDat\Desktop\ActorHome\PIC18_Zigbee_v2\PIC18_Zigbee_R&D_by_Lab411\Microchip\ZigBeeStack\zZDO.c
                 __pa_173   0x00713a    program     static C:\Users\TienDat\Desktop\ActorHome\PIC18_Zigbee_v2\PIC18_Zigbee_R&D_by_Lab411\Microchip\ZigBeeStack\zZDO.c
                 __pa_174   0x007148    program     static C:\Users\TienDat\Desktop\ActorHome\PIC18_Zigbee_v2\PIC18_Zigbee_R&D_by_Lab411\Microchip\ZigBeeStack\zZDO.c
                 __pa_175   0x007156    program     static C:\Users\TienDat\Desktop\ActorHome\PIC18_Zigbee_v2\PIC18_Zigbee_R&D_by_Lab411\Microchip\ZigBeeStack\zZDO.c
                 __pa_176   0x007164    program     static C:\Users\TienDat\Desktop\ActorHome\PIC18_Zigbee_v2\PIC18_Zigbee_R&D_by_Lab411\Microchip\ZigBeeStack\zZDO.c
                 __pa_177   0x00716c    program     static C:\Users\TienDat\Desktop\ActorHome\PIC18_Zigbee_v2\PIC18_Zigbee_R&D_by_Lab411\Microchip\ZigBeeStack\zZDO.c
                 __pa_178   0x007174    program     static C:\Users\TienDat\Desktop\ActorHome\PIC18_Zigbee_v2\PIC18_Zigbee_R&D_by_Lab411\Microchip\ZigBeeStack\zZDO.c
                 __pa_179   0x00717e    program     static C:\Users\TienDat\Desktop\ActorHome\PIC18_Zigbee_v2\PIC18_Zigbee_R&D_by_Lab411\Microchip\ZigBeeStack\zZDO.c
                 __pa_180   0x007186    program     static C:\Users\TienDat\Desktop\ActorHome\PIC18_Zigbee_v2\PIC18_Zigbee_R&D_by_Lab411\Microchip\ZigBeeStack\zZDO.c
                 __pa_181   0x00718e    program     static C:\Users\TienDat\Desktop\ActorHome\PIC18_Zigbee_v2\PIC18_Zigbee_R&D_by_Lab411\Microchip\ZigBeeStack\zZDO.c
                 __pa_182   0x007194    program     static C:\Users\TienDat\Desktop\ActorHome\PIC18_Zigbee_v2\PIC18_Zigbee_R&D_by_Lab411\Microchip\ZigBeeStack\zZDO.c
                 __pa_183   0x0071a6    program     static C:\Users\TienDat\Desktop\ActorHome\PIC18_Zigbee_v2\PIC18_Zigbee_R&D_by_Lab411\Microchip\ZigBeeStack\zZDO.c
                 __pa_184   0x0071b8    program     static C:\Users\TienDat\Desktop\ActorHome\PIC18_Zigbee_v2\PIC18_Zigbee_R&D_by_Lab411\Microchip\ZigBeeStack\zZDO.c
                 __pa_185   0x0071be    program     static C:\Users\TienDat\Desktop\ActorHome\PIC18_Zigbee_v2\PIC18_Zigbee_R&D_by_Lab411\Microchip\ZigBeeStack\zZDO.c
                 __pa_186   0x0071d2    program     static C:\Users\TienDat\Desktop\ActorHome\PIC18_Zigbee_v2\PIC18_Zigbee_R&D_by_Lab411\Microchip\ZigBeeStack\zZDO.c
                 __pa_187   0x0071e6    program     static C:\Users\TienDat\Desktop\ActorHome\PIC18_Zigbee_v2\PIC18_Zigbee_R&D_by_Lab411\Microchip\ZigBeeStack\zZDO.c
                 __pa_188   0x0071ec    program     static C:\Users\TienDat\Desktop\ActorHome\PIC18_Zigbee_v2\PIC18_Zigbee_R&D_by_Lab411\Microchip\ZigBeeStack\zZDO.c
                 __pa_189   0x0071f2    program     static C:\Users\TienDat\Desktop\ActorHome\PIC18_Zigbee_v2\PIC18_Zigbee_R&D_by_Lab411\Microchip\ZigBeeStack\zZDO.c
                 __pa_190   0x0071fa    program     static C:\Users\TienDat\Desktop\ActorHome\PIC18_Zigbee_v2\PIC18_Zigbee_R&D_by_Lab411\Microchip\ZigBeeStack\zZDO.c
                 __pa_191   0x007204    program     static C:\Users\TienDat\Desktop\ActorHome\PIC18_Zigbee_v2\PIC18_Zigbee_R&D_by_Lab411\Microchip\ZigBeeStack\zZDO.c
                 __pa_192   0x00720e    program     static C:\Users\TienDat\Desktop\ActorHome\PIC18_Zigbee_v2\PIC18_Zigbee_R&D_by_Lab411\Microchip\ZigBeeStack\zZDO.c
                 __pa_193   0x00721c    program     static C:\Users\TienDat\Desktop\ActorHome\PIC18_Zigbee_v2\PIC18_Zigbee_R&D_by_Lab411\Microchip\ZigBeeStack\zZDO.c
                 __pa_194   0x00722a    program     static C:\Users\TienDat\Desktop\ActorHome\PIC18_Zigbee_v2\PIC18_Zigbee_R&D_by_Lab411\Microchip\ZigBeeStack\zZDO.c
                 __pa_195   0x007230    program     static C:\Users\TienDat\Desktop\ActorHome\PIC18_Zigbee_v2\PIC18_Zigbee_R&D_by_Lab411\Microchip\ZigBeeStack\zZDO.c
                 __pa_196   0x007240    program     static C:\Users\TienDat\Desktop\ActorHome\PIC18_Zigbee_v2\PIC18_Zigbee_R&D_by_Lab411\Microchip\ZigBeeStack\zZDO.c
                 __pa_197   0x00724a    program     static C:\Users\TienDat\Desktop\ActorHome\PIC18_Zigbee_v2\PIC18_Zigbee_R&D_by_Lab411\Microchip\ZigBeeStack\zZDO.c
                 __pa_198   0x007252    program     static C:\Users\TienDat\Desktop\ActorHome\PIC18_Zigbee_v2\PIC18_Zigbee_R&D_by_Lab411\Microchip\ZigBeeStack\zZDO.c
                 __pa_199   0x00725a    program     static C:\Users\TienDat\Desktop\ActorHome\PIC18_Zigbee_v2\PIC18_Zigbee_R&D_by_Lab411\Microchip\ZigBeeStack\zZDO.c
                 __pa_200   0x007260    program     static C:\Users\TienDat\Desktop\ActorHome\PIC18_Zigbee_v2\PIC18_Zigbee_R&D_by_Lab411\Microchip\ZigBeeStack\zZDO.c
                 __pa_201   0x007266    program     static C:\Users\TienDat\Desktop\ActorHome\PIC18_Zigbee_v2\PIC18_Zigbee_R&D_by_Lab411\Microchip\ZigBeeStack\zZDO.c
                 __pa_202   0x00726c    program     static C:\Users\TienDat\Desktop\ActorHome\PIC18_Zigbee_v2\PIC18_Zigbee_R&D_by_Lab411\Microchip\ZigBeeStack\zZDO.c
                 __pa_203   0x007276    program     static C:\Users\TienDat\Desktop\ActorHome\PIC18_Zigbee_v2\PIC18_Zigbee_R&D_by_Lab411\Microchip\ZigBeeStack\zZDO.c
                 __pa_204   0x00727c    program     static C:\Users\TienDat\Desktop\ActorHome\PIC18_Zigbee_v2\PIC18_Zigbee_R&D_by_Lab411\Microchip\ZigBeeStack\zZDO.c
                 __pa_205   0x007282    program     static C:\Users\TienDat\Desktop\ActorHome\PIC18_Zigbee_v2\PIC18_Zigbee_R&D_by_Lab411\Microchip\ZigBeeStack\zZDO.c
                 __pa_206   0x007290    program     static C:\Users\TienDat\Desktop\ActorHome\PIC18_Zigbee_v2\PIC18_Zigbee_R&D_by_Lab411\Microchip\ZigBeeStack\zZDO.c
                 __pa_207   0x00729e    program     static C:\Users\TienDat\Desktop\ActorHome\PIC18_Zigbee_v2\PIC18_Zigbee_R&D_by_Lab411\Microchip\ZigBeeStack\zZDO.c
             __tmplbl_210   0x0072aa    program     static                          
                 __pa_208   0x0072aa    program     static C:\Users\TienDat\Desktop\ActorHome\PIC18_Zigbee_v2\PIC18_Zigbee_R&D_by_Lab411\Microchip\ZigBeeStack\zZDO.c
                 __pa_209   0x0072b6    program     static C:\Users\TienDat\Desktop\ActorHome\PIC18_Zigbee_v2\PIC18_Zigbee_R&D_by_Lab411\Microchip\ZigBeeStack\zZDO.c
                 __pa_210   0x0072c0    program     static C:\Users\TienDat\Desktop\ActorHome\PIC18_Zigbee_v2\PIC18_Zigbee_R&D_by_Lab411\Microchip\ZigBeeStack\zZDO.c
                 __pa_211   0x0072ca    program     static C:\Users\TienDat\Desktop\ActorHome\PIC18_Zigbee_v2\PIC18_Zigbee_R&D_by_Lab411\Microchip\ZigBeeStack\zZDO.c
                 __pa_212   0x0072d6    program     static C:\Users\TienDat\Desktop\ActorHome\PIC18_Zigbee_v2\PIC18_Zigbee_R&D_by_Lab411\Microchip\ZigBeeStack\zZDO.c
                 __pa_213   0x0072e4    program     static C:\Users\TienDat\Desktop\ActorHome\PIC18_Zigbee_v2\PIC18_Zigbee_R&D_by_Lab411\Microchip\ZigBeeStack\zZDO.c
                 __pa_214   0x0072ec    program     static C:\Users\TienDat\Desktop\ActorHome\PIC18_Zigbee_v2\PIC18_Zigbee_R&D_by_Lab411\Microchip\ZigBeeStack\zZDO.c
                 __pa_215   0x0072f6    program     static C:\Users\TienDat\Desktop\ActorHome\PIC18_Zigbee_v2\PIC18_Zigbee_R&D_by_Lab411\Microchip\ZigBeeStack\zZDO.c
                 __pa_216   0x0072fe    program     static C:\Users\TienDat\Desktop\ActorHome\PIC18_Zigbee_v2\PIC18_Zigbee_R&D_by_Lab411\Microchip\ZigBeeStack\zZDO.c
                 __pa_217   0x007308    program     static C:\Users\TienDat\Desktop\ActorHome\PIC18_Zigbee_v2\PIC18_Zigbee_R&D_by_Lab411\Microchip\ZigBeeStack\zZDO.c
                 __pa_218   0x007310    program     static C:\Users\TienDat\Desktop\ActorHome\PIC18_Zigbee_v2\PIC18_Zigbee_R&D_by_Lab411\Microchip\ZigBeeStack\zZDO.c
                 __pa_219   0x00731a    program     static C:\Users\TienDat\Desktop\ActorHome\PIC18_Zigbee_v2\PIC18_Zigbee_R&D_by_Lab411\Microchip\ZigBeeStack\zZDO.c
                 __pa_220   0x007324    program     static C:\Users\TienDat\Desktop\ActorHome\PIC18_Zigbee_v2\PIC18_Zigbee_R&D_by_Lab411\Microchip\ZigBeeStack\zZDO.c
                 __pa_221   0x00732a    program     static C:\Users\TienDat\Desktop\ActorHome\PIC18_Zigbee_v2\PIC18_Zigbee_R&D_by_Lab411\Microchip\ZigBeeStack\zZDO.c
    APSHasBackgroundTasks   0x007330    program     extern C:\Users\TienDat\Desktop\ActorHome\PIC18_Zigbee_v2\PIC18_Zigbee_R&D_by_Lab411\Microchip\ZigBeeStack\zAPS.c
                  APSInit   0x00733c    program     extern C:\Users\TienDat\Desktop\ActorHome\PIC18_Zigbee_v2\PIC18_Zigbee_R&D_by_Lab411\Microchip\ZigBeeStack\zAPS.c
                 APSTasks   0x0074a4    program     extern C:\Users\TienDat\Desktop\ActorHome\PIC18_Zigbee_v2\PIC18_Zigbee_R&D_by_Lab411\Microchip\ZigBeeStack\zAPS.c
              __tmplbl_92   0x007e2a    program     static                          
              __tmplbl_94   0x007e2e    program     static                          
              __tmplbl_91   0x007e2e    program     static                          
             __tmplbl_110   0x0083a4    program     static                          
             __tmplbl_109   0x0083b4    program     static                          
             __tmplbl_108   0x0083c4    program     static                          
             __tmplbl_107   0x0083d8    program     static                          
             __tmplbl_106   0x008460    program     static                          
             __tmplbl_112   0x008470    program     static                          
             __tmplbl_113   0x008470    program     static                          
             __tmplbl_103   0x008470    program     static                          
             __tmplbl_104   0x008470    program     static                          
             __tmplbl_105   0x008470    program     static                          
             __tmplbl_119   0x008472    program     static                          
        APSAddBindingInfo   0x008486    program     extern C:\Users\TienDat\Desktop\ActorHome\PIC18_Zigbee_v2\PIC18_Zigbee_R&D_by_Lab411\Microchip\ZigBeeStack\zAPS.c
  APSClearAPSAddressTable   0x008784    program     extern C:\Users\TienDat\Desktop\ActorHome\PIC18_Zigbee_v2\PIC18_Zigbee_R&D_by_Lab411\Microchip\ZigBeeStack\zAPS.c
                   APSGet   0x0087c6    program     extern C:\Users\TienDat\Desktop\ActorHome\PIC18_Zigbee_v2\PIC18_Zigbee_R&D_by_Lab411\Microchip\ZigBeeStack\zAPS.c
     APSRemoveBindingInfo   0x0087e2    program     extern C:\Users\TienDat\Desktop\ActorHome\PIC18_Zigbee_v2\PIC18_Zigbee_R&D_by_Lab411\Microchip\ZigBeeStack\zAPS.c
         LookupAPSAddress   0x008952    program     extern C:\Users\TienDat\Desktop\ActorHome\PIC18_Zigbee_v2\PIC18_Zigbee_R&D_by_Lab411\Microchip\ZigBeeStack\zAPS.c
        APSSaveAPSAddress   0x0089a6    program     extern C:\Users\TienDat\Desktop\ActorHome\PIC18_Zigbee_v2\PIC18_Zigbee_R&D_by_Lab411\Microchip\ZigBeeStack\zAPS.c
     LookupAPSLongAddress   0x008a2e    program     extern C:\Users\TienDat\Desktop\ActorHome\PIC18_Zigbee_v2\PIC18_Zigbee_R&D_by_Lab411\Microchip\ZigBeeStack\zAPS.c
  LookupSourceBindingInfo   0x008a70    program     extern C:\Users\TienDat\Desktop\ActorHome\PIC18_Zigbee_v2\PIC18_Zigbee_R&D_by_Lab411\Microchip\ZigBeeStack\zAPS.c
        RemoveAllBindings   0x008af6    program     extern C:\Users\TienDat\Desktop\ActorHome\PIC18_Zigbee_v2\PIC18_Zigbee_R&D_by_Lab411\Microchip\ZigBeeStack\zAPS.c
       APSFromShortToLong   0x008cf8    program     extern C:\Users\TienDat\Desktop\ActorHome\PIC18_Zigbee_v2\PIC18_Zigbee_R&D_by_Lab411\Microchip\ZigBeeStack\zAPS.c
       APSFromLongToShort   0x008d52    program     extern C:\Users\TienDat\Desktop\ActorHome\PIC18_Zigbee_v2\PIC18_Zigbee_R&D_by_Lab411\Microchip\ZigBeeStack\zAPS.c
          DuplicatePacket   0x008d7e    program     extern C:\Users\TienDat\Desktop\ActorHome\PIC18_Zigbee_v2\PIC18_Zigbee_R&D_by_Lab411\Microchip\ZigBeeStack\zAPS.c
    GetEndPointsFromGroup   0x008e1c    program     extern C:\Users\TienDat\Desktop\ActorHome\PIC18_Zigbee_v2\PIC18_Zigbee_R&D_by_Lab411\Microchip\ZigBeeStack\zAPS.c
            GetEmptyGroup   0x008e52    program     extern C:\Users\TienDat\Desktop\ActorHome\PIC18_Zigbee_v2\PIC18_Zigbee_R&D_by_Lab411\Microchip\ZigBeeStack\zAPS.c
                 AddGroup   0x008e7e    program     extern C:\Users\TienDat\Desktop\ActorHome\PIC18_Zigbee_v2\PIC18_Zigbee_R&D_by_Lab411\Microchip\ZigBeeStack\zAPS.c
              RemoveGroup   0x008f18    program     extern C:\Users\TienDat\Desktop\ActorHome\PIC18_Zigbee_v2\PIC18_Zigbee_R&D_by_Lab411\Microchip\ZigBeeStack\zAPS.c
          RemoveAllGroups   0x008fea    program     extern C:\Users\TienDat\Desktop\ActorHome\PIC18_Zigbee_v2\PIC18_Zigbee_R&D_by_Lab411\Microchip\ZigBeeStack\zAPS.c
                   __pa_0   0x009030    program     static C:\Users\TienDat\Desktop\ActorHome\PIC18_Zigbee_v2\PIC18_Zigbee_R&D_by_Lab411\Microchip\ZigBeeStack\zAPS.c
                   __pa_1   0x009034    program     static C:\Users\TienDat\Desktop\ActorHome\PIC18_Zigbee_v2\PIC18_Zigbee_R&D_by_Lab411\Microchip\ZigBeeStack\zAPS.c
                   __pa_2   0x009038    program     static C:\Users\TienDat\Desktop\ActorHome\PIC18_Zigbee_v2\PIC18_Zigbee_R&D_by_Lab411\Microchip\ZigBeeStack\zAPS.c
                   __pa_3   0x00903c    program     static C:\Users\TienDat\Desktop\ActorHome\PIC18_Zigbee_v2\PIC18_Zigbee_R&D_by_Lab411\Microchip\ZigBeeStack\zAPS.c
                   __pa_4   0x00904a    program     static C:\Users\TienDat\Desktop\ActorHome\PIC18_Zigbee_v2\PIC18_Zigbee_R&D_by_Lab411\Microchip\ZigBeeStack\zAPS.c
                   __pa_5   0x009050    program     static C:\Users\TienDat\Desktop\ActorHome\PIC18_Zigbee_v2\PIC18_Zigbee_R&D_by_Lab411\Microchip\ZigBeeStack\zAPS.c
                   __pa_6   0x00905a    program     static C:\Users\TienDat\Desktop\ActorHome\PIC18_Zigbee_v2\PIC18_Zigbee_R&D_by_Lab411\Microchip\ZigBeeStack\zAPS.c
                   __pa_7   0x009062    program     static C:\Users\TienDat\Desktop\ActorHome\PIC18_Zigbee_v2\PIC18_Zigbee_R&D_by_Lab411\Microchip\ZigBeeStack\zAPS.c
                   __pa_8   0x00906c    program     static C:\Users\TienDat\Desktop\ActorHome\PIC18_Zigbee_v2\PIC18_Zigbee_R&D_by_Lab411\Microchip\ZigBeeStack\zAPS.c
                   __pa_9   0x009082    program     static C:\Users\TienDat\Desktop\ActorHome\PIC18_Zigbee_v2\PIC18_Zigbee_R&D_by_Lab411\Microchip\ZigBeeStack\zAPS.c
                  __pa_10   0x00908e    program     static C:\Users\TienDat\Desktop\ActorHome\PIC18_Zigbee_v2\PIC18_Zigbee_R&D_by_Lab411\Microchip\ZigBeeStack\zAPS.c
                  __pa_11   0x0090b6    program     static C:\Users\TienDat\Desktop\ActorHome\PIC18_Zigbee_v2\PIC18_Zigbee_R&D_by_Lab411\Microchip\ZigBeeStack\zAPS.c
                  __pa_12   0x0090be    program     static C:\Users\TienDat\Desktop\ActorHome\PIC18_Zigbee_v2\PIC18_Zigbee_R&D_by_Lab411\Microchip\ZigBeeStack\zAPS.c
                  __pa_13   0x0090c4    program     static C:\Users\TienDat\Desktop\ActorHome\PIC18_Zigbee_v2\PIC18_Zigbee_R&D_by_Lab411\Microchip\ZigBeeStack\zAPS.c
              __tmplbl_87   0x0090cc    program     static                          
             __tmplbl_135   0x0090cc    program     static                          
                  __pa_14   0x0090cc    program     static C:\Users\TienDat\Desktop\ActorHome\PIC18_Zigbee_v2\PIC18_Zigbee_R&D_by_Lab411\Microchip\ZigBeeStack\zAPS.c
             __tmplbl_136   0x0090cc    program     static                          
             __tmplbl_134   0x0090cc    program     static                          
                  __pa_15   0x0090d8    program     static C:\Users\TienDat\Desktop\ActorHome\PIC18_Zigbee_v2\PIC18_Zigbee_R&D_by_Lab411\Microchip\ZigBeeStack\zAPS.c
                  __pa_16   0x0090ea    program     static C:\Users\TienDat\Desktop\ActorHome\PIC18_Zigbee_v2\PIC18_Zigbee_R&D_by_Lab411\Microchip\ZigBeeStack\zAPS.c
                  __pa_17   0x0090fc    program     static C:\Users\TienDat\Desktop\ActorHome\PIC18_Zigbee_v2\PIC18_Zigbee_R&D_by_Lab411\Microchip\ZigBeeStack\zAPS.c
                  __pa_18   0x009110    program     static C:\Users\TienDat\Desktop\ActorHome\PIC18_Zigbee_v2\PIC18_Zigbee_R&D_by_Lab411\Microchip\ZigBeeStack\zAPS.c
                  __pa_19   0x009128    program     static C:\Users\TienDat\Desktop\ActorHome\PIC18_Zigbee_v2\PIC18_Zigbee_R&D_by_Lab411\Microchip\ZigBeeStack\zAPS.c
                  __pa_20   0x009130    program     static C:\Users\TienDat\Desktop\ActorHome\PIC18_Zigbee_v2\PIC18_Zigbee_R&D_by_Lab411\Microchip\ZigBeeStack\zAPS.c
                  __pa_21   0x009136    program     static C:\Users\TienDat\Desktop\ActorHome\PIC18_Zigbee_v2\PIC18_Zigbee_R&D_by_Lab411\Microchip\ZigBeeStack\zAPS.c
                  __pa_22   0x009144    program     static C:\Users\TienDat\Desktop\ActorHome\PIC18_Zigbee_v2\PIC18_Zigbee_R&D_by_Lab411\Microchip\ZigBeeStack\zAPS.c
                  __pa_23   0x00914c    program     static C:\Users\TienDat\Desktop\ActorHome\PIC18_Zigbee_v2\PIC18_Zigbee_R&D_by_Lab411\Microchip\ZigBeeStack\zAPS.c
                  __pa_24   0x00915a    program     static C:\Users\TienDat\Desktop\ActorHome\PIC18_Zigbee_v2\PIC18_Zigbee_R&D_by_Lab411\Microchip\ZigBeeStack\zAPS.c
                  __pa_25   0x009162    program     static C:\Users\TienDat\Desktop\ActorHome\PIC18_Zigbee_v2\PIC18_Zigbee_R&D_by_Lab411\Microchip\ZigBeeStack\zAPS.c
                  __pa_26   0x00916a    program     static C:\Users\TienDat\Desktop\ActorHome\PIC18_Zigbee_v2\PIC18_Zigbee_R&D_by_Lab411\Microchip\ZigBeeStack\zAPS.c
                  __pa_27   0x009172    program     static C:\Users\TienDat\Desktop\ActorHome\PIC18_Zigbee_v2\PIC18_Zigbee_R&D_by_Lab411\Microchip\ZigBeeStack\zAPS.c
                  __pa_28   0x009178    program     static C:\Users\TienDat\Desktop\ActorHome\PIC18_Zigbee_v2\PIC18_Zigbee_R&D_by_Lab411\Microchip\ZigBeeStack\zAPS.c
                  __pa_29   0x009186    program     static C:\Users\TienDat\Desktop\ActorHome\PIC18_Zigbee_v2\PIC18_Zigbee_R&D_by_Lab411\Microchip\ZigBeeStack\zAPS.c
                  __pa_30   0x00918e    program     static C:\Users\TienDat\Desktop\ActorHome\PIC18_Zigbee_v2\PIC18_Zigbee_R&D_by_Lab411\Microchip\ZigBeeStack\zAPS.c
                  __pa_31   0x009196    program     static C:\Users\TienDat\Desktop\ActorHome\PIC18_Zigbee_v2\PIC18_Zigbee_R&D_by_Lab411\Microchip\ZigBeeStack\zAPS.c
                  __pa_32   0x00919e    program     static C:\Users\TienDat\Desktop\ActorHome\PIC18_Zigbee_v2\PIC18_Zigbee_R&D_by_Lab411\Microchip\ZigBeeStack\zAPS.c
                  __pa_33   0x0091ac    program     static C:\Users\TienDat\Desktop\ActorHome\PIC18_Zigbee_v2\PIC18_Zigbee_R&D_by_Lab411\Microchip\ZigBeeStack\zAPS.c
                  __pa_34   0x0091c4    program     static C:\Users\TienDat\Desktop\ActorHome\PIC18_Zigbee_v2\PIC18_Zigbee_R&D_by_Lab411\Microchip\ZigBeeStack\zAPS.c
                  __pa_35   0x0091cc    program     static C:\Users\TienDat\Desktop\ActorHome\PIC18_Zigbee_v2\PIC18_Zigbee_R&D_by_Lab411\Microchip\ZigBeeStack\zAPS.c
                  __pa_36   0x0091d6    program     static C:\Users\TienDat\Desktop\ActorHome\PIC18_Zigbee_v2\PIC18_Zigbee_R&D_by_Lab411\Microchip\ZigBeeStack\zAPS.c
                  __pa_37   0x0091f8    program     static C:\Users\TienDat\Desktop\ActorHome\PIC18_Zigbee_v2\PIC18_Zigbee_R&D_by_Lab411\Microchip\ZigBeeStack\zAPS.c
                  __pa_38   0x009212    program     static C:\Users\TienDat\Desktop\ActorHome\PIC18_Zigbee_v2\PIC18_Zigbee_R&D_by_Lab411\Microchip\ZigBeeStack\zAPS.c
                  __pa_39   0x009218    program     static C:\Users\TienDat\Desktop\ActorHome\PIC18_Zigbee_v2\PIC18_Zigbee_R&D_by_Lab411\Microchip\ZigBeeStack\zAPS.c
                  __pa_40   0x009220    program     static C:\Users\TienDat\Desktop\ActorHome\PIC18_Zigbee_v2\PIC18_Zigbee_R&D_by_Lab411\Microchip\ZigBeeStack\zAPS.c
                  __pa_41   0x00922a    program     static C:\Users\TienDat\Desktop\ActorHome\PIC18_Zigbee_v2\PIC18_Zigbee_R&D_by_Lab411\Microchip\ZigBeeStack\zAPS.c
                  __pa_42   0x00923c    program     static C:\Users\TienDat\Desktop\ActorHome\PIC18_Zigbee_v2\PIC18_Zigbee_R&D_by_Lab411\Microchip\ZigBeeStack\zAPS.c
                  __pa_43   0x00924a    program     static C:\Users\TienDat\Desktop\ActorHome\PIC18_Zigbee_v2\PIC18_Zigbee_R&D_by_Lab411\Microchip\ZigBeeStack\zAPS.c
                  __pa_44   0x009252    program     static C:\Users\TienDat\Desktop\ActorHome\PIC18_Zigbee_v2\PIC18_Zigbee_R&D_by_Lab411\Microchip\ZigBeeStack\zAPS.c
                  __pa_45   0x009262    program     static C:\Users\TienDat\Desktop\ActorHome\PIC18_Zigbee_v2\PIC18_Zigbee_R&D_by_Lab411\Microchip\ZigBeeStack\zAPS.c
                  __pa_46   0x009272    program     static C:\Users\TienDat\Desktop\ActorHome\PIC18_Zigbee_v2\PIC18_Zigbee_R&D_by_Lab411\Microchip\ZigBeeStack\zAPS.c
                  __pa_47   0x00927c    program     static C:\Users\TienDat\Desktop\ActorHome\PIC18_Zigbee_v2\PIC18_Zigbee_R&D_by_Lab411\Microchip\ZigBeeStack\zAPS.c
                  __pa_48   0x009284    program     static C:\Users\TienDat\Desktop\ActorHome\PIC18_Zigbee_v2\PIC18_Zigbee_R&D_by_Lab411\Microchip\ZigBeeStack\zAPS.c
                  __pa_49   0x009290    program     static C:\Users\TienDat\Desktop\ActorHome\PIC18_Zigbee_v2\PIC18_Zigbee_R&D_by_Lab411\Microchip\ZigBeeStack\zAPS.c
                  __pa_50   0x009298    program     static C:\Users\TienDat\Desktop\ActorHome\PIC18_Zigbee_v2\PIC18_Zigbee_R&D_by_Lab411\Microchip\ZigBeeStack\zAPS.c
                  __pa_51   0x0092ae    program     static C:\Users\TienDat\Desktop\ActorHome\PIC18_Zigbee_v2\PIC18_Zigbee_R&D_by_Lab411\Microchip\ZigBeeStack\zAPS.c
                  __pa_52   0x0092bc    program     static C:\Users\TienDat\Desktop\ActorHome\PIC18_Zigbee_v2\PIC18_Zigbee_R&D_by_Lab411\Microchip\ZigBeeStack\zAPS.c
                  __pa_53   0x0092c4    program     static C:\Users\TienDat\Desktop\ActorHome\PIC18_Zigbee_v2\PIC18_Zigbee_R&D_by_Lab411\Microchip\ZigBeeStack\zAPS.c
                  __pa_54   0x0092cc    program     static C:\Users\TienDat\Desktop\ActorHome\PIC18_Zigbee_v2\PIC18_Zigbee_R&D_by_Lab411\Microchip\ZigBeeStack\zAPS.c
                  __pa_55   0x0092d6    program     static C:\Users\TienDat\Desktop\ActorHome\PIC18_Zigbee_v2\PIC18_Zigbee_R&D_by_Lab411\Microchip\ZigBeeStack\zAPS.c
                  __pa_56   0x0092da    program     static C:\Users\TienDat\Desktop\ActorHome\PIC18_Zigbee_v2\PIC18_Zigbee_R&D_by_Lab411\Microchip\ZigBeeStack\zAPS.c
                  __pa_57   0x0092ec    program     static C:\Users\TienDat\Desktop\ActorHome\PIC18_Zigbee_v2\PIC18_Zigbee_R&D_by_Lab411\Microchip\ZigBeeStack\zAPS.c
                  __pa_58   0x0092fe    program     static C:\Users\TienDat\Desktop\ActorHome\PIC18_Zigbee_v2\PIC18_Zigbee_R&D_by_Lab411\Microchip\ZigBeeStack\zAPS.c
                  __pa_59   0x00930a    program     static C:\Users\TienDat\Desktop\ActorHome\PIC18_Zigbee_v2\PIC18_Zigbee_R&D_by_Lab411\Microchip\ZigBeeStack\zAPS.c
                  __pa_60   0x009316    program     static C:\Users\TienDat\Desktop\ActorHome\PIC18_Zigbee_v2\PIC18_Zigbee_R&D_by_Lab411\Microchip\ZigBeeStack\zAPS.c
                  __pa_61   0x009328    program     static C:\Users\TienDat\Desktop\ActorHome\PIC18_Zigbee_v2\PIC18_Zigbee_R&D_by_Lab411\Microchip\ZigBeeStack\zAPS.c
                  __pa_62   0x009330    program     static C:\Users\TienDat\Desktop\ActorHome\PIC18_Zigbee_v2\PIC18_Zigbee_R&D_by_Lab411\Microchip\ZigBeeStack\zAPS.c
                  __pa_63   0x009338    program     static C:\Users\TienDat\Desktop\ActorHome\PIC18_Zigbee_v2\PIC18_Zigbee_R&D_by_Lab411\Microchip\ZigBeeStack\zAPS.c
                  __pa_64   0x009344    program     static C:\Users\TienDat\Desktop\ActorHome\PIC18_Zigbee_v2\PIC18_Zigbee_R&D_by_Lab411\Microchip\ZigBeeStack\zAPS.c
                  __pa_65   0x009354    program     static C:\Users\TienDat\Desktop\ActorHome\PIC18_Zigbee_v2\PIC18_Zigbee_R&D_by_Lab411\Microchip\ZigBeeStack\zAPS.c
                  __pa_66   0x009364    program     static C:\Users\TienDat\Desktop\ActorHome\PIC18_Zigbee_v2\PIC18_Zigbee_R&D_by_Lab411\Microchip\ZigBeeStack\zAPS.c
                  __pa_67   0x009374    program     static C:\Users\TienDat\Desktop\ActorHome\PIC18_Zigbee_v2\PIC18_Zigbee_R&D_by_Lab411\Microchip\ZigBeeStack\zAPS.c
                  __pa_68   0x00937a    program     static C:\Users\TienDat\Desktop\ActorHome\PIC18_Zigbee_v2\PIC18_Zigbee_R&D_by_Lab411\Microchip\ZigBeeStack\zAPS.c
                  __pa_69   0x009388    program     static C:\Users\TienDat\Desktop\ActorHome\PIC18_Zigbee_v2\PIC18_Zigbee_R&D_by_Lab411\Microchip\ZigBeeStack\zAPS.c
                  __pa_70   0x009390    program     static C:\Users\TienDat\Desktop\ActorHome\PIC18_Zigbee_v2\PIC18_Zigbee_R&D_by_Lab411\Microchip\ZigBeeStack\zAPS.c
                  __pa_71   0x009396    program     static C:\Users\TienDat\Desktop\ActorHome\PIC18_Zigbee_v2\PIC18_Zigbee_R&D_by_Lab411\Microchip\ZigBeeStack\zAPS.c
                  __pa_72   0x0093a4    program     static C:\Users\TienDat\Desktop\ActorHome\PIC18_Zigbee_v2\PIC18_Zigbee_R&D_by_Lab411\Microchip\ZigBeeStack\zAPS.c
                  __pa_73   0x0093b2    program     static C:\Users\TienDat\Desktop\ActorHome\PIC18_Zigbee_v2\PIC18_Zigbee_R&D_by_Lab411\Microchip\ZigBeeStack\zAPS.c
                  __pa_74   0x0093ba    program     static C:\Users\TienDat\Desktop\ActorHome\PIC18_Zigbee_v2\PIC18_Zigbee_R&D_by_Lab411\Microchip\ZigBeeStack\zAPS.c
                  __pa_75   0x0093c4    program     static C:\Users\TienDat\Desktop\ActorHome\PIC18_Zigbee_v2\PIC18_Zigbee_R&D_by_Lab411\Microchip\ZigBeeStack\zAPS.c
                  __pa_76   0x0093d2    program     static C:\Users\TienDat\Desktop\ActorHome\PIC18_Zigbee_v2\PIC18_Zigbee_R&D_by_Lab411\Microchip\ZigBeeStack\zAPS.c
                  __pa_77   0x0093d8    program     static C:\Users\TienDat\Desktop\ActorHome\PIC18_Zigbee_v2\PIC18_Zigbee_R&D_by_Lab411\Microchip\ZigBeeStack\zAPS.c
                  __pa_78   0x0093e0    program     static C:\Users\TienDat\Desktop\ActorHome\PIC18_Zigbee_v2\PIC18_Zigbee_R&D_by_Lab411\Microchip\ZigBeeStack\zAPS.c
                  __pa_79   0x0093ea    program     static C:\Users\TienDat\Desktop\ActorHome\PIC18_Zigbee_v2\PIC18_Zigbee_R&D_by_Lab411\Microchip\ZigBeeStack\zAPS.c
                  __pa_80   0x0093f2    program     static C:\Users\TienDat\Desktop\ActorHome\PIC18_Zigbee_v2\PIC18_Zigbee_R&D_by_Lab411\Microchip\ZigBeeStack\zAPS.c
                  __pa_81   0x0093fa    program     static C:\Users\TienDat\Desktop\ActorHome\PIC18_Zigbee_v2\PIC18_Zigbee_R&D_by_Lab411\Microchip\ZigBeeStack\zAPS.c
                  __pa_82   0x009400    program     static C:\Users\TienDat\Desktop\ActorHome\PIC18_Zigbee_v2\PIC18_Zigbee_R&D_by_Lab411\Microchip\ZigBeeStack\zAPS.c
                  __pa_83   0x009408    program     static C:\Users\TienDat\Desktop\ActorHome\PIC18_Zigbee_v2\PIC18_Zigbee_R&D_by_Lab411\Microchip\ZigBeeStack\zAPS.c
                  __pa_84   0x009410    program     static C:\Users\TienDat\Desktop\ActorHome\PIC18_Zigbee_v2\PIC18_Zigbee_R&D_by_Lab411\Microchip\ZigBeeStack\zAPS.c
                  __pa_85   0x009418    program     static C:\Users\TienDat\Desktop\ActorHome\PIC18_Zigbee_v2\PIC18_Zigbee_R&D_by_Lab411\Microchip\ZigBeeStack\zAPS.c
                  __pa_86   0x00941e    program     static C:\Users\TienDat\Desktop\ActorHome\PIC18_Zigbee_v2\PIC18_Zigbee_R&D_by_Lab411\Microchip\ZigBeeStack\zAPS.c
                  __pa_87   0x009424    program     static C:\Users\TienDat\Desktop\ActorHome\PIC18_Zigbee_v2\PIC18_Zigbee_R&D_by_Lab411\Microchip\ZigBeeStack\zAPS.c
                  __pa_88   0x009434    program     static C:\Users\TienDat\Desktop\ActorHome\PIC18_Zigbee_v2\PIC18_Zigbee_R&D_by_Lab411\Microchip\ZigBeeStack\zAPS.c
                  __pa_89   0x009444    program     static C:\Users\TienDat\Desktop\ActorHome\PIC18_Zigbee_v2\PIC18_Zigbee_R&D_by_Lab411\Microchip\ZigBeeStack\zAPS.c
                  __pa_90   0x00944a    program     static C:\Users\TienDat\Desktop\ActorHome\PIC18_Zigbee_v2\PIC18_Zigbee_R&D_by_Lab411\Microchip\ZigBeeStack\zAPS.c
                  __pa_91   0x009450    program     static C:\Users\TienDat\Desktop\ActorHome\PIC18_Zigbee_v2\PIC18_Zigbee_R&D_by_Lab411\Microchip\ZigBeeStack\zAPS.c
                  __pa_92   0x009460    program     static C:\Users\TienDat\Desktop\ActorHome\PIC18_Zigbee_v2\PIC18_Zigbee_R&D_by_Lab411\Microchip\ZigBeeStack\zAPS.c
                  __pa_93   0x00946c    program     static C:\Users\TienDat\Desktop\ActorHome\PIC18_Zigbee_v2\PIC18_Zigbee_R&D_by_Lab411\Microchip\ZigBeeStack\zAPS.c
                  __pa_94   0x009472    program     static C:\Users\TienDat\Desktop\ActorHome\PIC18_Zigbee_v2\PIC18_Zigbee_R&D_by_Lab411\Microchip\ZigBeeStack\zAPS.c
                  __pa_95   0x009488    program     static C:\Users\TienDat\Desktop\ActorHome\PIC18_Zigbee_v2\PIC18_Zigbee_R&D_by_Lab411\Microchip\ZigBeeStack\zAPS.c
                  __pa_96   0x0094a2    program     static C:\Users\TienDat\Desktop\ActorHome\PIC18_Zigbee_v2\PIC18_Zigbee_R&D_by_Lab411\Microchip\ZigBeeStack\zAPS.c
                  __pa_97   0x0094b0    program     static C:\Users\TienDat\Desktop\ActorHome\PIC18_Zigbee_v2\PIC18_Zigbee_R&D_by_Lab411\Microchip\ZigBeeStack\zAPS.c
                  __pa_98   0x0094c2    program     static C:\Users\TienDat\Desktop\ActorHome\PIC18_Zigbee_v2\PIC18_Zigbee_R&D_by_Lab411\Microchip\ZigBeeStack\zAPS.c
                  __pa_99   0x0094c6    program     static C:\Users\TienDat\Desktop\ActorHome\PIC18_Zigbee_v2\PIC18_Zigbee_R&D_by_Lab411\Microchip\ZigBeeStack\zAPS.c
                 __pa_100   0x0094d2    program     static C:\Users\TienDat\Desktop\ActorHome\PIC18_Zigbee_v2\PIC18_Zigbee_R&D_by_Lab411\Microchip\ZigBeeStack\zAPS.c
                 __pa_101   0x0094da    program     static C:\Users\TienDat\Desktop\ActorHome\PIC18_Zigbee_v2\PIC18_Zigbee_R&D_by_Lab411\Microchip\ZigBeeStack\zAPS.c
                 __pa_102   0x0094e0    program     static C:\Users\TienDat\Desktop\ActorHome\PIC18_Zigbee_v2\PIC18_Zigbee_R&D_by_Lab411\Microchip\ZigBeeStack\zAPS.c
                 __pa_103   0x0094e6    program     static C:\Users\TienDat\Desktop\ActorHome\PIC18_Zigbee_v2\PIC18_Zigbee_R&D_by_Lab411\Microchip\ZigBeeStack\zAPS.c
                 __pa_104   0x009504    program     static C:\Users\TienDat\Desktop\ActorHome\PIC18_Zigbee_v2\PIC18_Zigbee_R&D_by_Lab411\Microchip\ZigBeeStack\zAPS.c
                 __pa_105   0x009514    program     static C:\Users\TienDat\Desktop\ActorHome\PIC18_Zigbee_v2\PIC18_Zigbee_R&D_by_Lab411\Microchip\ZigBeeStack\zAPS.c
                 __pa_106   0x00952c    program     static C:\Users\TienDat\Desktop\ActorHome\PIC18_Zigbee_v2\PIC18_Zigbee_R&D_by_Lab411\Microchip\ZigBeeStack\zAPS.c
                 __pa_107   0x009538    program     static C:\Users\TienDat\Desktop\ActorHome\PIC18_Zigbee_v2\PIC18_Zigbee_R&D_by_Lab411\Microchip\ZigBeeStack\zAPS.c
                 __pa_108   0x009544    program     static C:\Users\TienDat\Desktop\ActorHome\PIC18_Zigbee_v2\PIC18_Zigbee_R&D_by_Lab411\Microchip\ZigBeeStack\zAPS.c
                 __pa_109   0x00954c    program     static C:\Users\TienDat\Desktop\ActorHome\PIC18_Zigbee_v2\PIC18_Zigbee_R&D_by_Lab411\Microchip\ZigBeeStack\zAPS.c
                 __pa_110   0x00955a    program     static C:\Users\TienDat\Desktop\ActorHome\PIC18_Zigbee_v2\PIC18_Zigbee_R&D_by_Lab411\Microchip\ZigBeeStack\zAPS.c
                 __pa_111   0x00956e    program     static C:\Users\TienDat\Desktop\ActorHome\PIC18_Zigbee_v2\PIC18_Zigbee_R&D_by_Lab411\Microchip\ZigBeeStack\zAPS.c
                 __pa_112   0x009574    program     static C:\Users\TienDat\Desktop\ActorHome\PIC18_Zigbee_v2\PIC18_Zigbee_R&D_by_Lab411\Microchip\ZigBeeStack\zAPS.c
                 __pa_113   0x009580    program     static C:\Users\TienDat\Desktop\ActorHome\PIC18_Zigbee_v2\PIC18_Zigbee_R&D_by_Lab411\Microchip\ZigBeeStack\zAPS.c
                 __pa_114   0x00958e    program     static C:\Users\TienDat\Desktop\ActorHome\PIC18_Zigbee_v2\PIC18_Zigbee_R&D_by_Lab411\Microchip\ZigBeeStack\zAPS.c
                 __pa_115   0x009596    program     static C:\Users\TienDat\Desktop\ActorHome\PIC18_Zigbee_v2\PIC18_Zigbee_R&D_by_Lab411\Microchip\ZigBeeStack\zAPS.c
                 __pa_116   0x0095a0    program     static C:\Users\TienDat\Desktop\ActorHome\PIC18_Zigbee_v2\PIC18_Zigbee_R&D_by_Lab411\Microchip\ZigBeeStack\zAPS.c
                 __pa_117   0x0095aa    program     static C:\Users\TienDat\Desktop\ActorHome\PIC18_Zigbee_v2\PIC18_Zigbee_R&D_by_Lab411\Microchip\ZigBeeStack\zAPS.c
                 __pa_118   0x0095b0    program     static C:\Users\TienDat\Desktop\ActorHome\PIC18_Zigbee_v2\PIC18_Zigbee_R&D_by_Lab411\Microchip\ZigBeeStack\zAPS.c
                 __pa_119   0x0095b8    program     static C:\Users\TienDat\Desktop\ActorHome\PIC18_Zigbee_v2\PIC18_Zigbee_R&D_by_Lab411\Microchip\ZigBeeStack\zAPS.c
                 __pa_120   0x0095c0    program     static C:\Users\TienDat\Desktop\ActorHome\PIC18_Zigbee_v2\PIC18_Zigbee_R&D_by_Lab411\Microchip\ZigBeeStack\zAPS.c
                 __pa_121   0x0095c8    program     static C:\Users\TienDat\Desktop\ActorHome\PIC18_Zigbee_v2\PIC18_Zigbee_R&D_by_Lab411\Microchip\ZigBeeStack\zAPS.c
                 __pa_122   0x0095d0    program     static C:\Users\TienDat\Desktop\ActorHome\PIC18_Zigbee_v2\PIC18_Zigbee_R&D_by_Lab411\Microchip\ZigBeeStack\zAPS.c
                 __pa_123   0x0095de    program     static C:\Users\TienDat\Desktop\ActorHome\PIC18_Zigbee_v2\PIC18_Zigbee_R&D_by_Lab411\Microchip\ZigBeeStack\zAPS.c
                 __pa_124   0x0095e4    program     static C:\Users\TienDat\Desktop\ActorHome\PIC18_Zigbee_v2\PIC18_Zigbee_R&D_by_Lab411\Microchip\ZigBeeStack\zAPS.c
                 __pa_125   0x0095f0    program     static C:\Users\TienDat\Desktop\ActorHome\PIC18_Zigbee_v2\PIC18_Zigbee_R&D_by_Lab411\Microchip\ZigBeeStack\zAPS.c
                 __pa_126   0x0095f6    program     static C:\Users\TienDat\Desktop\ActorHome\PIC18_Zigbee_v2\PIC18_Zigbee_R&D_by_Lab411\Microchip\ZigBeeStack\zAPS.c
                 __pa_127   0x009602    program     static C:\Users\TienDat\Desktop\ActorHome\PIC18_Zigbee_v2\PIC18_Zigbee_R&D_by_Lab411\Microchip\ZigBeeStack\zAPS.c
                 __pa_128   0x00960e    program     static C:\Users\TienDat\Desktop\ActorHome\PIC18_Zigbee_v2\PIC18_Zigbee_R&D_by_Lab411\Microchip\ZigBeeStack\zAPS.c
                 __pa_129   0x00961a    program     static C:\Users\TienDat\Desktop\ActorHome\PIC18_Zigbee_v2\PIC18_Zigbee_R&D_by_Lab411\Microchip\ZigBeeStack\zAPS.c
                 __pa_130   0x009628    program     static C:\Users\TienDat\Desktop\ActorHome\PIC18_Zigbee_v2\PIC18_Zigbee_R&D_by_Lab411\Microchip\ZigBeeStack\zAPS.c
                 __pa_131   0x009636    program     static C:\Users\TienDat\Desktop\ActorHome\PIC18_Zigbee_v2\PIC18_Zigbee_R&D_by_Lab411\Microchip\ZigBeeStack\zAPS.c
                 __pa_132   0x009640    program     static C:\Users\TienDat\Desktop\ActorHome\PIC18_Zigbee_v2\PIC18_Zigbee_R&D_by_Lab411\Microchip\ZigBeeStack\zAPS.c
                 __pa_133   0x009648    program     static C:\Users\TienDat\Desktop\ActorHome\PIC18_Zigbee_v2\PIC18_Zigbee_R&D_by_Lab411\Microchip\ZigBeeStack\zAPS.c
                 __pa_134   0x009650    program     static C:\Users\TienDat\Desktop\ActorHome\PIC18_Zigbee_v2\PIC18_Zigbee_R&D_by_Lab411\Microchip\ZigBeeStack\zAPS.c
                 __pa_135   0x009658    program     static C:\Users\TienDat\Desktop\ActorHome\PIC18_Zigbee_v2\PIC18_Zigbee_R&D_by_Lab411\Microchip\ZigBeeStack\zAPS.c
                 __pa_136   0x009660    program     static C:\Users\TienDat\Desktop\ActorHome\PIC18_Zigbee_v2\PIC18_Zigbee_R&D_by_Lab411\Microchip\ZigBeeStack\zAPS.c
                 __pa_137   0x009666    program     static C:\Users\TienDat\Desktop\ActorHome\PIC18_Zigbee_v2\PIC18_Zigbee_R&D_by_Lab411\Microchip\ZigBeeStack\zAPS.c
                 __pa_138   0x00966e    program     static C:\Users\TienDat\Desktop\ActorHome\PIC18_Zigbee_v2\PIC18_Zigbee_R&D_by_Lab411\Microchip\ZigBeeStack\zAPS.c
                 __pa_139   0x009676    program     static C:\Users\TienDat\Desktop\ActorHome\PIC18_Zigbee_v2\PIC18_Zigbee_R&D_by_Lab411\Microchip\ZigBeeStack\zAPS.c
                 __pa_140   0x00967e    program     static C:\Users\TienDat\Desktop\ActorHome\PIC18_Zigbee_v2\PIC18_Zigbee_R&D_by_Lab411\Microchip\ZigBeeStack\zAPS.c
                 __pa_141   0x009688    program     static C:\Users\TienDat\Desktop\ActorHome\PIC18_Zigbee_v2\PIC18_Zigbee_R&D_by_Lab411\Microchip\ZigBeeStack\zAPS.c
                 __pa_142   0x009690    program     static C:\Users\TienDat\Desktop\ActorHome\PIC18_Zigbee_v2\PIC18_Zigbee_R&D_by_Lab411\Microchip\ZigBeeStack\zAPS.c
                 __pa_143   0x009698    program     static C:\Users\TienDat\Desktop\ActorHome\PIC18_Zigbee_v2\PIC18_Zigbee_R&D_by_Lab411\Microchip\ZigBeeStack\zAPS.c
                 __pa_144   0x00969e    program     static C:\Users\TienDat\Desktop\ActorHome\PIC18_Zigbee_v2\PIC18_Zigbee_R&D_by_Lab411\Microchip\ZigBeeStack\zAPS.c
                 __pa_145   0x0096a8    program     static C:\Users\TienDat\Desktop\ActorHome\PIC18_Zigbee_v2\PIC18_Zigbee_R&D_by_Lab411\Microchip\ZigBeeStack\zAPS.c
                 __pa_146   0x0096b0    program     static C:\Users\TienDat\Desktop\ActorHome\PIC18_Zigbee_v2\PIC18_Zigbee_R&D_by_Lab411\Microchip\ZigBeeStack\zAPS.c
                 __pa_147   0x0096ba    program     static C:\Users\TienDat\Desktop\ActorHome\PIC18_Zigbee_v2\PIC18_Zigbee_R&D_by_Lab411\Microchip\ZigBeeStack\zAPS.c
                 __pa_148   0x0096c2    program     static C:\Users\TienDat\Desktop\ActorHome\PIC18_Zigbee_v2\PIC18_Zigbee_R&D_by_Lab411\Microchip\ZigBeeStack\zAPS.c
                 __pa_149   0x0096d6    program     static C:\Users\TienDat\Desktop\ActorHome\PIC18_Zigbee_v2\PIC18_Zigbee_R&D_by_Lab411\Microchip\ZigBeeStack\zAPS.c
                 __pa_150   0x0096e0    program     static C:\Users\TienDat\Desktop\ActorHome\PIC18_Zigbee_v2\PIC18_Zigbee_R&D_by_Lab411\Microchip\ZigBeeStack\zAPS.c
                 __pa_151   0x0096e6    program     static C:\Users\TienDat\Desktop\ActorHome\PIC18_Zigbee_v2\PIC18_Zigbee_R&D_by_Lab411\Microchip\ZigBeeStack\zAPS.c
                 __pa_152   0x0096ee    program     static C:\Users\TienDat\Desktop\ActorHome\PIC18_Zigbee_v2\PIC18_Zigbee_R&D_by_Lab411\Microchip\ZigBeeStack\zAPS.c
                 __pa_153   0x0096f4    program     static C:\Users\TienDat\Desktop\ActorHome\PIC18_Zigbee_v2\PIC18_Zigbee_R&D_by_Lab411\Microchip\ZigBeeStack\zAPS.c
                 __pa_154   0x0096fc    program     static C:\Users\TienDat\Desktop\ActorHome\PIC18_Zigbee_v2\PIC18_Zigbee_R&D_by_Lab411\Microchip\ZigBeeStack\zAPS.c
                 __pa_155   0x009704    program     static C:\Users\TienDat\Desktop\ActorHome\PIC18_Zigbee_v2\PIC18_Zigbee_R&D_by_Lab411\Microchip\ZigBeeStack\zAPS.c
                 __pa_156   0x009716    program     static C:\Users\TienDat\Desktop\ActorHome\PIC18_Zigbee_v2\PIC18_Zigbee_R&D_by_Lab411\Microchip\ZigBeeStack\zAPS.c
                 __pa_157   0x00971e    program     static C:\Users\TienDat\Desktop\ActorHome\PIC18_Zigbee_v2\PIC18_Zigbee_R&D_by_Lab411\Microchip\ZigBeeStack\zAPS.c
                 __pa_158   0x009724    program     static C:\Users\TienDat\Desktop\ActorHome\PIC18_Zigbee_v2\PIC18_Zigbee_R&D_by_Lab411\Microchip\ZigBeeStack\zAPS.c
                 __pa_159   0x009730    program     static C:\Users\TienDat\Desktop\ActorHome\PIC18_Zigbee_v2\PIC18_Zigbee_R&D_by_Lab411\Microchip\ZigBeeStack\zAPS.c
                 __pa_160   0x00973c    program     static C:\Users\TienDat\Desktop\ActorHome\PIC18_Zigbee_v2\PIC18_Zigbee_R&D_by_Lab411\Microchip\ZigBeeStack\zAPS.c
                 __pa_161   0x009744    program     static C:\Users\TienDat\Desktop\ActorHome\PIC18_Zigbee_v2\PIC18_Zigbee_R&D_by_Lab411\Microchip\ZigBeeStack\zAPS.c
                 __pa_162   0x00974c    program     static C:\Users\TienDat\Desktop\ActorHome\PIC18_Zigbee_v2\PIC18_Zigbee_R&D_by_Lab411\Microchip\ZigBeeStack\zAPS.c
                 __pa_163   0x009754    program     static C:\Users\TienDat\Desktop\ActorHome\PIC18_Zigbee_v2\PIC18_Zigbee_R&D_by_Lab411\Microchip\ZigBeeStack\zAPS.c
                 __pa_164   0x00975c    program     static C:\Users\TienDat\Desktop\ActorHome\PIC18_Zigbee_v2\PIC18_Zigbee_R&D_by_Lab411\Microchip\ZigBeeStack\zAPS.c
                 __pa_165   0x009766    program     static C:\Users\TienDat\Desktop\ActorHome\PIC18_Zigbee_v2\PIC18_Zigbee_R&D_by_Lab411\Microchip\ZigBeeStack\zAPS.c
                 __pa_166   0x00976c    program     static C:\Users\TienDat\Desktop\ActorHome\PIC18_Zigbee_v2\PIC18_Zigbee_R&D_by_Lab411\Microchip\ZigBeeStack\zAPS.c
                 __pa_167   0x009776    program     static C:\Users\TienDat\Desktop\ActorHome\PIC18_Zigbee_v2\PIC18_Zigbee_R&D_by_Lab411\Microchip\ZigBeeStack\zAPS.c
                 __pa_168   0x009782    program     static C:\Users\TienDat\Desktop\ActorHome\PIC18_Zigbee_v2\PIC18_Zigbee_R&D_by_Lab411\Microchip\ZigBeeStack\zAPS.c
                 __pa_169   0x00978e    program     static C:\Users\TienDat\Desktop\ActorHome\PIC18_Zigbee_v2\PIC18_Zigbee_R&D_by_Lab411\Microchip\ZigBeeStack\zAPS.c
                 __pa_170   0x009798    program     static C:\Users\TienDat\Desktop\ActorHome\PIC18_Zigbee_v2\PIC18_Zigbee_R&D_by_Lab411\Microchip\ZigBeeStack\zAPS.c
                 __pa_171   0x00979e    program     static C:\Users\TienDat\Desktop\ActorHome\PIC18_Zigbee_v2\PIC18_Zigbee_R&D_by_Lab411\Microchip\ZigBeeStack\zAPS.c
                 __pa_172   0x0097aa    program     static C:\Users\TienDat\Desktop\ActorHome\PIC18_Zigbee_v2\PIC18_Zigbee_R&D_by_Lab411\Microchip\ZigBeeStack\zAPS.c
                 __pa_173   0x0097b4    program     static C:\Users\TienDat\Desktop\ActorHome\PIC18_Zigbee_v2\PIC18_Zigbee_R&D_by_Lab411\Microchip\ZigBeeStack\zAPS.c
                 __pa_174   0x0097be    program     static C:\Users\TienDat\Desktop\ActorHome\PIC18_Zigbee_v2\PIC18_Zigbee_R&D_by_Lab411\Microchip\ZigBeeStack\zAPS.c
                 __pa_175   0x0097c8    program     static C:\Users\TienDat\Desktop\ActorHome\PIC18_Zigbee_v2\PIC18_Zigbee_R&D_by_Lab411\Microchip\ZigBeeStack\zAPS.c
                 __pa_176   0x0097d4    program     static C:\Users\TienDat\Desktop\ActorHome\PIC18_Zigbee_v2\PIC18_Zigbee_R&D_by_Lab411\Microchip\ZigBeeStack\zAPS.c
                 __pa_177   0x0097dc    program     static C:\Users\TienDat\Desktop\ActorHome\PIC18_Zigbee_v2\PIC18_Zigbee_R&D_by_Lab411\Microchip\ZigBeeStack\zAPS.c
                 __pa_178   0x0097e4    program     static C:\Users\TienDat\Desktop\ActorHome\PIC18_Zigbee_v2\PIC18_Zigbee_R&D_by_Lab411\Microchip\ZigBeeStack\zAPS.c
                 __pa_179   0x0097ea    program     static C:\Users\TienDat\Desktop\ActorHome\PIC18_Zigbee_v2\PIC18_Zigbee_R&D_by_Lab411\Microchip\ZigBeeStack\zAPS.c
                 __pa_180   0x0097f0    program     static C:\Users\TienDat\Desktop\ActorHome\PIC18_Zigbee_v2\PIC18_Zigbee_R&D_by_Lab411\Microchip\ZigBeeStack\zAPS.c
                 __pa_181   0x0097f6    program     static C:\Users\TienDat\Desktop\ActorHome\PIC18_Zigbee_v2\PIC18_Zigbee_R&D_by_Lab411\Microchip\ZigBeeStack\zAPS.c
                 __pa_182   0x0097fe    program     static C:\Users\TienDat\Desktop\ActorHome\PIC18_Zigbee_v2\PIC18_Zigbee_R&D_by_Lab411\Microchip\ZigBeeStack\zAPS.c
                 __pa_183   0x009810    program     static C:\Users\TienDat\Desktop\ActorHome\PIC18_Zigbee_v2\PIC18_Zigbee_R&D_by_Lab411\Microchip\ZigBeeStack\zAPS.c
                 __pa_184   0x00981c    program     static C:\Users\TienDat\Desktop\ActorHome\PIC18_Zigbee_v2\PIC18_Zigbee_R&D_by_Lab411\Microchip\ZigBeeStack\zAPS.c
                 __pa_185   0x009824    program     static C:\Users\TienDat\Desktop\ActorHome\PIC18_Zigbee_v2\PIC18_Zigbee_R&D_by_Lab411\Microchip\ZigBeeStack\zAPS.c
                 __pa_186   0x00982a    program     static C:\Users\TienDat\Desktop\ActorHome\PIC18_Zigbee_v2\PIC18_Zigbee_R&D_by_Lab411\Microchip\ZigBeeStack\zAPS.c
                 __pa_187   0x009832    program     static C:\Users\TienDat\Desktop\ActorHome\PIC18_Zigbee_v2\PIC18_Zigbee_R&D_by_Lab411\Microchip\ZigBeeStack\zAPS.c
                 __pa_188   0x009840    program     static C:\Users\TienDat\Desktop\ActorHome\PIC18_Zigbee_v2\PIC18_Zigbee_R&D_by_Lab411\Microchip\ZigBeeStack\zAPS.c
                 __pa_189   0x00984a    program     static C:\Users\TienDat\Desktop\ActorHome\PIC18_Zigbee_v2\PIC18_Zigbee_R&D_by_Lab411\Microchip\ZigBeeStack\zAPS.c
                 __pa_190   0x009854    program     static C:\Users\TienDat\Desktop\ActorHome\PIC18_Zigbee_v2\PIC18_Zigbee_R&D_by_Lab411\Microchip\ZigBeeStack\zAPS.c
    MACHasBackgroundTasks   0x00985e    program     extern C:\Users\TienDat\Desktop\ActorHome\PIC18_Zigbee_v2\PIC18_Zigbee_R&D_by_Lab411\Microchip\ZigBeeStack\zMAC_MRF24J40.c
                   MACGet   0x00986a    program     extern C:\Users\TienDat\Desktop\ActorHome\PIC18_Zigbee_v2\PIC18_Zigbee_R&D_by_Lab411\Microchip\ZigBeeStack\zMAC_MRF24J40.c
             MACDiscardRx   0x009880    program     extern C:\Users\TienDat\Desktop\ActorHome\PIC18_Zigbee_v2\PIC18_Zigbee_R&D_by_Lab411\Microchip\ZigBeeStack\zMAC_MRF24J40.c
               MACDisable   0x009898    program     extern C:\Users\TienDat\Desktop\ActorHome\PIC18_Zigbee_v2\PIC18_Zigbee_R&D_by_Lab411\Microchip\ZigBeeStack\zMAC_MRF24J40.c
                MACEnable   0x0098a4    program     extern C:\Users\TienDat\Desktop\ActorHome\PIC18_Zigbee_v2\PIC18_Zigbee_R&D_by_Lab411\Microchip\ZigBeeStack\zMAC_MRF24J40.c
                  MACInit   0x009924    program     extern C:\Users\TienDat\Desktop\ActorHome\PIC18_Zigbee_v2\PIC18_Zigbee_R&D_by_Lab411\Microchip\ZigBeeStack\zMAC_MRF24J40.c
                 MACTasks   0x009964    program     extern C:\Users\TienDat\Desktop\ActorHome\PIC18_Zigbee_v2\PIC18_Zigbee_R&D_by_Lab411\Microchip\ZigBeeStack\zMAC_MRF24J40.c
              __tmplbl_34   0x00a1d2    program     static                          
              __tmplbl_47   0x00a232    program     static                          
              __tmplbl_40   0x00a672    program     static                          
              __tmplbl_58   0x00a672    program     static                          
             __tmplbl_132   0x00a684    program     static                          
              __tmplbl_51   0x00a92a    program     static                          
              __tmplbl_66   0x00a92a    program     static                          
              __tmplbl_50   0x00a92a    program     static                          
              __tmplbl_52   0x00a944    program     static                          
              __tmplbl_38   0x00a944    program     static                          
             __tmplbl_100   0x00aba2    program     static                          
              __tmplbl_48   0x00aba6    program     static                          
              __tmplbl_80   0x00abae    program     static                          
              __tmplbl_79   0x00ac1a    program     static                          
              __tmplbl_78   0x00ac7e    program     static                          
              __tmplbl_77   0x00acda    program     static                          
              __tmplbl_44   0x00ad60    program     static                          
              __tmplbl_99   0x00ad62    program     static                          
              __tmplbl_76   0x00ad66    program     static                          
              __tmplbl_75   0x00ae02    program     static                          
              __tmplbl_74   0x00ae56    program     static                          
              __tmplbl_61   0x00aee6    program     static                          
             __tmplbl_109   0x00aee6    program     static                          
              __tmplbl_73   0x00af12    program     static                          
              __tmplbl_72   0x00af46    program     static                          
              __tmplbl_97   0x00af50    program     static                          
              __tmplbl_42   0x00af50    program     static                          
              __tmplbl_67   0x00afa8    program     static                          
              __tmplbl_68   0x00afa8    program     static                          
              __tmplbl_69   0x00afa8    program     static                          
              __tmplbl_82   0x00afa8    program     static                          
             __tmplbl_119   0x00afa8    program     static                          
              __tmplbl_70   0x00afa8    program     static                          
              __tmplbl_93   0x00afa8    program     static                          
              __tmplbl_94   0x00afa8    program     static                          
              __tmplbl_57   0x00afaa    program     static                          
             __tmplbl_117   0x00afaa    program     static                          
              __tmplbl_71   0x00afaa    program     static                          
              __tmplbl_92   0x00afaa    program     static                          
             __tmplbl_110   0x00afaa    program     static                          
              __tmplbl_87   0x00afaa    program     static                          
             __tmplbl_106   0x00afaa    program     static                          
             __tmplbl_104   0x00afaa    program     static                          
             __tmplbl_105   0x00afaa    program     static                          
     MLME_SET_macPANId_hw   0x00afbc    program     extern C:\Users\TienDat\Desktop\ActorHome\PIC18_Zigbee_v2\PIC18_Zigbee_R&D_by_Lab411\Microchip\ZigBeeStack\zMAC_MRF24J40.c
MLME_SET_macShortAddress_hw   0x00afcc    program     extern C:\Users\TienDat\Desktop\ActorHome\PIC18_Zigbee_v2\PIC18_Zigbee_R&D_by_Lab411\Microchip\ZigBeeStack\zMAC_MRF24J40.c
                   __pa_0   0x00afdc    program     static C:\Users\TienDat\Desktop\ActorHome\PIC18_Zigbee_v2\PIC18_Zigbee_R&D_by_Lab411\Microchip\ZigBeeStack\zMAC_MRF24J40.c
                   __pa_1   0x00afe8    program     static C:\Users\TienDat\Desktop\ActorHome\PIC18_Zigbee_v2\PIC18_Zigbee_R&D_by_Lab411\Microchip\ZigBeeStack\zMAC_MRF24J40.c
                   __pa_2   0x00aff0    program     static C:\Users\TienDat\Desktop\ActorHome\PIC18_Zigbee_v2\PIC18_Zigbee_R&D_by_Lab411\Microchip\ZigBeeStack\zMAC_MRF24J40.c
                   __pa_3   0x00b000    program     static C:\Users\TienDat\Desktop\ActorHome\PIC18_Zigbee_v2\PIC18_Zigbee_R&D_by_Lab411\Microchip\ZigBeeStack\zMAC_MRF24J40.c
                   __pa_4   0x00b026    program     static C:\Users\TienDat\Desktop\ActorHome\PIC18_Zigbee_v2\PIC18_Zigbee_R&D_by_Lab411\Microchip\ZigBeeStack\zMAC_MRF24J40.c
                   __pa_5   0x00b034    program     static C:\Users\TienDat\Desktop\ActorHome\PIC18_Zigbee_v2\PIC18_Zigbee_R&D_by_Lab411\Microchip\ZigBeeStack\zMAC_MRF24J40.c
                   __pa_6   0x00b03c    program     static C:\Users\TienDat\Desktop\ActorHome\PIC18_Zigbee_v2\PIC18_Zigbee_R&D_by_Lab411\Microchip\ZigBeeStack\zMAC_MRF24J40.c
                   __pa_7   0x00b04e    program     static C:\Users\TienDat\Desktop\ActorHome\PIC18_Zigbee_v2\PIC18_Zigbee_R&D_by_Lab411\Microchip\ZigBeeStack\zMAC_MRF24J40.c
                   __pa_8   0x00b054    program     static C:\Users\TienDat\Desktop\ActorHome\PIC18_Zigbee_v2\PIC18_Zigbee_R&D_by_Lab411\Microchip\ZigBeeStack\zMAC_MRF24J40.c
                   __pa_9   0x00b05c    program     static C:\Users\TienDat\Desktop\ActorHome\PIC18_Zigbee_v2\PIC18_Zigbee_R&D_by_Lab411\Microchip\ZigBeeStack\zMAC_MRF24J40.c
                  __pa_10   0x00b064    program     static C:\Users\TienDat\Desktop\ActorHome\PIC18_Zigbee_v2\PIC18_Zigbee_R&D_by_Lab411\Microchip\ZigBeeStack\zMAC_MRF24J40.c
                  __pa_11   0x00b08c    program     static C:\Users\TienDat\Desktop\ActorHome\PIC18_Zigbee_v2\PIC18_Zigbee_R&D_by_Lab411\Microchip\ZigBeeStack\zMAC_MRF24J40.c
                  __pa_12   0x00b096    program     static C:\Users\TienDat\Desktop\ActorHome\PIC18_Zigbee_v2\PIC18_Zigbee_R&D_by_Lab411\Microchip\ZigBeeStack\zMAC_MRF24J40.c
                  __pa_13   0x00b0b4    program     static C:\Users\TienDat\Desktop\ActorHome\PIC18_Zigbee_v2\PIC18_Zigbee_R&D_by_Lab411\Microchip\ZigBeeStack\zMAC_MRF24J40.c
                  __pa_14   0x00b0ca    program     static C:\Users\TienDat\Desktop\ActorHome\PIC18_Zigbee_v2\PIC18_Zigbee_R&D_by_Lab411\Microchip\ZigBeeStack\zMAC_MRF24J40.c
                  __pa_15   0x00b0d4    program     static C:\Users\TienDat\Desktop\ActorHome\PIC18_Zigbee_v2\PIC18_Zigbee_R&D_by_Lab411\Microchip\ZigBeeStack\zMAC_MRF24J40.c
                  __pa_16   0x00b104    program     static C:\Users\TienDat\Desktop\ActorHome\PIC18_Zigbee_v2\PIC18_Zigbee_R&D_by_Lab411\Microchip\ZigBeeStack\zMAC_MRF24J40.c
                  __pa_17   0x00b10c    program     static C:\Users\TienDat\Desktop\ActorHome\PIC18_Zigbee_v2\PIC18_Zigbee_R&D_by_Lab411\Microchip\ZigBeeStack\zMAC_MRF24J40.c
                  __pa_18   0x00b112    program     static C:\Users\TienDat\Desktop\ActorHome\PIC18_Zigbee_v2\PIC18_Zigbee_R&D_by_Lab411\Microchip\ZigBeeStack\zMAC_MRF24J40.c
                  __pa_19   0x00b11a    program     static C:\Users\TienDat\Desktop\ActorHome\PIC18_Zigbee_v2\PIC18_Zigbee_R&D_by_Lab411\Microchip\ZigBeeStack\zMAC_MRF24J40.c
                  __pa_20   0x00b124    program     static C:\Users\TienDat\Desktop\ActorHome\PIC18_Zigbee_v2\PIC18_Zigbee_R&D_by_Lab411\Microchip\ZigBeeStack\zMAC_MRF24J40.c
                  __pa_21   0x00b132    program     static C:\Users\TienDat\Desktop\ActorHome\PIC18_Zigbee_v2\PIC18_Zigbee_R&D_by_Lab411\Microchip\ZigBeeStack\zMAC_MRF24J40.c
                  __pa_22   0x00b154    program     static C:\Users\TienDat\Desktop\ActorHome\PIC18_Zigbee_v2\PIC18_Zigbee_R&D_by_Lab411\Microchip\ZigBeeStack\zMAC_MRF24J40.c
                  __pa_23   0x00b168    program     static C:\Users\TienDat\Desktop\ActorHome\PIC18_Zigbee_v2\PIC18_Zigbee_R&D_by_Lab411\Microchip\ZigBeeStack\zMAC_MRF24J40.c
                  __pa_24   0x00b186    program     static C:\Users\TienDat\Desktop\ActorHome\PIC18_Zigbee_v2\PIC18_Zigbee_R&D_by_Lab411\Microchip\ZigBeeStack\zMAC_MRF24J40.c
                  __pa_25   0x00b198    program     static C:\Users\TienDat\Desktop\ActorHome\PIC18_Zigbee_v2\PIC18_Zigbee_R&D_by_Lab411\Microchip\ZigBeeStack\zMAC_MRF24J40.c
                  __pa_26   0x00b1aa    program     static C:\Users\TienDat\Desktop\ActorHome\PIC18_Zigbee_v2\PIC18_Zigbee_R&D_by_Lab411\Microchip\ZigBeeStack\zMAC_MRF24J40.c
                  __pa_27   0x00b1bc    program     static C:\Users\TienDat\Desktop\ActorHome\PIC18_Zigbee_v2\PIC18_Zigbee_R&D_by_Lab411\Microchip\ZigBeeStack\zMAC_MRF24J40.c
                  __pa_28   0x00b1c4    program     static C:\Users\TienDat\Desktop\ActorHome\PIC18_Zigbee_v2\PIC18_Zigbee_R&D_by_Lab411\Microchip\ZigBeeStack\zMAC_MRF24J40.c
                  __pa_29   0x00b1d2    program     static C:\Users\TienDat\Desktop\ActorHome\PIC18_Zigbee_v2\PIC18_Zigbee_R&D_by_Lab411\Microchip\ZigBeeStack\zMAC_MRF24J40.c
                  __pa_30   0x00b1da    program     static C:\Users\TienDat\Desktop\ActorHome\PIC18_Zigbee_v2\PIC18_Zigbee_R&D_by_Lab411\Microchip\ZigBeeStack\zMAC_MRF24J40.c
                  __pa_31   0x00b1e6    program     static C:\Users\TienDat\Desktop\ActorHome\PIC18_Zigbee_v2\PIC18_Zigbee_R&D_by_Lab411\Microchip\ZigBeeStack\zMAC_MRF24J40.c
                  __pa_32   0x00b200    program     static C:\Users\TienDat\Desktop\ActorHome\PIC18_Zigbee_v2\PIC18_Zigbee_R&D_by_Lab411\Microchip\ZigBeeStack\zMAC_MRF24J40.c
                  __pa_33   0x00b21a    program     static C:\Users\TienDat\Desktop\ActorHome\PIC18_Zigbee_v2\PIC18_Zigbee_R&D_by_Lab411\Microchip\ZigBeeStack\zMAC_MRF24J40.c
                  __pa_34   0x00b22a    program     static C:\Users\TienDat\Desktop\ActorHome\PIC18_Zigbee_v2\PIC18_Zigbee_R&D_by_Lab411\Microchip\ZigBeeStack\zMAC_MRF24J40.c
                  __pa_35   0x00b230    program     static C:\Users\TienDat\Desktop\ActorHome\PIC18_Zigbee_v2\PIC18_Zigbee_R&D_by_Lab411\Microchip\ZigBeeStack\zMAC_MRF24J40.c
                  __pa_36   0x00b23c    program     static C:\Users\TienDat\Desktop\ActorHome\PIC18_Zigbee_v2\PIC18_Zigbee_R&D_by_Lab411\Microchip\ZigBeeStack\zMAC_MRF24J40.c
                  __pa_37   0x00b252    program     static C:\Users\TienDat\Desktop\ActorHome\PIC18_Zigbee_v2\PIC18_Zigbee_R&D_by_Lab411\Microchip\ZigBeeStack\zMAC_MRF24J40.c
              __tmplbl_31   0x00b264    program     static                          
              __tmplbl_30   0x00b264    program     static                          
                  __pa_38   0x00b264    program     static C:\Users\TienDat\Desktop\ActorHome\PIC18_Zigbee_v2\PIC18_Zigbee_R&D_by_Lab411\Microchip\ZigBeeStack\zMAC_MRF24J40.c
                  __pa_39   0x00b270    program     static C:\Users\TienDat\Desktop\ActorHome\PIC18_Zigbee_v2\PIC18_Zigbee_R&D_by_Lab411\Microchip\ZigBeeStack\zMAC_MRF24J40.c
                  __pa_40   0x00b27e    program     static C:\Users\TienDat\Desktop\ActorHome\PIC18_Zigbee_v2\PIC18_Zigbee_R&D_by_Lab411\Microchip\ZigBeeStack\zMAC_MRF24J40.c
                  __pa_41   0x00b28e    program     static C:\Users\TienDat\Desktop\ActorHome\PIC18_Zigbee_v2\PIC18_Zigbee_R&D_by_Lab411\Microchip\ZigBeeStack\zMAC_MRF24J40.c
                  __pa_42   0x00b2a2    program     static C:\Users\TienDat\Desktop\ActorHome\PIC18_Zigbee_v2\PIC18_Zigbee_R&D_by_Lab411\Microchip\ZigBeeStack\zMAC_MRF24J40.c
                  __pa_43   0x00b2ae    program     static C:\Users\TienDat\Desktop\ActorHome\PIC18_Zigbee_v2\PIC18_Zigbee_R&D_by_Lab411\Microchip\ZigBeeStack\zMAC_MRF24J40.c
                  __pa_44   0x00b2c0    program     static C:\Users\TienDat\Desktop\ActorHome\PIC18_Zigbee_v2\PIC18_Zigbee_R&D_by_Lab411\Microchip\ZigBeeStack\zMAC_MRF24J40.c
                  __pa_45   0x00b2d2    program     static C:\Users\TienDat\Desktop\ActorHome\PIC18_Zigbee_v2\PIC18_Zigbee_R&D_by_Lab411\Microchip\ZigBeeStack\zMAC_MRF24J40.c
                  __pa_46   0x00b2e4    program     static C:\Users\TienDat\Desktop\ActorHome\PIC18_Zigbee_v2\PIC18_Zigbee_R&D_by_Lab411\Microchip\ZigBeeStack\zMAC_MRF24J40.c
                  __pa_47   0x00b2f0    program     static C:\Users\TienDat\Desktop\ActorHome\PIC18_Zigbee_v2\PIC18_Zigbee_R&D_by_Lab411\Microchip\ZigBeeStack\zMAC_MRF24J40.c
                  __pa_48   0x00b2fc    program     static C:\Users\TienDat\Desktop\ActorHome\PIC18_Zigbee_v2\PIC18_Zigbee_R&D_by_Lab411\Microchip\ZigBeeStack\zMAC_MRF24J40.c
                  __pa_49   0x00b306    program     static C:\Users\TienDat\Desktop\ActorHome\PIC18_Zigbee_v2\PIC18_Zigbee_R&D_by_Lab411\Microchip\ZigBeeStack\zMAC_MRF24J40.c
                  __pa_50   0x00b30e    program     static C:\Users\TienDat\Desktop\ActorHome\PIC18_Zigbee_v2\PIC18_Zigbee_R&D_by_Lab411\Microchip\ZigBeeStack\zMAC_MRF24J40.c
                  __pa_51   0x00b31a    program     static C:\Users\TienDat\Desktop\ActorHome\PIC18_Zigbee_v2\PIC18_Zigbee_R&D_by_Lab411\Microchip\ZigBeeStack\zMAC_MRF24J40.c
                  __pa_52   0x00b326    program     static C:\Users\TienDat\Desktop\ActorHome\PIC18_Zigbee_v2\PIC18_Zigbee_R&D_by_Lab411\Microchip\ZigBeeStack\zMAC_MRF24J40.c
                  __pa_53   0x00b32e    program     static C:\Users\TienDat\Desktop\ActorHome\PIC18_Zigbee_v2\PIC18_Zigbee_R&D_by_Lab411\Microchip\ZigBeeStack\zMAC_MRF24J40.c
                  __pa_54   0x00b33c    program     static C:\Users\TienDat\Desktop\ActorHome\PIC18_Zigbee_v2\PIC18_Zigbee_R&D_by_Lab411\Microchip\ZigBeeStack\zMAC_MRF24J40.c
                  __pa_55   0x00b34a    program     static C:\Users\TienDat\Desktop\ActorHome\PIC18_Zigbee_v2\PIC18_Zigbee_R&D_by_Lab411\Microchip\ZigBeeStack\zMAC_MRF24J40.c
                  __pa_56   0x00b354    program     static C:\Users\TienDat\Desktop\ActorHome\PIC18_Zigbee_v2\PIC18_Zigbee_R&D_by_Lab411\Microchip\ZigBeeStack\zMAC_MRF24J40.c
                  __pa_57   0x00b362    program     static C:\Users\TienDat\Desktop\ActorHome\PIC18_Zigbee_v2\PIC18_Zigbee_R&D_by_Lab411\Microchip\ZigBeeStack\zMAC_MRF24J40.c
                  __pa_58   0x00b370    program     static C:\Users\TienDat\Desktop\ActorHome\PIC18_Zigbee_v2\PIC18_Zigbee_R&D_by_Lab411\Microchip\ZigBeeStack\zMAC_MRF24J40.c
                  __pa_59   0x00b37e    program     static C:\Users\TienDat\Desktop\ActorHome\PIC18_Zigbee_v2\PIC18_Zigbee_R&D_by_Lab411\Microchip\ZigBeeStack\zMAC_MRF24J40.c
                  __pa_60   0x00b38c    program     static C:\Users\TienDat\Desktop\ActorHome\PIC18_Zigbee_v2\PIC18_Zigbee_R&D_by_Lab411\Microchip\ZigBeeStack\zMAC_MRF24J40.c
                  __pa_61   0x00b390    program     static C:\Users\TienDat\Desktop\ActorHome\PIC18_Zigbee_v2\PIC18_Zigbee_R&D_by_Lab411\Microchip\ZigBeeStack\zMAC_MRF24J40.c
                  __pa_62   0x00b39a    program     static C:\Users\TienDat\Desktop\ActorHome\PIC18_Zigbee_v2\PIC18_Zigbee_R&D_by_Lab411\Microchip\ZigBeeStack\zMAC_MRF24J40.c
                  __pa_63   0x00b3a4    program     static C:\Users\TienDat\Desktop\ActorHome\PIC18_Zigbee_v2\PIC18_Zigbee_R&D_by_Lab411\Microchip\ZigBeeStack\zMAC_MRF24J40.c
                  __pa_64   0x00b3ac    program     static C:\Users\TienDat\Desktop\ActorHome\PIC18_Zigbee_v2\PIC18_Zigbee_R&D_by_Lab411\Microchip\ZigBeeStack\zMAC_MRF24J40.c
                  __pa_65   0x00b3b4    program     static C:\Users\TienDat\Desktop\ActorHome\PIC18_Zigbee_v2\PIC18_Zigbee_R&D_by_Lab411\Microchip\ZigBeeStack\zMAC_MRF24J40.c
                  __pa_66   0x00b3bc    program     static C:\Users\TienDat\Desktop\ActorHome\PIC18_Zigbee_v2\PIC18_Zigbee_R&D_by_Lab411\Microchip\ZigBeeStack\zMAC_MRF24J40.c
                  __pa_67   0x00b3d8    program     static C:\Users\TienDat\Desktop\ActorHome\PIC18_Zigbee_v2\PIC18_Zigbee_R&D_by_Lab411\Microchip\ZigBeeStack\zMAC_MRF24J40.c
                  __pa_68   0x00b3e4    program     static C:\Users\TienDat\Desktop\ActorHome\PIC18_Zigbee_v2\PIC18_Zigbee_R&D_by_Lab411\Microchip\ZigBeeStack\zMAC_MRF24J40.c
                  __pa_69   0x00b40c    program     static C:\Users\TienDat\Desktop\ActorHome\PIC18_Zigbee_v2\PIC18_Zigbee_R&D_by_Lab411\Microchip\ZigBeeStack\zMAC_MRF24J40.c
                  __pa_70   0x00b422    program     static C:\Users\TienDat\Desktop\ActorHome\PIC18_Zigbee_v2\PIC18_Zigbee_R&D_by_Lab411\Microchip\ZigBeeStack\zMAC_MRF24J40.c
                  __pa_71   0x00b42c    program     static C:\Users\TienDat\Desktop\ActorHome\PIC18_Zigbee_v2\PIC18_Zigbee_R&D_by_Lab411\Microchip\ZigBeeStack\zMAC_MRF24J40.c
                  __pa_72   0x00b434    program     static C:\Users\TienDat\Desktop\ActorHome\PIC18_Zigbee_v2\PIC18_Zigbee_R&D_by_Lab411\Microchip\ZigBeeStack\zMAC_MRF24J40.c
                  __pa_73   0x00b450    program     static C:\Users\TienDat\Desktop\ActorHome\PIC18_Zigbee_v2\PIC18_Zigbee_R&D_by_Lab411\Microchip\ZigBeeStack\zMAC_MRF24J40.c
                  __pa_74   0x00b456    program     static C:\Users\TienDat\Desktop\ActorHome\PIC18_Zigbee_v2\PIC18_Zigbee_R&D_by_Lab411\Microchip\ZigBeeStack\zMAC_MRF24J40.c
                  __pa_75   0x00b462    program     static C:\Users\TienDat\Desktop\ActorHome\PIC18_Zigbee_v2\PIC18_Zigbee_R&D_by_Lab411\Microchip\ZigBeeStack\zMAC_MRF24J40.c
                  __pa_76   0x00b472    program     static C:\Users\TienDat\Desktop\ActorHome\PIC18_Zigbee_v2\PIC18_Zigbee_R&D_by_Lab411\Microchip\ZigBeeStack\zMAC_MRF24J40.c
                  __pa_77   0x00b47e    program     static C:\Users\TienDat\Desktop\ActorHome\PIC18_Zigbee_v2\PIC18_Zigbee_R&D_by_Lab411\Microchip\ZigBeeStack\zMAC_MRF24J40.c
                  __pa_78   0x00b48a    program     static C:\Users\TienDat\Desktop\ActorHome\PIC18_Zigbee_v2\PIC18_Zigbee_R&D_by_Lab411\Microchip\ZigBeeStack\zMAC_MRF24J40.c
                  __pa_79   0x00b496    program     static C:\Users\TienDat\Desktop\ActorHome\PIC18_Zigbee_v2\PIC18_Zigbee_R&D_by_Lab411\Microchip\ZigBeeStack\zMAC_MRF24J40.c
                  __pa_80   0x00b49e    program     static C:\Users\TienDat\Desktop\ActorHome\PIC18_Zigbee_v2\PIC18_Zigbee_R&D_by_Lab411\Microchip\ZigBeeStack\zMAC_MRF24J40.c
                  __pa_81   0x00b4aa    program     static C:\Users\TienDat\Desktop\ActorHome\PIC18_Zigbee_v2\PIC18_Zigbee_R&D_by_Lab411\Microchip\ZigBeeStack\zMAC_MRF24J40.c
                  __pa_82   0x00b4b4    program     static C:\Users\TienDat\Desktop\ActorHome\PIC18_Zigbee_v2\PIC18_Zigbee_R&D_by_Lab411\Microchip\ZigBeeStack\zMAC_MRF24J40.c
                  __pa_83   0x00b4ba    program     static C:\Users\TienDat\Desktop\ActorHome\PIC18_Zigbee_v2\PIC18_Zigbee_R&D_by_Lab411\Microchip\ZigBeeStack\zMAC_MRF24J40.c
                  __pa_84   0x00b4c2    program     static C:\Users\TienDat\Desktop\ActorHome\PIC18_Zigbee_v2\PIC18_Zigbee_R&D_by_Lab411\Microchip\ZigBeeStack\zMAC_MRF24J40.c
                  __pa_85   0x00b4ca    program     static C:\Users\TienDat\Desktop\ActorHome\PIC18_Zigbee_v2\PIC18_Zigbee_R&D_by_Lab411\Microchip\ZigBeeStack\zMAC_MRF24J40.c
                  __pa_86   0x00b4d2    program     static C:\Users\TienDat\Desktop\ActorHome\PIC18_Zigbee_v2\PIC18_Zigbee_R&D_by_Lab411\Microchip\ZigBeeStack\zMAC_MRF24J40.c
                  __pa_87   0x00b4e2    program     static C:\Users\TienDat\Desktop\ActorHome\PIC18_Zigbee_v2\PIC18_Zigbee_R&D_by_Lab411\Microchip\ZigBeeStack\zMAC_MRF24J40.c
                  __pa_88   0x00b4ee    program     static C:\Users\TienDat\Desktop\ActorHome\PIC18_Zigbee_v2\PIC18_Zigbee_R&D_by_Lab411\Microchip\ZigBeeStack\zMAC_MRF24J40.c
                  __pa_89   0x00b4fc    program     static C:\Users\TienDat\Desktop\ActorHome\PIC18_Zigbee_v2\PIC18_Zigbee_R&D_by_Lab411\Microchip\ZigBeeStack\zMAC_MRF24J40.c
                  __pa_90   0x00b50a    program     static C:\Users\TienDat\Desktop\ActorHome\PIC18_Zigbee_v2\PIC18_Zigbee_R&D_by_Lab411\Microchip\ZigBeeStack\zMAC_MRF24J40.c
                  __pa_91   0x00b51a    program     static C:\Users\TienDat\Desktop\ActorHome\PIC18_Zigbee_v2\PIC18_Zigbee_R&D_by_Lab411\Microchip\ZigBeeStack\zMAC_MRF24J40.c
                  __pa_92   0x00b528    program     static C:\Users\TienDat\Desktop\ActorHome\PIC18_Zigbee_v2\PIC18_Zigbee_R&D_by_Lab411\Microchip\ZigBeeStack\zMAC_MRF24J40.c
                  __pa_93   0x00b534    program     static C:\Users\TienDat\Desktop\ActorHome\PIC18_Zigbee_v2\PIC18_Zigbee_R&D_by_Lab411\Microchip\ZigBeeStack\zMAC_MRF24J40.c
                  __pa_94   0x00b53c    program     static C:\Users\TienDat\Desktop\ActorHome\PIC18_Zigbee_v2\PIC18_Zigbee_R&D_by_Lab411\Microchip\ZigBeeStack\zMAC_MRF24J40.c
                  __pa_95   0x00b542    program     static C:\Users\TienDat\Desktop\ActorHome\PIC18_Zigbee_v2\PIC18_Zigbee_R&D_by_Lab411\Microchip\ZigBeeStack\zMAC_MRF24J40.c
                  __pa_96   0x00b548    program     static C:\Users\TienDat\Desktop\ActorHome\PIC18_Zigbee_v2\PIC18_Zigbee_R&D_by_Lab411\Microchip\ZigBeeStack\zMAC_MRF24J40.c
                  __pa_97   0x00b552    program     static C:\Users\TienDat\Desktop\ActorHome\PIC18_Zigbee_v2\PIC18_Zigbee_R&D_by_Lab411\Microchip\ZigBeeStack\zMAC_MRF24J40.c
                  __pa_98   0x00b55a    program     static C:\Users\TienDat\Desktop\ActorHome\PIC18_Zigbee_v2\PIC18_Zigbee_R&D_by_Lab411\Microchip\ZigBeeStack\zMAC_MRF24J40.c
                  __pa_99   0x00b56e    program     static C:\Users\TienDat\Desktop\ActorHome\PIC18_Zigbee_v2\PIC18_Zigbee_R&D_by_Lab411\Microchip\ZigBeeStack\zMAC_MRF24J40.c
                 __pa_100   0x00b57e    program     static C:\Users\TienDat\Desktop\ActorHome\PIC18_Zigbee_v2\PIC18_Zigbee_R&D_by_Lab411\Microchip\ZigBeeStack\zMAC_MRF24J40.c
                 __pa_101   0x00b592    program     static C:\Users\TienDat\Desktop\ActorHome\PIC18_Zigbee_v2\PIC18_Zigbee_R&D_by_Lab411\Microchip\ZigBeeStack\zMAC_MRF24J40.c
                 __pa_102   0x00b598    program     static C:\Users\TienDat\Desktop\ActorHome\PIC18_Zigbee_v2\PIC18_Zigbee_R&D_by_Lab411\Microchip\ZigBeeStack\zMAC_MRF24J40.c
                 __pa_103   0x00b5a8    program     static C:\Users\TienDat\Desktop\ActorHome\PIC18_Zigbee_v2\PIC18_Zigbee_R&D_by_Lab411\Microchip\ZigBeeStack\zMAC_MRF24J40.c
                 __pa_104   0x00b5b0    program     static C:\Users\TienDat\Desktop\ActorHome\PIC18_Zigbee_v2\PIC18_Zigbee_R&D_by_Lab411\Microchip\ZigBeeStack\zMAC_MRF24J40.c
                 __pa_105   0x00b5b6    program     static C:\Users\TienDat\Desktop\ActorHome\PIC18_Zigbee_v2\PIC18_Zigbee_R&D_by_Lab411\Microchip\ZigBeeStack\zMAC_MRF24J40.c
                 __pa_106   0x00b5be    program     static C:\Users\TienDat\Desktop\ActorHome\PIC18_Zigbee_v2\PIC18_Zigbee_R&D_by_Lab411\Microchip\ZigBeeStack\zMAC_MRF24J40.c
                 __pa_107   0x00b5d0    program     static C:\Users\TienDat\Desktop\ActorHome\PIC18_Zigbee_v2\PIC18_Zigbee_R&D_by_Lab411\Microchip\ZigBeeStack\zMAC_MRF24J40.c
                 __pa_108   0x00b5e2    program     static C:\Users\TienDat\Desktop\ActorHome\PIC18_Zigbee_v2\PIC18_Zigbee_R&D_by_Lab411\Microchip\ZigBeeStack\zMAC_MRF24J40.c
                   PHYGet   0x00b5f0    program     extern C:\Users\TienDat\Desktop\ActorHome\PIC18_Zigbee_v2\PIC18_Zigbee_R&D_by_Lab411\Microchip\ZigBeeStack\zPHY_MRF24J40.c
    PHYHasBackgroundTasks   0x00b60e    program     extern C:\Users\TienDat\Desktop\ActorHome\PIC18_Zigbee_v2\PIC18_Zigbee_R&D_by_Lab411\Microchip\ZigBeeStack\zPHY_MRF24J40.c
                  PHYInit   0x00b614    program     extern C:\Users\TienDat\Desktop\ActorHome\PIC18_Zigbee_v2\PIC18_Zigbee_R&D_by_Lab411\Microchip\ZigBeeStack\zPHY_MRF24J40.c
          ___for_lbl00006   0x00b640    program     static                          
          ___for_lbl00004   0x00b656    program     static                          
          ___for_lbl00005   0x00b662    program     static                          
          ___for_lbl00009   0x00b66c    program     static                          
          ___for_lbl00007   0x00b682    program     static                          
          ___for_lbl00008   0x00b68e    program     static                          
           ___do_lbl00012   0x00b69c    program     static                          
           ___do_lbl00010   0x00b6a6    program     static                          
           ___do_lbl00011   0x00b6ac    program     static                          
          ___for_lbl00015   0x00b6b4    program     static                          
          ___for_lbl00013   0x00b6ca    program     static                          
          ___for_lbl00014   0x00b6d6    program     static                          
           ___do_lbl00018   0x00b6e4    program     static                          
           ___do_lbl00016   0x00b6ee    program     static                          
           ___do_lbl00017   0x00b6f4    program     static                          
          ___for_lbl00021   0x00b6fc    program     static                          
          ___for_lbl00019   0x00b712    program     static                          
          ___for_lbl00020   0x00b71e    program     static                          
           ___do_lbl00024   0x00b8fa    program     static                          
           ___do_lbl00022   0x00b90a    program     static                          
       ___return_lbl00003   0x00b912    program     static                          
           ___do_lbl00023   0x00b912    program     static                          
            MRF24J40Sleep   0x00b924    program     extern C:\Users\TienDat\Desktop\ActorHome\PIC18_Zigbee_v2\PIC18_Zigbee_R&D_by_Lab411\Microchip\ZigBeeStack\zPHY_MRF24J40.c
             MRF24J40Wake   0x00b962    program     extern C:\Users\TienDat\Desktop\ActorHome\PIC18_Zigbee_v2\PIC18_Zigbee_R&D_by_Lab411\Microchip\ZigBeeStack\zPHY_MRF24J40.c
                 PHYTasks   0x00ba56    program     extern C:\Users\TienDat\Desktop\ActorHome\PIC18_Zigbee_v2\PIC18_Zigbee_R&D_by_Lab411\Microchip\ZigBeeStack\zPHY_MRF24J40.c
        PHYSetLongRAMAddr   0x00bb3e    program     extern C:\Users\TienDat\Desktop\ActorHome\PIC18_Zigbee_v2\PIC18_Zigbee_R&D_by_Lab411\Microchip\ZigBeeStack\zPHY_MRF24J40.c
       ___return_lbl00044   0x00bbce    program     static                          
       PHYSetShortRAMAddr   0x00bbda    program     extern C:\Users\TienDat\Desktop\ActorHome\PIC18_Zigbee_v2\PIC18_Zigbee_R&D_by_Lab411\Microchip\ZigBeeStack\zPHY_MRF24J40.c
       ___return_lbl00045   0x00bc30    program     static                          
       PHYGetShortRAMAddr   0x00bc3c    program     extern C:\Users\TienDat\Desktop\ActorHome\PIC18_Zigbee_v2\PIC18_Zigbee_R&D_by_Lab411\Microchip\ZigBeeStack\zPHY_MRF24J40.c
       ___return_lbl00046   0x00bc90    program     static                          
        PHYGetLongRAMAddr   0x00bc9e    program     extern C:\Users\TienDat\Desktop\ActorHome\PIC18_Zigbee_v2\PIC18_Zigbee_R&D_by_Lab411\Microchip\ZigBeeStack\zPHY_MRF24J40.c
       ___return_lbl00047   0x00bd32    program     static                          
        PHYSetOutputPower   0x00bd40    program     extern C:\Users\TienDat\Desktop\ActorHome\PIC18_Zigbee_v2\PIC18_Zigbee_R&D_by_Lab411\Microchip\ZigBeeStack\zPHY_MRF24J40.c
                  HighISR   0x00bd4e    program     extern C:\Users\TienDat\Desktop\ActorHome\PIC18_Zigbee_v2\PIC18_Zigbee_R&D_by_Lab411\Microchip\ZigBeeStack\zPHY_MRF24J40.c
         ___else_lbl00052   0x00bdf4    program     static                          
           ___if_lbl00050   0x00be02    program     static                          
           ___if_lbl00051   0x00be02    program     static                          
           ___if_lbl00053   0x00be02    program     static                          
               __tmplbl_3   0x00be28    program     static                          
               __tmplbl_2   0x00be30    program     static                          
               __tmplbl_1   0x00be3a    program     static                          
           ___if_lbl00056   0x00be3e    program     static                          
         ___else_lbl00058   0x00be5e    program     static                          
           ___if_lbl00057   0x00be62    program     static                          
           ___if_lbl00059   0x00be62    program     static                          
           ___if_lbl00060   0x00be66    program     static                          
           ___if_lbl00061   0x00be6a    program     static                          
           ___if_lbl00062   0x00bec2    program     static                          
         ___else_lbl00064   0x00bee6    program     static                          
           ___if_lbl00063   0x00bf0c    program     static                          
        ___while_lbl00066   0x00bf52    program     static                          
           ___if_lbl00065   0x00bf52    program     static                          
         ___else_lbl00069   0x00bfa8    program     static                          
           ___if_lbl00068   0x00bfe0    program     static                          
           ___if_lbl00070   0x00c012    program     static                          
         ___else_lbl00076   0x00c014    program     static                          
               __tmplbl_5   0x00c038    program     static                          
               __tmplbl_4   0x00c04e    program     static                          
           ___if_lbl00072   0x00c05e    program     static                          
           ___if_lbl00073   0x00c066    program     static                          
           ___if_lbl00074   0x00c066    program     static                          
           ___if_lbl00075   0x00c066    program     static                          
           ___if_lbl00077   0x00c078    program     static                          
        ___while_lbl00067   0x00c07a    program     static                          
         ___else_lbl00079   0x00c088    program     static                          
           ___if_lbl00078   0x00c09c    program     static                          
         ___else_lbl00081   0x00c0a6    program     static                          
           ___if_lbl00080   0x00c0b0    program     static                          
      DoneReceivingPacket   0x00c0b0    program     static                          
           ___if_lbl00084   0x00c0cc    program     static                          
           ___if_lbl00083   0x00c0cc    program     static                          
           ___if_lbl00082   0x00c0cc    program     static                          
       ___return_lbl00049   0x00c0d0    program     static                          
                   __pa_0   0x00c134    program     static C:\Users\TienDat\Desktop\ActorHome\PIC18_Zigbee_v2\PIC18_Zigbee_R&D_by_Lab411\Microchip\ZigBeeStack\zPHY_MRF24J40.c
                   __pa_1   0x00c13e    program     static C:\Users\TienDat\Desktop\ActorHome\PIC18_Zigbee_v2\PIC18_Zigbee_R&D_by_Lab411\Microchip\ZigBeeStack\zPHY_MRF24J40.c
                   __pa_2   0x00c150    program     static C:\Users\TienDat\Desktop\ActorHome\PIC18_Zigbee_v2\PIC18_Zigbee_R&D_by_Lab411\Microchip\ZigBeeStack\zPHY_MRF24J40.c
                   __pa_3   0x00c160    program     static C:\Users\TienDat\Desktop\ActorHome\PIC18_Zigbee_v2\PIC18_Zigbee_R&D_by_Lab411\Microchip\ZigBeeStack\zPHY_MRF24J40.c
               __tmplbl_6   0x00c160    program     static                          
                   __pa_4   0x00c16c    program     static C:\Users\TienDat\Desktop\ActorHome\PIC18_Zigbee_v2\PIC18_Zigbee_R&D_by_Lab411\Microchip\ZigBeeStack\zPHY_MRF24J40.c
                   __pa_5   0x00c17c    program     static C:\Users\TienDat\Desktop\ActorHome\PIC18_Zigbee_v2\PIC18_Zigbee_R&D_by_Lab411\Microchip\ZigBeeStack\zPHY_MRF24J40.c
                     main   0x00c184    program     extern C:\Users\TienDat\Desktop\ActorHome\PIC18_Zigbee_v2\PIC18_Zigbee_R&D_by_Lab411\DemoPIC18Router\Router.c
        ___while_lbl00001   0x00c200    program     static                          
        ___while_lbl00002   0x00c218    program     static                          
       ___return_lbl00000   0x00c218    program     static                          
  ProcessZigBeePrimitives   0x00c21a    program     extern C:\Users\TienDat\Desktop\ActorHome\PIC18_Zigbee_v2\PIC18_Zigbee_R&D_by_Lab411\DemoPIC18Router\Router.c
    ProcessNONZigBeeTasks   0x00c554    program     extern C:\Users\TienDat\Desktop\ActorHome\PIC18_Zigbee_v2\PIC18_Zigbee_R&D_by_Lab411\DemoPIC18Router\Router.c
             HardwareInit   0x00c578    program     extern C:\Users\TienDat\Desktop\ActorHome\PIC18_Zigbee_v2\PIC18_Zigbee_R&D_by_Lab411\DemoPIC18Router\Router.c
     UserInterruptHandler   0x00c5ba    program     extern C:\Users\TienDat\Desktop\ActorHome\PIC18_Zigbee_v2\PIC18_Zigbee_R&D_by_Lab411\DemoPIC18Router\Router.c
              SendOneByte   0x00c60e    program     extern C:\Users\TienDat\Desktop\ActorHome\PIC18_Zigbee_v2\PIC18_Zigbee_R&D_by_Lab411\DemoPIC18Router\Router.c
 Send_HTE_ToRouterEmboard   0x00c630    program     extern C:\Users\TienDat\Desktop\ActorHome\PIC18_Zigbee_v2\PIC18_Zigbee_R&D_by_Lab411\DemoPIC18Router\Router.c
                LoadSHT10   0x00c666    program     extern C:\Users\TienDat\Desktop\ActorHome\PIC18_Zigbee_v2\PIC18_Zigbee_R&D_by_Lab411\DemoPIC18Router\Router.c
                   __pa_0   0x00c6a0    program     static C:\Users\TienDat\Desktop\ActorHome\PIC18_Zigbee_v2\PIC18_Zigbee_R&D_by_Lab411\DemoPIC18Router\Router.c
                   __pa_1   0x00c6b0    program     static C:\Users\TienDat\Desktop\ActorHome\PIC18_Zigbee_v2\PIC18_Zigbee_R&D_by_Lab411\DemoPIC18Router\Router.c
                   __pa_2   0x00c6dc    program     static C:\Users\TienDat\Desktop\ActorHome\PIC18_Zigbee_v2\PIC18_Zigbee_R&D_by_Lab411\DemoPIC18Router\Router.c
                   __pa_3   0x00c6f8    program     static C:\Users\TienDat\Desktop\ActorHome\PIC18_Zigbee_v2\PIC18_Zigbee_R&D_by_Lab411\DemoPIC18Router\Router.c
                   __pa_4   0x00c70a    program     static C:\Users\TienDat\Desktop\ActorHome\PIC18_Zigbee_v2\PIC18_Zigbee_R&D_by_Lab411\DemoPIC18Router\Router.c
                   __pa_5   0x00c718    program     static C:\Users\TienDat\Desktop\ActorHome\PIC18_Zigbee_v2\PIC18_Zigbee_R&D_by_Lab411\DemoPIC18Router\Router.c
                   __pa_6   0x00c724    program     static C:\Users\TienDat\Desktop\ActorHome\PIC18_Zigbee_v2\PIC18_Zigbee_R&D_by_Lab411\DemoPIC18Router\Router.c
                   __pa_7   0x00c73a    program     static C:\Users\TienDat\Desktop\ActorHome\PIC18_Zigbee_v2\PIC18_Zigbee_R&D_by_Lab411\DemoPIC18Router\Router.c
                   __pa_8   0x00c750    program     static C:\Users\TienDat\Desktop\ActorHome\PIC18_Zigbee_v2\PIC18_Zigbee_R&D_by_Lab411\DemoPIC18Router\Router.c
                   __pa_9   0x00c75c    program     static C:\Users\TienDat\Desktop\ActorHome\PIC18_Zigbee_v2\PIC18_Zigbee_R&D_by_Lab411\DemoPIC18Router\Router.c
                  __pa_10   0x00c768    program     static C:\Users\TienDat\Desktop\ActorHome\PIC18_Zigbee_v2\PIC18_Zigbee_R&D_by_Lab411\DemoPIC18Router\Router.c
                  __pa_11   0x00c772    program     static C:\Users\TienDat\Desktop\ActorHome\PIC18_Zigbee_v2\PIC18_Zigbee_R&D_by_Lab411\DemoPIC18Router\Router.c
                  __pa_12   0x00c784    program     static C:\Users\TienDat\Desktop\ActorHome\PIC18_Zigbee_v2\PIC18_Zigbee_R&D_by_Lab411\DemoPIC18Router\Router.c
                  __pa_13   0x00c792    program     static C:\Users\TienDat\Desktop\ActorHome\PIC18_Zigbee_v2\PIC18_Zigbee_R&D_by_Lab411\DemoPIC18Router\Router.c
                  __pa_14   0x00c7a0    program     static C:\Users\TienDat\Desktop\ActorHome\PIC18_Zigbee_v2\PIC18_Zigbee_R&D_by_Lab411\DemoPIC18Router\Router.c
               ZigBeeInit   0x00c7aa    program     extern C:\Users\TienDat\Desktop\ActorHome\PIC18_Zigbee_v2\PIC18_Zigbee_R&D_by_Lab411\Microchip\ZigBeeStack\ZigbeeTasks.c
              ZigBeeTasks   0x00c7e0    program     extern C:\Users\TienDat\Desktop\ActorHome\PIC18_Zigbee_v2\PIC18_Zigbee_R&D_by_Lab411\Microchip\ZigBeeStack\ZigbeeTasks.c
           ___if_lbl00002   0x00c804    program     static                          
           ___do_lbl00127   0x00c804    program     static                          
           ___if_lbl00005   0x00c81a    program     static                          
           ___if_lbl00006   0x00c82e    program     static                          
           ___if_lbl00007   0x00c842    program     static                          
           ___if_lbl00008   0x00c856    program     static                          
           ___if_lbl00009   0x00c86a    program     static                          
      ___case_10_lbl00011   0x00ca98    program     static                          
       ___case_1_lbl00016   0x00ca98    program     static                          
      ___case_12_lbl00013   0x00ca98    program     static                          
       ___case_4_lbl00015   0x00ca98    program     static                          
       ___case_8_lbl00012   0x00ca98    program     static                          
       ___case_6_lbl00014   0x00ca98    program     static                          
      ___case_31_lbl00025   0x00caa8    program     static                          
      ___case_35_lbl00024   0x00caa8    program     static                          
       ___case_2_lbl00037   0x00caa8    program     static                          
      ___case_29_lbl00026   0x00caa8    program     static                          
      ___case_36_lbl00023   0x00caa8    program     static                          
      ___case_38_lbl00022   0x00caa8    program     static                          
      ___case_25_lbl00027   0x00caa8    program     static                          
       ___case_3_lbl00038   0x00caa8    program     static                          
      ___case_40_lbl00021   0x00caa8    program     static                          
      ___case_23_lbl00028   0x00caa8    program     static                          
      ___case_21_lbl00029   0x00caa8    program     static                          
      ___case_43_lbl00020   0x00caa8    program     static                          
       ___case_7_lbl00036   0x00caa8    program     static                          
      ___case_45_lbl00019   0x00caa8    program     static                          
      ___case_47_lbl00018   0x00caa8    program     static                          
      ___case_11_lbl00033   0x00caa8    program     static                          
      ___case_19_lbl00030   0x00caa8    program     static                          
      ___case_49_lbl00017   0x00caa8    program     static                          
       ___case_5_lbl00034   0x00caa8    program     static                          
      ___case_16_lbl00031   0x00caa8    program     static                          
      ___case_13_lbl00032   0x00caa8    program     static                          
       ___case_9_lbl00035   0x00caa8    program     static                          
      ___case_32_lbl00062   0x00cab8    program     static                          
     ___case_114_lbl00039   0x00cab8    program     static                          
      ___case_30_lbl00063   0x00cab8    program     static                          
      ___case_28_lbl00064   0x00cab8    program     static                          
      ___case_27_lbl00065   0x00cab8    program     static                          
      ___case_26_lbl00066   0x00cab8    program     static                          
      ___case_24_lbl00067   0x00cab8    program     static                          
      ___case_17_lbl00071   0x00cab8    program     static                          
      ___case_18_lbl00070   0x00cab8    program     static                          
      ___case_22_lbl00068   0x00cab8    program     static                          
      ___case_75_lbl00040   0x00cab8    program     static                          
      ___case_20_lbl00069   0x00cab8    program     static                          
      ___case_50_lbl00052   0x00cab8    program     static                          
      ___case_51_lbl00051   0x00cab8    program     static                          
      ___case_65_lbl00050   0x00cab8    program     static                          
      ___case_66_lbl00049   0x00cab8    program     static                          
      ___case_67_lbl00048   0x00cab8    program     static                          
      ___case_68_lbl00047   0x00cab8    program     static                          
      ___case_69_lbl00046   0x00cab8    program     static                          
      ___case_48_lbl00053   0x00cab8    program     static                          
      ___case_46_lbl00054   0x00cab8    program     static                          
      ___case_70_lbl00045   0x00cab8    program     static                          
      ___case_71_lbl00044   0x00cab8    program     static                          
      ___case_44_lbl00055   0x00cab8    program     static                          
      ___case_42_lbl00056   0x00cab8    program     static                          
      ___case_41_lbl00057   0x00cab8    program     static                          
      ___case_72_lbl00043   0x00cab8    program     static                          
      ___case_73_lbl00042   0x00cab8    program     static                          
      ___case_39_lbl00058   0x00cab8    program     static                          
      ___case_37_lbl00059   0x00cab8    program     static                          
      ___case_74_lbl00041   0x00cab8    program     static                          
      ___case_34_lbl00060   0x00cab8    program     static                          
      ___case_33_lbl00061   0x00cab8    program     static                          
     ___case_110_lbl00073   0x00cac8    program     static                          
     ___case_100_lbl00078   0x00cac8    program     static                          
     ___case_102_lbl00077   0x00cac8    program     static                          
     ___case_104_lbl00076   0x00cac8    program     static                          
     ___case_106_lbl00075   0x00cac8    program     static                          
     ___case_108_lbl00074   0x00cac8    program     static                          
     ___case_112_lbl00072   0x00cac8    program     static                          
      ___case_52_lbl00087   0x00cac8    program     static                          
      ___case_98_lbl00079   0x00cac8    program     static                          
      ___case_97_lbl00080   0x00cac8    program     static                          
      ___case_53_lbl00086   0x00cac8    program     static                          
      ___case_95_lbl00081   0x00cac8    program     static                          
      ___case_94_lbl00082   0x00cac8    program     static                          
      ___case_79_lbl00085   0x00cac8    program     static                          
      ___case_82_lbl00084   0x00cac8    program     static                          
      ___case_85_lbl00083   0x00cac8    program     static                          
     ___case_101_lbl00091   0x00cad8    program     static                          
      ___case_90_lbl00097   0x00cad8    program     static                          
      ___case_99_lbl00093   0x00cad8    program     static                          
      ___case_96_lbl00092   0x00cad8    program     static                          
      ___case_93_lbl00094   0x00cad8    program     static                          
     ___case_107_lbl00088   0x00cad8    program     static                          
      ___case_92_lbl00095   0x00cad8    program     static                          
     ___case_103_lbl00090   0x00cad8    program     static                          
      ___case_91_lbl00096   0x00cad8    program     static                          
     ___case_105_lbl00089   0x00cad8    program     static                          
      ___case_54_lbl00118   0x00cae8    program     static                          
      ___case_55_lbl00117   0x00cae8    program     static                          
      ___case_56_lbl00116   0x00cae8    program     static                          
      ___case_57_lbl00115   0x00cae8    program     static                          
      ___case_58_lbl00114   0x00cae8    program     static                          
      ___case_59_lbl00113   0x00cae8    program     static                          
      ___case_60_lbl00112   0x00cae8    program     static                          
      ___case_61_lbl00111   0x00cae8    program     static                          
      ___case_62_lbl00110   0x00cae8    program     static                          
      ___case_63_lbl00109   0x00cae8    program     static                          
      ___case_64_lbl00108   0x00cae8    program     static                          
      ___case_76_lbl00107   0x00cae8    program     static                          
      ___case_77_lbl00106   0x00cae8    program     static                          
      ___case_78_lbl00105   0x00cae8    program     static                          
      ___case_80_lbl00119   0x00cae8    program     static                          
      ___case_81_lbl00103   0x00cae8    program     static                          
      ___case_89_lbl00101   0x00cae8    program     static                          
      ___case_86_lbl00102   0x00cae8    program     static                          
     ___case_111_lbl00099   0x00cae8    program     static                          
     ___case_115_lbl00104   0x00cae8    program     static                          
     ___case_113_lbl00098   0x00cae8    program     static                          
     ___case_109_lbl00100   0x00cae8    program     static                          
               __tmplbl_4   0x00cb00    program     static                          
               __tmplbl_3   0x00cb08    program     static                          
               __tmplbl_2   0x00cb10    program     static                          
               __tmplbl_1   0x00cb18    program     static                          
               __tmplbl_0   0x00cb20    program     static                          
         ___else_lbl00125   0x00cb2a    program     static                          
           ___if_lbl00124   0x00cb32    program     static                          
      ___default_lbl00126   0x00cb34    program     static                          
   ___switchexit_lbl00010   0x00cb36    program     static                          
           ___do_lbl00003   0x00cb36    program     static                          
           ___do_lbl00004   0x00cb3e    program     static                          
               __tmplbl_9   0x00cb56    program     static                          
               __tmplbl_8   0x00cb5e    program     static                          
               __tmplbl_7   0x00cb66    program     static                          
               __tmplbl_6   0x00cb6e    program     static                          
               __tmplbl_5   0x00cb76    program     static                          
         ___else_lbl00133   0x00cb80    program     static                          
       ___return_lbl00001   0x00cb88    program     static                          
           ___if_lbl00132   0x00cb88    program     static                          
                  NVMInit   0x00cb94    program     extern C:\Users\TienDat\Desktop\ActorHome\PIC18_Zigbee_v2\PIC18_Zigbee_R&D_by_Lab411\Microchip\ZigBeeStack\zNVM.c
                 NVMWrite   0x00cb96    program     extern C:\Users\TienDat\Desktop\ActorHome\PIC18_Zigbee_v2\PIC18_Zigbee_R&D_by_Lab411\Microchip\ZigBeeStack\zNVM.c
        ___while_lbl00002   0x00cbb2    program     static                          
           ___if_lbl00004   0x00cc20    program     static                          
        ___while_lbl00005   0x00cc4a    program     static                          
           ___if_lbl00007   0x00cca4    program     static                          
           ___if_lbl00008   0x00ccee    program     static                          
        ___while_lbl00009   0x00cd14    program     static                          
               __tmplbl_2   0x00cd30    program     static                          
               __tmplbl_1   0x00cd32    program     static                          
               __tmplbl_0   0x00cd38    program     static                          
        ___while_lbl00010   0x00cd70    program     static                          
        ___while_lbl00012   0x00cd96    program     static                          
           ___if_lbl00014   0x00cdae    program     static                          
        ___while_lbl00015   0x00cdcc    program     static                          
        ___while_lbl00016   0x00cdf4    program     static                          
           ___if_lbl00017   0x00ce46    program     static                          
        ___while_lbl00013   0x00ce48    program     static                          
        ___while_lbl00006   0x00ce52    program     static                          
       ___return_lbl00001   0x00ce68    program     static                          
        ___while_lbl00003   0x00ce68    program     static                          
                 ClearNVM   0x00ce80    program     extern C:\Users\TienDat\Desktop\ActorHome\PIC18_Zigbee_v2\PIC18_Zigbee_R&D_by_Lab411\Microchip\ZigBeeStack\zNVM.c
          ___for_lbl00023   0x00cea0    program     static                          
        ___while_lbl00021   0x00cec2    program     static                          
        ___while_lbl00022   0x00cf2e    program     static                          
          ___for_lbl00019   0x00cf3a    program     static                          
       ___return_lbl00018   0x00cf46    program     static                          
          ___for_lbl00020   0x00cf46    program     static                          
              macLongAddr   0x00cf58    program     extern C:\Users\TienDat\Desktop\ActorHome\PIC18_Zigbee_v2\PIC18_Zigbee_R&D_by_Lab411\Microchip\ZigBeeStack\zNVM.c
                   filler   0x00cf60    program     extern C:\Users\TienDat\Desktop\ActorHome\PIC18_Zigbee_v2\PIC18_Zigbee_R&D_by_Lab411\Microchip\ZigBeeStack\zNVM.c
       bindingValidityKey   0x00cfa0    program     extern C:\Users\TienDat\Desktop\ActorHome\PIC18_Zigbee_v2\PIC18_Zigbee_R&D_by_Lab411\Microchip\ZigBeeStack\zNVM.c
          apsBindingTable   0x00cfa2    program     extern C:\Users\TienDat\Desktop\ActorHome\PIC18_Zigbee_v2\PIC18_Zigbee_R&D_by_Lab411\Microchip\ZigBeeStack\zNVM.c
     bindingTableUsageMap   0x00cfde    program     extern C:\Users\TienDat\Desktop\ActorHome\PIC18_Zigbee_v2\PIC18_Zigbee_R&D_by_Lab411\Microchip\ZigBeeStack\zNVM.c
bindingTableSourceNodeMap   0x00cfe0    program     extern C:\Users\TienDat\Desktop\ActorHome\PIC18_Zigbee_v2\PIC18_Zigbee_R&D_by_Lab411\Microchip\ZigBeeStack\zNVM.c
     apsGroupAddressTable   0x00cfe2    program     extern C:\Users\TienDat\Desktop\ActorHome\PIC18_Zigbee_v2\PIC18_Zigbee_R&D_by_Lab411\Microchip\ZigBeeStack\zNVM.c
        neighborTableInfo   0x00d032    program     extern C:\Users\TienDat\Desktop\ActorHome\PIC18_Zigbee_v2\PIC18_Zigbee_R&D_by_Lab411\Microchip\ZigBeeStack\zNVM.c
            neighborTable   0x00d040    program     extern C:\Users\TienDat\Desktop\ActorHome\PIC18_Zigbee_v2\PIC18_Zigbee_R&D_by_Lab411\Microchip\ZigBeeStack\zNVM.c
             routingTable   0x00d1d8    program     extern C:\Users\TienDat\Desktop\ActorHome\PIC18_Zigbee_v2\PIC18_Zigbee_R&D_by_Lab411\Microchip\ZigBeeStack\zNVM.c
 apsAddressMapValidityKey   0x00d20a    program     extern C:\Users\TienDat\Desktop\ActorHome\PIC18_Zigbee_v2\PIC18_Zigbee_R&D_by_Lab411\Microchip\ZigBeeStack\zNVM.c
            apsAddressMap   0x00d20c    program     extern C:\Users\TienDat\Desktop\ActorHome\PIC18_Zigbee_v2\PIC18_Zigbee_R&D_by_Lab411\Microchip\ZigBeeStack\zNVM.c
                  filler2   0x00d25c    program     extern C:\Users\TienDat\Desktop\ActorHome\PIC18_Zigbee_v2\PIC18_Zigbee_R&D_by_Lab411\Microchip\ZigBeeStack\zNVM.c
              s_softreset   0x00d29c    program     extern C:\Users\TienDat\Desktop\ActorHome\PIC18_Zigbee_v2\PIC18_Zigbee_R&D_by_Lab411\Microchip\Common\SHT1x.c
                s_measure   0x00d2b4    program     extern C:\Users\TienDat\Desktop\ActorHome\PIC18_Zigbee_v2\PIC18_Zigbee_R&D_by_Lab411\Microchip\Common\SHT1x.c
             s_transstart   0x00d39e    program     extern C:\Users\TienDat\Desktop\ActorHome\PIC18_Zigbee_v2\PIC18_Zigbee_R&D_by_Lab411\Microchip\Common\SHT1x.c
        s_connectionreset   0x00d404    program     extern C:\Users\TienDat\Desktop\ActorHome\PIC18_Zigbee_v2\PIC18_Zigbee_R&D_by_Lab411\Microchip\Common\SHT1x.c
              s_read_byte   0x00d43e    program     extern C:\Users\TienDat\Desktop\ActorHome\PIC18_Zigbee_v2\PIC18_Zigbee_R&D_by_Lab411\Microchip\Common\SHT1x.c
             s_write_byte   0x00d4b8    program     extern C:\Users\TienDat\Desktop\ActorHome\PIC18_Zigbee_v2\PIC18_Zigbee_R&D_by_Lab411\Microchip\Common\SHT1x.c
                   __pa_0   0x00d516    program     static C:\Users\TienDat\Desktop\ActorHome\PIC18_Zigbee_v2\PIC18_Zigbee_R&D_by_Lab411\Microchip\Common\SHT1x.c
                   __pa_1   0x00d528    program     static C:\Users\TienDat\Desktop\ActorHome\PIC18_Zigbee_v2\PIC18_Zigbee_R&D_by_Lab411\Microchip\Common\SHT1x.c
                   __pa_2   0x00d534    program     static C:\Users\TienDat\Desktop\ActorHome\PIC18_Zigbee_v2\PIC18_Zigbee_R&D_by_Lab411\Microchip\Common\SHT1x.c
                   __pa_3   0x00d540    program     static C:\Users\TienDat\Desktop\ActorHome\PIC18_Zigbee_v2\PIC18_Zigbee_R&D_by_Lab411\Microchip\Common\SHT1x.c
                   __pa_4   0x00d54c    program     static C:\Users\TienDat\Desktop\ActorHome\PIC18_Zigbee_v2\PIC18_Zigbee_R&D_by_Lab411\Microchip\Common\SHT1x.c
                   __pa_5   0x00d55a    program     static C:\Users\TienDat\Desktop\ActorHome\PIC18_Zigbee_v2\PIC18_Zigbee_R&D_by_Lab411\Microchip\Common\SHT1x.c
                   __pa_6   0x00d568    program     static C:\Users\TienDat\Desktop\ActorHome\PIC18_Zigbee_v2\PIC18_Zigbee_R&D_by_Lab411\Microchip\Common\SHT1x.c
                   __pa_7   0x00d576    program     static C:\Users\TienDat\Desktop\ActorHome\PIC18_Zigbee_v2\PIC18_Zigbee_R&D_by_Lab411\Microchip\Common\SHT1x.c
                 FLO3232U   0x00d580    program     extern D:\3.43\pic18-lt\cxx-framework\src\traditional\math\cast32FP.asm
                 FLO3232S   0x00d584    program     extern D:\3.43\pic18-lt\cxx-framework\src\traditional\math\cast32FP.asm
                jI2F32Beg   0x00d59c    program     static D:\3.43\pic18-lt\cxx-framework\src\traditional\math\cast32FP.asm
                 FXM1616U   0x00d5b6    program     extern D:\3.43\pic18-lt\cxx-framework\src\traditional\math\fxm1616u.asm
                 FXM2424U   0x00d5f2    program     extern D:\3.43\pic18-lt\cxx-framework\src\traditional\math\fxm2424u.asm
                  TAGTB32   0x00d684    program     extern D:\3.43\pic18-lt\cxx-framework\src\traditional\math\gtFP.asm
              __FpCompare   0x00d696    program     extern D:\3.43\pic18-lt\cxx-framework\src\traditional\math\compFP.asm
             jBothNotZero   0x00d6b4    program     static D:\3.43\pic18-lt\cxx-framework\src\traditional\math\compFP.asm
                 jSignsEQ   0x00d6b8    program     static D:\3.43\pic18-lt\cxx-framework\src\traditional\math\compFP.asm
                      jEQ   0x00d6d0    program     static D:\3.43\pic18-lt\cxx-framework\src\traditional\math\compFP.asm
                      jNE   0x00d6d4    program     static D:\3.43\pic18-lt\cxx-framework\src\traditional\math\compFP.asm
                    jExch   0x00d6dc    program     static D:\3.43\pic18-lt\cxx-framework\src\traditional\math\compFP.asm
                  jNoExch   0x00d6fc    program     static D:\3.43\pic18-lt\cxx-framework\src\traditional\math\compFP.asm
                   jFinal   0x00d706    program     static D:\3.43\pic18-lt\cxx-framework\src\traditional\math\compFP.asm
                  jAisNeg   0x00d712    program     static D:\3.43\pic18-lt\cxx-framework\src\traditional\math\compFP.asm
                   jShift   0x00d718    program     static D:\3.43\pic18-lt\cxx-framework\src\traditional\math\compFP.asm
                   jExpEQ   0x00d722    program     static D:\3.43\pic18-lt\cxx-framework\src\traditional\math\compFP.asm
                  jRotate   0x00d72e    program     static D:\3.43\pic18-lt\cxx-framework\src\traditional\math\compFP.asm
            __FpReturnNaN   0x00d740    program     extern D:\3.43\pic18-lt\cxx-framework\src\traditional\math\packFP.asm
                 __FpExit   0x00d74c    program     extern D:\3.43\pic18-lt\cxx-framework\src\traditional\math\packFP.asm
        __FpReturnSignInf   0x00d74e    program     extern D:\3.43\pic18-lt\cxx-framework\src\traditional\math\packFP.asm
         __FpReturnNegInf   0x00d752    program     extern D:\3.43\pic18-lt\cxx-framework\src\traditional\math\packFP.asm
         __FpReturnPosInf   0x00d758    program     extern D:\3.43\pic18-lt\cxx-framework\src\traditional\math\packFP.asm
           jReturnPosInf0   0x00d75c    program     static D:\3.43\pic18-lt\cxx-framework\src\traditional\math\packFP.asm
               jZero1and2   0x00d760    program     static D:\3.43\pic18-lt\cxx-framework\src\traditional\math\packFP.asm
       __FpReturnSignZero   0x00d766    program     extern D:\3.43\pic18-lt\cxx-framework\src\traditional\math\packFP.asm
        __FpReturnNegZero   0x00d76a    program     extern D:\3.43\pic18-lt\cxx-framework\src\traditional\math\packFP.asm
        __FpReturnPosZero   0x00d772    program     extern D:\3.43\pic18-lt\cxx-framework\src\traditional\math\packFP.asm
                 __FpPack   0x00d778    program     extern D:\3.43\pic18-lt\cxx-framework\src\traditional\math\packFP.asm
                  jPkLoop   0x00d786    program     static D:\3.43\pic18-lt\cxx-framework\src\traditional\math\packFP.asm
             jPkShiftDone   0x00d7a2    program     static D:\3.43\pic18-lt\cxx-framework\src\traditional\math\packFP.asm
               jPkRoundIt   0x00d7b8    program     static D:\3.43\pic18-lt\cxx-framework\src\traditional\math\packFP.asm
              __FpReturnW   0x00d7d0    program     extern D:\3.43\pic18-lt\cxx-framework\src\traditional\math\packFP.asm
             jPkRoundDone   0x00d7d0    program     static D:\3.43\pic18-lt\cxx-framework\src\traditional\math\packFP.asm
              __FpUnPackA   0x00d7f0    program     extern D:\3.43\pic18-lt\cxx-framework\src\traditional\math\UnpackFP.asm
                  jUnpkA1   0x00d7fa    program     static D:\3.43\pic18-lt\cxx-framework\src\traditional\math\UnpackFP.asm
                 jUnpkANZ   0x00d808    program     static D:\3.43\pic18-lt\cxx-framework\src\traditional\math\UnpackFP.asm
                  jUnpkA2   0x00d812    program     static D:\3.43\pic18-lt\cxx-framework\src\traditional\math\UnpackFP.asm
                 jUnpkNaN   0x00d81c    program     static D:\3.43\pic18-lt\cxx-framework\src\traditional\math\UnpackFP.asm
              __FpUnPackB   0x00d820    program     extern D:\3.43\pic18-lt\cxx-framework\src\traditional\math\UnpackFP.asm
                  jUnpkB1   0x00d82a    program     static D:\3.43\pic18-lt\cxx-framework\src\traditional\math\UnpackFP.asm
                 jUnpkBNZ   0x00d838    program     static D:\3.43\pic18-lt\cxx-framework\src\traditional\math\UnpackFP.asm
                  jUnpkB2   0x00d842    program     static D:\3.43\pic18-lt\cxx-framework\src\traditional\math\UnpackFP.asm
                SRAMalloc   0x00d84c    program     extern C:\Users\TienDat\Desktop\ActorHome\PIC18_Zigbee_v2\PIC18_Zigbee_R&D_by_Lab411\Microchip\Common\sralloc.c
                 SRAMfree   0x00d930    program     extern C:\Users\TienDat\Desktop\ActorHome\PIC18_Zigbee_v2\PIC18_Zigbee_R&D_by_Lab411\Microchip\Common\sralloc.c
             SRAMInitHeap   0x00d93e    program     extern C:\Users\TienDat\Desktop\ActorHome\PIC18_Zigbee_v2\PIC18_Zigbee_R&D_by_Lab411\Microchip\Common\sralloc.c
               _SRAMmerge   0x00d9c0    program     extern C:\Users\TienDat\Desktop\ActorHome\PIC18_Zigbee_v2\PIC18_Zigbee_R&D_by_Lab411\Microchip\Common\sralloc.c
                   __pa_0   0x00da84    program     static C:\Users\TienDat\Desktop\ActorHome\PIC18_Zigbee_v2\PIC18_Zigbee_R&D_by_Lab411\Microchip\Common\sralloc.c
                   __pa_1   0x00da8a    program     static C:\Users\TienDat\Desktop\ActorHome\PIC18_Zigbee_v2\PIC18_Zigbee_R&D_by_Lab411\Microchip\Common\sralloc.c
                   __pa_2   0x00da98    program     static C:\Users\TienDat\Desktop\ActorHome\PIC18_Zigbee_v2\PIC18_Zigbee_R&D_by_Lab411\Microchip\Common\sralloc.c
                   __pa_3   0x00daaa    program     static C:\Users\TienDat\Desktop\ActorHome\PIC18_Zigbee_v2\PIC18_Zigbee_R&D_by_Lab411\Microchip\Common\sralloc.c
                   __pa_4   0x00dab6    program     static C:\Users\TienDat\Desktop\ActorHome\PIC18_Zigbee_v2\PIC18_Zigbee_R&D_by_Lab411\Microchip\Common\sralloc.c
                   __pa_5   0x00dac0    program     static C:\Users\TienDat\Desktop\ActorHome\PIC18_Zigbee_v2\PIC18_Zigbee_R&D_by_Lab411\Microchip\Common\sralloc.c
                   __pa_6   0x00dad2    program     static C:\Users\TienDat\Desktop\ActorHome\PIC18_Zigbee_v2\PIC18_Zigbee_R&D_by_Lab411\Microchip\Common\sralloc.c
                   __pa_7   0x00dade    program     static C:\Users\TienDat\Desktop\ActorHome\PIC18_Zigbee_v2\PIC18_Zigbee_R&D_by_Lab411\Microchip\Common\sralloc.c
                   __pa_8   0x00daea    program     static C:\Users\TienDat\Desktop\ActorHome\PIC18_Zigbee_v2\PIC18_Zigbee_R&D_by_Lab411\Microchip\Common\sralloc.c
                   memcmp   0x00daf8    program     extern D:\3.43\pic18-lt\cxx-framework\src\traditional\stdclib\memcmp.asm
                    jLoop   0x00db18    program     static D:\3.43\pic18-lt\cxx-framework\src\traditional\stdclib\memcmp.asm
              _4jContinue   0x00db24    program     static D:\3.43\pic18-lt\cxx-framework\src\traditional\stdclib\memcmp.asm
                   _5jEnd   0x00db2e    program     static D:\3.43\pic18-lt\cxx-framework\src\traditional\stdclib\memcmp.asm
                     jEnd   0x00db34    program     static D:\3.43\pic18-lt\cxx-framework\src\traditional\stdclib\memcmp.asm
            memcmppgm2ram   0x00db4a    program     extern D:\3.43\pic18-lt\cxx-framework\src\traditional\stdclib\mcmpp2r.asm
                    jLoop   0x00db68    program     static D:\3.43\pic18-lt\cxx-framework\src\traditional\stdclib\mcmpp2r.asm
              _3jContinue   0x00db74    program     static D:\3.43\pic18-lt\cxx-framework\src\traditional\stdclib\mcmpp2r.asm
                   _4jEnd   0x00db7e    program     static D:\3.43\pic18-lt\cxx-framework\src\traditional\stdclib\mcmpp2r.asm
                     jEnd   0x00db86    program     static D:\3.43\pic18-lt\cxx-framework\src\traditional\stdclib\mcmpp2r.asm
                   memcpy   0x00db88    program     extern D:\3.43\pic18-lt\cxx-framework\src\traditional\stdclib\memcpy.asm
                    jLoop   0x00dbb0    program     static D:\3.43\pic18-lt\cxx-framework\src\traditional\stdclib\memcpy.asm
              _4jContinue   0x00dbbc    program     static D:\3.43\pic18-lt\cxx-framework\src\traditional\stdclib\memcpy.asm
                   _5jEnd   0x00dbc6    program     static D:\3.43\pic18-lt\cxx-framework\src\traditional\stdclib\memcpy.asm
                     jEnd   0x00dbcc    program     static D:\3.43\pic18-lt\cxx-framework\src\traditional\stdclib\memcpy.asm
            memcpypgm2ram   0x00dbde    program     extern D:\3.43\pic18-lt\cxx-framework\src\traditional\stdclib\mcpyp2r.asm
                    jLoop   0x00dc04    program     static D:\3.43\pic18-lt\cxx-framework\src\traditional\stdclib\mcpyp2r.asm
              _3jContinue   0x00dc10    program     static D:\3.43\pic18-lt\cxx-framework\src\traditional\stdclib\mcpyp2r.asm
                   _4jEnd   0x00dc1a    program     static D:\3.43\pic18-lt\cxx-framework\src\traditional\stdclib\mcpyp2r.asm
                     jEnd   0x00dc22    program     static D:\3.43\pic18-lt\cxx-framework\src\traditional\stdclib\mcpyp2r.asm
              ConsoleInit   0x00dc24    program     extern C:\Users\TienDat\Desktop\ActorHome\PIC18_Zigbee_v2\PIC18_Zigbee_R&D_by_Lab411\Microchip\Common\Console.c
               ConsolePut   0x00dc36    program     extern C:\Users\TienDat\Desktop\ActorHome\PIC18_Zigbee_v2\PIC18_Zigbee_R&D_by_Lab411\Microchip\Common\Console.c
      ConsolePutROMString   0x00dc44    program     extern C:\Users\TienDat\Desktop\ActorHome\PIC18_Zigbee_v2\PIC18_Zigbee_R&D_by_Lab411\Microchip\Common\Console.c
                PrintChar   0x00dc76    program     extern C:\Users\TienDat\Desktop\ActorHome\PIC18_Zigbee_v2\PIC18_Zigbee_R&D_by_Lab411\Microchip\Common\Console.c
                PrintWord   0x00dcac    program     extern C:\Users\TienDat\Desktop\ActorHome\PIC18_Zigbee_v2\PIC18_Zigbee_R&D_by_Lab411\Microchip\Common\Console.c
                   __pa_0   0x00dcf4    program     static C:\Users\TienDat\Desktop\ActorHome\PIC18_Zigbee_v2\PIC18_Zigbee_R&D_by_Lab411\Microchip\Common\Console.c
                   __pa_1   0x00dd06    program     static C:\Users\TienDat\Desktop\ActorHome\PIC18_Zigbee_v2\PIC18_Zigbee_R&D_by_Lab411\Microchip\Common\Console.c
                   __pa_2   0x00dd12    program     static C:\Users\TienDat\Desktop\ActorHome\PIC18_Zigbee_v2\PIC18_Zigbee_R&D_by_Lab411\Microchip\Common\Console.c
          InitSymbolTimer   0x00dd28    program     extern C:\Users\TienDat\Desktop\ActorHome\PIC18_Zigbee_v2\PIC18_Zigbee_R&D_by_Lab411\Microchip\ZigBeeStack\SymbolTime.c
                  TickGet   0x00dd3c    program     extern C:\Users\TienDat\Desktop\ActorHome\PIC18_Zigbee_v2\PIC18_Zigbee_R&D_by_Lab411\Microchip\ZigBeeStack\SymbolTime.c
   Config_Node_Descriptor   0x00ddd2    program     extern C:\Users\TienDat\Desktop\ActorHome\PIC18_Zigbee_v2\PIC18_Zigbee_R&D_by_Lab411\DemoPIC18Router\myZigBee.c
  Config_Power_Descriptor   0x00dddc    program     extern C:\Users\TienDat\Desktop\ActorHome\PIC18_Zigbee_v2\PIC18_Zigbee_R&D_by_Lab411\DemoPIC18Router\myZigBee.c
Config_Simple_Descriptors   0x00ddde    program     extern C:\Users\TienDat\Desktop\ActorHome\PIC18_Zigbee_v2\PIC18_Zigbee_R&D_by_Lab411\DemoPIC18Router\myZigBee.c
Config_NWK_Mode_and_Params   0x00de6e    program     extern C:\Users\TienDat\Desktop\ActorHome\PIC18_Zigbee_v2\PIC18_Zigbee_R&D_by_Lab411\DemoPIC18Router\myZigBee.c
                _do_cinit   0x00de78    program     extern D:\3.43\pic18-lt\cxx-framework\src\traditional\startup\c018i.c
                     test   0x00de92    program     static                          
                copy_loop   0x00deea    program     static                          
            copy_one_byte   0x00def0    program     static                          
             done_copying   0x00defe    program     static                          
       ___return_lbl00002   0x00df14    program     static                          
                     done   0x00df14    program     static                          
                   SPIPut   0x00df16    program     extern C:\Users\TienDat\Desktop\ActorHome\PIC18_Zigbee_v2\PIC18_Zigbee_R&D_by_Lab411\Microchip\Common\MSPI.c
                   SPIGet   0x00df2c    program     extern C:\Users\TienDat\Desktop\ActorHome\PIC18_Zigbee_v2\PIC18_Zigbee_R&D_by_Lab411\Microchip\Common\MSPI.c
              SPIGetArray   0x00df36    program     extern C:\Users\TienDat\Desktop\ActorHome\PIC18_Zigbee_v2\PIC18_Zigbee_R&D_by_Lab411\Microchip\Common\MSPI.c
              SPIPutArray   0x00df50    program     extern C:\Users\TienDat\Desktop\ActorHome\PIC18_Zigbee_v2\PIC18_Zigbee_R&D_by_Lab411\Microchip\Common\MSPI.c
                   __pa_0   0x00df68    program     static C:\Users\TienDat\Desktop\ActorHome\PIC18_Zigbee_v2\PIC18_Zigbee_R&D_by_Lab411\Microchip\Common\MSPI.c
                   __pa_1   0x00df7a    program     static C:\Users\TienDat\Desktop\ActorHome\PIC18_Zigbee_v2\PIC18_Zigbee_R&D_by_Lab411\Microchip\Common\MSPI.c
                   __pa_2   0x00df86    program     static C:\Users\TienDat\Desktop\ActorHome\PIC18_Zigbee_v2\PIC18_Zigbee_R&D_by_Lab411\Microchip\Common\MSPI.c
                   __pa_3   0x00df96    program     static C:\Users\TienDat\Desktop\ActorHome\PIC18_Zigbee_v2\PIC18_Zigbee_R&D_by_Lab411\Microchip\Common\MSPI.c
                  FXM3232   0x00dfa4    program     extern D:\3.43\pic18-lt\cxx-framework\src\traditional\math\fxm3232.c
       ___return_lbl00000   0x00e012    program     static                          
                  DelayMs   0x00e014    program     extern C:\Users\TienDat\Desktop\ActorHome\PIC18_Zigbee_v2\PIC18_Zigbee_R&D_by_Lab411\Microchip\Common\delay.c
                timeToAdd   0x00e052    program     extern C:\Users\TienDat\Desktop\ActorHome\PIC18_Zigbee_v2\PIC18_Zigbee_R&D_by_Lab411\Microchip\ZigBeeStack\zMAC_MRF24J40.c
            __zero_memory   0x00e08e    program     extern D:\3.43\pic18-lt\cxx-framework\src\traditional\proc\p18f26k20.asm
               zero_block   0x00e09c    program     static D:\3.43\pic18-lt\cxx-framework\src\traditional\proc\p18f26k20.asm
                   loop_h   0x00e09c    program     static D:\3.43\pic18-lt\cxx-framework\src\traditional\proc\p18f26k20.asm
                compare_l   0x00e0a4    program     static D:\3.43\pic18-lt\cxx-framework\src\traditional\proc\p18f26k20.asm
                   loop_l   0x00e0a6    program     static D:\3.43\pic18-lt\cxx-framework\src\traditional\proc\p18f26k20.asm
                 _startup   0x00e0ae    program     extern D:\3.43\pic18-lt\cxx-framework\src\traditional\startup\c018i.c
                     loop   0x00e0be    program     static                          
       ___return_lbl00001   0x00e0c8    program     static                          
           CharacterArray   0x00e0ca    program     extern C:\Users\TienDat\Desktop\ActorHome\PIC18_Zigbee_v2\PIC18_Zigbee_R&D_by_Lab411\Microchip\Common\Console.c
                   __init   0x00e0da    program     extern D:\3.43\pic18-lt\cxx-framework\src\traditional\stdclib\__init.c
                 config1H   0x300001    program     extern C:\Users\TienDat\Desktop\ActorHome\PIC18_Zigbee_v2\PIC18_Zigbee_R&D_by_Lab411\DemoPIC18Router\Router.c
                 config2L   0x300002    program     extern C:\Users\TienDat\Desktop\ActorHome\PIC18_Zigbee_v2\PIC18_Zigbee_R&D_by_Lab411\DemoPIC18Router\Router.c
                 config2H   0x300003    program     extern C:\Users\TienDat\Desktop\ActorHome\PIC18_Zigbee_v2\PIC18_Zigbee_R&D_by_Lab411\DemoPIC18Router\Router.c
                 config3H   0x300005    program     extern C:\Users\TienDat\Desktop\ActorHome\PIC18_Zigbee_v2\PIC18_Zigbee_R&D_by_Lab411\DemoPIC18Router\Router.c
                 config4L   0x300006    program     extern C:\Users\TienDat\Desktop\ActorHome\PIC18_Zigbee_v2\PIC18_Zigbee_R&D_by_Lab411\DemoPIC18Router\Router.c
                     SIGN   0x000000       data     extern D:\3.43\pic18-lt\cxx-framework\src\traditional\math\cmath18.asm
                __FPFLAGS   0x000001       data     extern D:\3.43\pic18-lt\cxx-framework\src\traditional\math\cmath18.asm
            __FPFLAGSbits   0x000001       data     extern D:\3.43\pic18-lt\cxx-framework\src\traditional\math\cmath18.asm
                  __REMB3   0x000002       data     extern D:\3.43\pic18-lt\cxx-framework\src\traditional\math\aarg.asm
                 __AARGB7   0x000002       data     extern D:\3.43\pic18-lt\cxx-framework\src\traditional\math\aarg.asm
                 __AARGB6   0x000003       data     extern D:\3.43\pic18-lt\cxx-framework\src\traditional\math\aarg.asm
                  __REMB2   0x000003       data     extern D:\3.43\pic18-lt\cxx-framework\src\traditional\math\aarg.asm
                 __AARGB5   0x000004       data     extern D:\3.43\pic18-lt\cxx-framework\src\traditional\math\aarg.asm
                  __REMB1   0x000004       data     extern D:\3.43\pic18-lt\cxx-framework\src\traditional\math\aarg.asm
                 __AARGB4   0x000005       data     extern D:\3.43\pic18-lt\cxx-framework\src\traditional\math\aarg.asm
                  __REMB0   0x000005       data     extern D:\3.43\pic18-lt\cxx-framework\src\traditional\math\aarg.asm
                 __AARGB3   0x000006       data     extern D:\3.43\pic18-lt\cxx-framework\src\traditional\math\aarg.asm
                 __AARGB2   0x000007       data     extern D:\3.43\pic18-lt\cxx-framework\src\traditional\math\aarg.asm
                 __AARGB1   0x000008       data     extern D:\3.43\pic18-lt\cxx-framework\src\traditional\math\aarg.asm
                 __AARGB0   0x000009       data     extern D:\3.43\pic18-lt\cxx-framework\src\traditional\math\aarg.asm
                   __AEXP   0x00000a       data     extern D:\3.43\pic18-lt\cxx-framework\src\traditional\math\aarg.asm
                 __BARGB3   0x00000b       data     extern D:\3.43\pic18-lt\cxx-framework\src\traditional\math\barg.asm
                 __BARGB2   0x00000c       data     extern D:\3.43\pic18-lt\cxx-framework\src\traditional\math\barg.asm
                 __BARGB1   0x00000d       data     extern D:\3.43\pic18-lt\cxx-framework\src\traditional\math\barg.asm
                 __BARGB0   0x00000e       data     extern D:\3.43\pic18-lt\cxx-framework\src\traditional\math\barg.asm
                   __BEXP   0x00000f       data     extern D:\3.43\pic18-lt\cxx-framework\src\traditional\math\barg.asm
                 __TEMPB3   0x000010       data     extern D:\3.43\pic18-lt\cxx-framework\src\traditional\math\temparg.asm
                 __TEMPB2   0x000011       data     extern D:\3.43\pic18-lt\cxx-framework\src\traditional\math\temparg.asm
                 __TEMPB1   0x000012       data     extern D:\3.43\pic18-lt\cxx-framework\src\traditional\math\temparg.asm
                 __TEMPB0   0x000013       data     extern D:\3.43\pic18-lt\cxx-framework\src\traditional\math\temparg.asm
                   __TEMP   0x000013       data     extern D:\3.43\pic18-lt\cxx-framework\src\traditional\math\temparg.asm
                  __tmp_0   0x000014       data     static C:\Users\TienDat\Desktop\ActorHome\PIC18_Zigbee_v2\PIC18_Zigbee_R&D_by_Lab411\Microchip\ZigBeeStack\zPHY_MRF24J40.c
                  __tmp_0   0x000014       data     static C:\Users\TienDat\Desktop\ActorHome\PIC18_Zigbee_v2\PIC18_Zigbee_R&D_by_Lab411\Microchip\ZigBeeStack\zZDO.c
                  __tmp_0   0x000014       data     static C:\Users\TienDat\Desktop\ActorHome\PIC18_Zigbee_v2\PIC18_Zigbee_R&D_by_Lab411\Microchip\ZigBeeStack\zNWK.c
                  __tmp_0   0x000014       data     static C:\Users\TienDat\Desktop\ActorHome\PIC18_Zigbee_v2\PIC18_Zigbee_R&D_by_Lab411\DemoPIC18Router\Router.c
                  __tmp_0   0x000014       data     static C:\Users\TienDat\Desktop\ActorHome\PIC18_Zigbee_v2\PIC18_Zigbee_R&D_by_Lab411\Microchip\Common\SHT1x.c
                  __tmp_0   0x000014       data     static C:\Users\TienDat\Desktop\ActorHome\PIC18_Zigbee_v2\PIC18_Zigbee_R&D_by_Lab411\Microchip\ZigBeeStack\zAPS.c
                  __tmp_0   0x000014       data     static C:\Users\TienDat\Desktop\ActorHome\PIC18_Zigbee_v2\PIC18_Zigbee_R&D_by_Lab411\Microchip\ZigBeeStack\zMAC_MRF24J40.c
                  __tmp_0   0x000014       data     static C:\Users\TienDat\Desktop\ActorHome\PIC18_Zigbee_v2\PIC18_Zigbee_R&D_by_Lab411\Microchip\ZigBeeStack\zNVM.c
                  __tmp_0   0x000014       data     static C:\Users\TienDat\Desktop\ActorHome\PIC18_Zigbee_v2\PIC18_Zigbee_R&D_by_Lab411\Microchip\Common\Console.c
                  __tmp_0   0x000014       data     static C:\Users\TienDat\Desktop\ActorHome\PIC18_Zigbee_v2\PIC18_Zigbee_R&D_by_Lab411\Microchip\Common\sralloc.c
                  __tmp_1   0x000024       data     static C:\Users\TienDat\Desktop\ActorHome\PIC18_Zigbee_v2\PIC18_Zigbee_R&D_by_Lab411\Microchip\ZigBeeStack\zPHY_MRF24J40.c
       macIndirectBuffers   0x000060       data     extern C:\Users\TienDat\Desktop\ActorHome\PIC18_Zigbee_v2\PIC18_Zigbee_R&D_by_Lab411\Microchip\ZigBeeStack\zMAC_MRF24J40.c
             Energy_Level   0x000090       data     extern C:\Users\TienDat\Desktop\ActorHome\PIC18_Zigbee_v2\PIC18_Zigbee_R&D_by_Lab411\DemoPIC18Router\Router.c
                 humidity   0x000092       data     extern C:\Users\TienDat\Desktop\ActorHome\PIC18_Zigbee_v2\PIC18_Zigbee_R&D_by_Lab411\DemoPIC18Router\Router.c
              temperature   0x000094       data     extern C:\Users\TienDat\Desktop\ActorHome\PIC18_Zigbee_v2\PIC18_Zigbee_R&D_by_Lab411\DemoPIC18Router\Router.c
                WSANFlags   0x000096       data     static C:\Users\TienDat\Desktop\ActorHome\PIC18_Zigbee_v2\PIC18_Zigbee_R&D_by_Lab411\DemoPIC18Router\Router.c
 currentNetworkDescriptor   0x000098       data     extern C:\Users\TienDat\Desktop\ActorHome\PIC18_Zigbee_v2\PIC18_Zigbee_R&D_by_Lab411\DemoPIC18Router\Router.c
        NetworkDescriptor   0x00009a       data     extern C:\Users\TienDat\Desktop\ActorHome\PIC18_Zigbee_v2\PIC18_Zigbee_R&D_by_Lab411\DemoPIC18Router\Router.c
              orphanTries   0x00009c       data     extern C:\Users\TienDat\Desktop\ActorHome\PIC18_Zigbee_v2\PIC18_Zigbee_R&D_by_Lab411\DemoPIC18Router\Router.c
                        i   0x00009d       data     extern C:\Users\TienDat\Desktop\ActorHome\PIC18_Zigbee_v2\PIC18_Zigbee_R&D_by_Lab411\DemoPIC18Router\Router.c
                     prom   0x00009e       data     static D:\3.43\pic18-lt\cxx-framework\src\traditional\startup\c018i.c
                curr_byte   0x0000a1       data     static D:\3.43\pic18-lt\cxx-framework\src\traditional\startup\c018i.c
               curr_entry   0x0000a3       data     static D:\3.43\pic18-lt\cxx-framework\src\traditional\startup\c018i.c
                 data_ptr   0x0000a5       data     static D:\3.43\pic18-lt\cxx-framework\src\traditional\startup\c018i.c
         currentPrimitive   0x0000a8       data     extern C:\Users\TienDat\Desktop\ActorHome\PIC18_Zigbee_v2\PIC18_Zigbee_R&D_by_Lab411\DemoPIC18Router\Router.c
                AllowJoin   0x0000a9       data     extern C:\Users\TienDat\Desktop\ActorHome\PIC18_Zigbee_v2\PIC18_Zigbee_R&D_by_Lab411\DemoPIC18Router\Router.c
            _uDynamicHeap   0x000100       data     extern C:\Users\TienDat\Desktop\ActorHome\PIC18_Zigbee_v2\PIC18_Zigbee_R&D_by_Lab411\Microchip\Common\sralloc.c
                 RxBuffer   0x000800       data     extern C:\Users\TienDat\Desktop\ActorHome\PIC18_Zigbee_v2\PIC18_Zigbee_R&D_by_Lab411\Microchip\ZigBeeStack\ZigbeeTasks.c
         rejoinIndication   0x000900       data     extern C:\Users\TienDat\Desktop\ActorHome\PIC18_Zigbee_v2\PIC18_Zigbee_R&D_by_Lab411\Microchip\ZigBeeStack\zNWK.c
   nwkConfirmationHandles   0x000918       data     extern C:\Users\TienDat\Desktop\ActorHome\PIC18_Zigbee_v2\PIC18_Zigbee_R&D_by_Lab411\Microchip\ZigBeeStack\zNWK.c
                      NIB   0x000974       data     extern C:\Users\TienDat\Desktop\ActorHome\PIC18_Zigbee_v2\PIC18_Zigbee_R&D_by_Lab411\Microchip\ZigBeeStack\zNWK.c
         nwkExtendedPANID   0x000975       data     extern C:\Users\TienDat\Desktop\ActorHome\PIC18_Zigbee_v2\PIC18_Zigbee_R&D_by_Lab411\Microchip\ZigBeeStack\zNWK.c
                nwkStatus   0x00097d       data     extern C:\Users\TienDat\Desktop\ActorHome\PIC18_Zigbee_v2\PIC18_Zigbee_R&D_by_Lab411\Microchip\ZigBeeStack\zNWK.c
             routeDstInfo   0x0009d5       data     extern C:\Users\TienDat\Desktop\ActorHome\PIC18_Zigbee_v2\PIC18_Zigbee_R&D_by_Lab411\Microchip\ZigBeeStack\zNWK.c
routeDiscoveryTablePointer   0x0009e4       data     extern C:\Users\TienDat\Desktop\ActorHome\PIC18_Zigbee_v2\PIC18_Zigbee_R&D_by_Lab411\Microchip\ZigBeeStack\zNWK.c
        nwkIEEEDstAddress   0x0009ea       data     static C:\Users\TienDat\Desktop\ActorHome\PIC18_Zigbee_v2\PIC18_Zigbee_R&D_by_Lab411\Microchip\ZigBeeStack\zNWK.c
        nwkIEEESrcAddress   0x0009f2       data     static C:\Users\TienDat\Desktop\ActorHome\PIC18_Zigbee_v2\PIC18_Zigbee_R&D_by_Lab411\Microchip\ZigBeeStack\zNWK.c
             oldShortAddr   0x0009fa       data     static C:\Users\TienDat\Desktop\ActorHome\PIC18_Zigbee_v2\PIC18_Zigbee_R&D_by_Lab411\Microchip\ZigBeeStack\zNWK.c
       doingRejoinCommand   0x0009fc       data     extern C:\Users\TienDat\Desktop\ActorHome\PIC18_Zigbee_v2\PIC18_Zigbee_R&D_by_Lab411\Microchip\ZigBeeStack\zNWK.c
            updatepayload   0x0009fd       data     extern C:\Users\TienDat\Desktop\ActorHome\PIC18_Zigbee_v2\PIC18_Zigbee_R&D_by_Lab411\Microchip\ZigBeeStack\zNWK.c
        SendingEDBRequest   0x0009fe       data     extern C:\Users\TienDat\Desktop\ActorHome\PIC18_Zigbee_v2\PIC18_Zigbee_R&D_by_Lab411\Microchip\ZigBeeStack\zAPS.c
          SentBindRequest   0x0009ff       data     extern C:\Users\TienDat\Desktop\ActorHome\PIC18_Zigbee_v2\PIC18_Zigbee_R&D_by_Lab411\Microchip\ZigBeeStack\zAPS.c
                 TxBuffer   0x000a00       data     extern C:\Users\TienDat\Desktop\ActorHome\PIC18_Zigbee_v2\PIC18_Zigbee_R&D_by_Lab411\Microchip\ZigBeeStack\ZigbeeTasks.c
          CurrentRxPacket   0x000a80       data     extern C:\Users\TienDat\Desktop\ActorHome\PIC18_Zigbee_v2\PIC18_Zigbee_R&D_by_Lab411\Microchip\ZigBeeStack\ZigbeeTasks.c
                   params   0x000a82       data     extern C:\Users\TienDat\Desktop\ActorHome\PIC18_Zigbee_v2\PIC18_Zigbee_R&D_by_Lab411\Microchip\ZigBeeStack\ZigbeeTasks.c
                   RxRead   0x000aa4       data     extern C:\Users\TienDat\Desktop\ActorHome\PIC18_Zigbee_v2\PIC18_Zigbee_R&D_by_Lab411\Microchip\ZigBeeStack\ZigbeeTasks.c
                  RxWrite   0x000aa5       data     extern C:\Users\TienDat\Desktop\ActorHome\PIC18_Zigbee_v2\PIC18_Zigbee_R&D_by_Lab411\Microchip\ZigBeeStack\ZigbeeTasks.c
                   TxData   0x000aa6       data     extern C:\Users\TienDat\Desktop\ActorHome\PIC18_Zigbee_v2\PIC18_Zigbee_R&D_by_Lab411\Microchip\ZigBeeStack\ZigbeeTasks.c
                 TxHeader   0x000aa7       data     extern C:\Users\TienDat\Desktop\ActorHome\PIC18_Zigbee_v2\PIC18_Zigbee_R&D_by_Lab411\Microchip\ZigBeeStack\ZigbeeTasks.c
             ZigBeeStatus   0x000aa8       data     extern C:\Users\TienDat\Desktop\ActorHome\PIC18_Zigbee_v2\PIC18_Zigbee_R&D_by_Lab411\Microchip\ZigBeeStack\ZigbeeTasks.c
     associationReqParams   0x000aaa       data     extern C:\Users\TienDat\Desktop\ActorHome\PIC18_Zigbee_v2\PIC18_Zigbee_R&D_by_Lab411\Microchip\ZigBeeStack\zMAC_MRF24J40.c
            currentPacket   0x000aad       data     extern C:\Users\TienDat\Desktop\ActorHome\PIC18_Zigbee_v2\PIC18_Zigbee_R&D_by_Lab411\Microchip\ZigBeeStack\zMAC_MRF24J40.c
                   macPIB   0x000abd       data     extern C:\Users\TienDat\Desktop\ActorHome\PIC18_Zigbee_v2\PIC18_Zigbee_R&D_by_Lab411\Microchip\ZigBeeStack\zMAC_MRF24J40.c
                macStatus   0x000ad7       data     extern C:\Users\TienDat\Desktop\ActorHome\PIC18_Zigbee_v2\PIC18_Zigbee_R&D_by_Lab411\Microchip\ZigBeeStack\zMAC_MRF24J40.c
          macTasksPending   0x000ad8       data     extern C:\Users\TienDat\Desktop\ActorHome\PIC18_Zigbee_v2\PIC18_Zigbee_R&D_by_Lab411\Microchip\ZigBeeStack\zMAC_MRF24J40.c
               scanParams   0x000ad9       data     extern C:\Users\TienDat\Desktop\ActorHome\PIC18_Zigbee_v2\PIC18_Zigbee_R&D_by_Lab411\Microchip\ZigBeeStack\zMAC_MRF24J40.c
          tempLongAddress   0x000af5       data     extern C:\Users\TienDat\Desktop\ActorHome\PIC18_Zigbee_v2\PIC18_Zigbee_R&D_by_Lab411\Microchip\ZigBeeStack\zMAC_MRF24J40.c
          timerExtension1   0x000afd       data     extern C:\Users\TienDat\Desktop\ActorHome\PIC18_Zigbee_v2\PIC18_Zigbee_R&D_by_Lab411\Microchip\ZigBeeStack\SymbolTime.c
          timerExtension2   0x000afe       data     extern C:\Users\TienDat\Desktop\ActorHome\PIC18_Zigbee_v2\PIC18_Zigbee_R&D_by_Lab411\Microchip\ZigBeeStack\SymbolTime.c
        apsDuplicateTable   0x000c00       data     extern C:\Users\TienDat\Desktop\ActorHome\PIC18_Zigbee_v2\PIC18_Zigbee_R&D_by_Lab411\Microchip\ZigBeeStack\zAPS.c
      pBindInProgressInfo   0x000c78       data     extern C:\Users\TienDat\Desktop\ActorHome\PIC18_Zigbee_v2\PIC18_Zigbee_R&D_by_Lab411\Microchip\ZigBeeStack\zZDO.c
     pFirstEndBindRequest   0x000c7a       data     static C:\Users\TienDat\Desktop\ActorHome\PIC18_Zigbee_v2\PIC18_Zigbee_R&D_by_Lab411\Microchip\ZigBeeStack\zZDO.c
    pSecondEndBindRequest   0x000c7c       data     static C:\Users\TienDat\Desktop\ActorHome\PIC18_Zigbee_v2\PIC18_Zigbee_R&D_by_Lab411\Microchip\ZigBeeStack\zZDO.c
           sequenceNumber   0x000c7e       data     extern C:\Users\TienDat\Desktop\ActorHome\PIC18_Zigbee_v2\PIC18_Zigbee_R&D_by_Lab411\Microchip\ZigBeeStack\zZDO.c
                zdoStatus   0x000c7f       data     extern C:\Users\TienDat\Desktop\ActorHome\PIC18_Zigbee_v2\PIC18_Zigbee_R&D_by_Lab411\Microchip\ZigBeeStack\zZDO.c
               ZDOCounter   0x000c80       data     extern C:\Users\TienDat\Desktop\ActorHome\PIC18_Zigbee_v2\PIC18_Zigbee_R&D_by_Lab411\Microchip\ZigBeeStack\zZDO.c
                    dAddr   0x000c81       data     extern C:\Users\TienDat\Desktop\ActorHome\PIC18_Zigbee_v2\PIC18_Zigbee_R&D_by_Lab411\Microchip\ZigBeeStack\zZDO.c
         simpleDescriptor   0x000c83       data     extern C:\Users\TienDat\Desktop\ActorHome\PIC18_Zigbee_v2\PIC18_Zigbee_R&D_by_Lab411\Microchip\ZigBeeStack\zZDO.c
            matchCluster1   0x000cb3       data     extern C:\Users\TienDat\Desktop\ActorHome\PIC18_Zigbee_v2\PIC18_Zigbee_R&D_by_Lab411\Microchip\ZigBeeStack\zZDO.c
            matchCluster2   0x000cb5       data     extern C:\Users\TienDat\Desktop\ActorHome\PIC18_Zigbee_v2\PIC18_Zigbee_R&D_by_Lab411\Microchip\ZigBeeStack\zZDO.c
     currentBindingRecord   0x000cb7       data     extern C:\Users\TienDat\Desktop\ActorHome\PIC18_Zigbee_v2\PIC18_Zigbee_R&D_by_Lab411\Microchip\ZigBeeStack\zNVM.c
    pCurrentBindingRecord   0x000cbd       data     extern C:\Users\TienDat\Desktop\ActorHome\PIC18_Zigbee_v2\PIC18_Zigbee_R&D_by_Lab411\Microchip\ZigBeeStack\zNVM.c
pCurrentGroupAddressRecord   0x000cbf       data     extern C:\Users\TienDat\Desktop\ActorHome\PIC18_Zigbee_v2\PIC18_Zigbee_R&D_by_Lab411\Microchip\ZigBeeStack\zNVM.c
    currentNeighborRecord   0x000cc1       data     extern C:\Users\TienDat\Desktop\ActorHome\PIC18_Zigbee_v2\PIC18_Zigbee_R&D_by_Lab411\Microchip\ZigBeeStack\zNVM.c
 currentNeighborTableInfo   0x000cd2       data     extern C:\Users\TienDat\Desktop\ActorHome\PIC18_Zigbee_v2\PIC18_Zigbee_R&D_by_Lab411\Microchip\ZigBeeStack\zNVM.c
   pCurrentNeighborRecord   0x000ce0       data     extern C:\Users\TienDat\Desktop\ActorHome\PIC18_Zigbee_v2\PIC18_Zigbee_R&D_by_Lab411\Microchip\ZigBeeStack\zNVM.c
      currentRoutingEntry   0x000ce2       data     extern C:\Users\TienDat\Desktop\ActorHome\PIC18_Zigbee_v2\PIC18_Zigbee_R&D_by_Lab411\Microchip\ZigBeeStack\zNVM.c
     pCurrentRoutingEntry   0x000ce7       data     extern C:\Users\TienDat\Desktop\ActorHome\PIC18_Zigbee_v2\PIC18_Zigbee_R&D_by_Lab411\Microchip\ZigBeeStack\zNVM.c
        currentAPSAddress   0x000ce9       data     extern C:\Users\TienDat\Desktop\ActorHome\PIC18_Zigbee_v2\PIC18_Zigbee_R&D_by_Lab411\Microchip\ZigBeeStack\zNVM.c
                IntStatus   0x000cf3       data     extern C:\Users\TienDat\Desktop\ActorHome\PIC18_Zigbee_v2\PIC18_Zigbee_R&D_by_Lab411\Microchip\ZigBeeStack\zPHY_MRF24J40.c
   pendingAckFrameControl   0x000cf4       data     extern C:\Users\TienDat\Desktop\ActorHome\PIC18_Zigbee_v2\PIC18_Zigbee_R&D_by_Lab411\Microchip\ZigBeeStack\zPHY_MRF24J40.c
                 phyError   0x000cf6       data     extern C:\Users\TienDat\Desktop\ActorHome\PIC18_Zigbee_v2\PIC18_Zigbee_R&D_by_Lab411\Microchip\ZigBeeStack\zPHY_MRF24J40.c
                   phyPIB   0x000cf7       data     extern C:\Users\TienDat\Desktop\ActorHome\PIC18_Zigbee_v2\PIC18_Zigbee_R&D_by_Lab411\Microchip\ZigBeeStack\zPHY_MRF24J40.c
          PHYTasksPending   0x000cfa       data     extern C:\Users\TienDat\Desktop\ActorHome\PIC18_Zigbee_v2\PIC18_Zigbee_R&D_by_Lab411\Microchip\ZigBeeStack\zPHY_MRF24J40.c
                   RxData   0x000cfb       data     extern C:\Users\TienDat\Desktop\ActorHome\PIC18_Zigbee_v2\PIC18_Zigbee_R&D_by_Lab411\Microchip\ZigBeeStack\zPHY_MRF24J40.c
          TRXCurrentState   0x000cfc       data     extern C:\Users\TienDat\Desktop\ActorHome\PIC18_Zigbee_v2\PIC18_Zigbee_R&D_by_Lab411\Microchip\ZigBeeStack\zPHY_MRF24J40.c
                   TxStat   0x000cfd       data     extern C:\Users\TienDat\Desktop\ActorHome\PIC18_Zigbee_v2\PIC18_Zigbee_R&D_by_Lab411\Microchip\ZigBeeStack\zPHY_MRF24J40.c
                savedBits   0x000cfe       data     extern C:\Users\TienDat\Desktop\ActorHome\PIC18_Zigbee_v2\PIC18_Zigbee_R&D_by_Lab411\Microchip\ZigBeeStack\zPHY_MRF24J40.c
               APSCounter   0x000f00       data     extern C:\Users\TienDat\Desktop\ActorHome\PIC18_Zigbee_v2\PIC18_Zigbee_R&D_by_Lab411\Microchip\ZigBeeStack\zAPS.c
           apsChannelMask   0x000f01       data     extern C:\Users\TienDat\Desktop\ActorHome\PIC18_Zigbee_v2\PIC18_Zigbee_R&D_by_Lab411\Microchip\ZigBeeStack\zAPS.c
                apsStatus   0x000f05       data     extern C:\Users\TienDat\Desktop\ActorHome\PIC18_Zigbee_v2\PIC18_Zigbee_R&D_by_Lab411\Microchip\ZigBeeStack\zAPS.c
   apsConfirmationHandles   0x000f32       data     extern C:\Users\TienDat\Desktop\ActorHome\PIC18_Zigbee_v2\PIC18_Zigbee_R&D_by_Lab411\Microchip\ZigBeeStack\zAPS.c
currentGroupAddressRecord   0x000f54       data     extern C:\Users\TienDat\Desktop\ActorHome\PIC18_Zigbee_v2\PIC18_Zigbee_R&D_by_Lab411\Microchip\ZigBeeStack\zAPS.c
              tblptru_sav   0x000f5e       data     static D:\3.43\pic18-lt\cxx-framework\src\traditional\stdclib\mcmpp2r.asm
              tblptru_sav   0x000f5f       data     static D:\3.43\pic18-lt\cxx-framework\src\traditional\stdclib\mcpyp2r.asm
                   SSPMSK   0x000f77       data     extern D:\3.43\pic18-lt\cxx-framework\src\traditional\proc\p18f26k20.asm
               SSPMSKbits   0x000f77       data     extern D:\3.43\pic18-lt\cxx-framework\src\traditional\proc\p18f26k20.asm
               SLRCONbits   0x000f78       data     extern D:\3.43\pic18-lt\cxx-framework\src\traditional\proc\p18f26k20.asm
                   SLRCON   0x000f78       data     extern D:\3.43\pic18-lt\cxx-framework\src\traditional\proc\p18f26k20.asm
              CM2CON1bits   0x000f79       data     extern D:\3.43\pic18-lt\cxx-framework\src\traditional\proc\p18f26k20.asm
                  CM2CON1   0x000f79       data     extern D:\3.43\pic18-lt\cxx-framework\src\traditional\proc\p18f26k20.asm
                  CM2CON0   0x000f7a       data     extern D:\3.43\pic18-lt\cxx-framework\src\traditional\proc\p18f26k20.asm
              CM2CON0bits   0x000f7a       data     extern D:\3.43\pic18-lt\cxx-framework\src\traditional\proc\p18f26k20.asm
                  CM1CON0   0x000f7b       data     extern D:\3.43\pic18-lt\cxx-framework\src\traditional\proc\p18f26k20.asm
              CM1CON0bits   0x000f7b       data     extern D:\3.43\pic18-lt\cxx-framework\src\traditional\proc\p18f26k20.asm
                 WPUBbits   0x000f7c       data     extern D:\3.43\pic18-lt\cxx-framework\src\traditional\proc\p18f26k20.asm
                     WPUB   0x000f7c       data     extern D:\3.43\pic18-lt\cxx-framework\src\traditional\proc\p18f26k20.asm
                 IOCBbits   0x000f7d       data     extern D:\3.43\pic18-lt\cxx-framework\src\traditional\proc\p18f26k20.asm
                     IOCB   0x000f7d       data     extern D:\3.43\pic18-lt\cxx-framework\src\traditional\proc\p18f26k20.asm
                    ANSEL   0x000f7e       data     extern D:\3.43\pic18-lt\cxx-framework\src\traditional\proc\p18f26k20.asm
                ANSELbits   0x000f7e       data     extern D:\3.43\pic18-lt\cxx-framework\src\traditional\proc\p18f26k20.asm
               ANSELHbits   0x000f7f       data     extern D:\3.43\pic18-lt\cxx-framework\src\traditional\proc\p18f26k20.asm
                   ANSELH   0x000f7f       data     extern D:\3.43\pic18-lt\cxx-framework\src\traditional\proc\p18f26k20.asm
                PORTAbits   0x000f80       data     extern D:\3.43\pic18-lt\cxx-framework\src\traditional\proc\p18f26k20.asm
                    PORTA   0x000f80       data     extern D:\3.43\pic18-lt\cxx-framework\src\traditional\proc\p18f26k20.asm
                PORTBbits   0x000f81       data     extern D:\3.43\pic18-lt\cxx-framework\src\traditional\proc\p18f26k20.asm
                    PORTB   0x000f81       data     extern D:\3.43\pic18-lt\cxx-framework\src\traditional\proc\p18f26k20.asm
                    PORTC   0x000f82       data     extern D:\3.43\pic18-lt\cxx-framework\src\traditional\proc\p18f26k20.asm
                PORTCbits   0x000f82       data     extern D:\3.43\pic18-lt\cxx-framework\src\traditional\proc\p18f26k20.asm
                    PORTE   0x000f84       data     extern D:\3.43\pic18-lt\cxx-framework\src\traditional\proc\p18f26k20.asm
                PORTEbits   0x000f84       data     extern D:\3.43\pic18-lt\cxx-framework\src\traditional\proc\p18f26k20.asm
                     LATA   0x000f89       data     extern D:\3.43\pic18-lt\cxx-framework\src\traditional\proc\p18f26k20.asm
                 LATAbits   0x000f89       data     extern D:\3.43\pic18-lt\cxx-framework\src\traditional\proc\p18f26k20.asm
                     LATB   0x000f8a       data     extern D:\3.43\pic18-lt\cxx-framework\src\traditional\proc\p18f26k20.asm
                 LATBbits   0x000f8a       data     extern D:\3.43\pic18-lt\cxx-framework\src\traditional\proc\p18f26k20.asm
                 LATCbits   0x000f8b       data     extern D:\3.43\pic18-lt\cxx-framework\src\traditional\proc\p18f26k20.asm
                     LATC   0x000f8b       data     extern D:\3.43\pic18-lt\cxx-framework\src\traditional\proc\p18f26k20.asm
                    TRISA   0x000f92       data     extern D:\3.43\pic18-lt\cxx-framework\src\traditional\proc\p18f26k20.asm
                     DDRA   0x000f92       data     extern D:\3.43\pic18-lt\cxx-framework\src\traditional\proc\p18f26k20.asm
                 DDRAbits   0x000f92       data     extern D:\3.43\pic18-lt\cxx-framework\src\traditional\proc\p18f26k20.asm
                TRISAbits   0x000f92       data     extern D:\3.43\pic18-lt\cxx-framework\src\traditional\proc\p18f26k20.asm
                     DDRB   0x000f93       data     extern D:\3.43\pic18-lt\cxx-framework\src\traditional\proc\p18f26k20.asm
                 DDRBbits   0x000f93       data     extern D:\3.43\pic18-lt\cxx-framework\src\traditional\proc\p18f26k20.asm
                    TRISB   0x000f93       data     extern D:\3.43\pic18-lt\cxx-framework\src\traditional\proc\p18f26k20.asm
                TRISBbits   0x000f93       data     extern D:\3.43\pic18-lt\cxx-framework\src\traditional\proc\p18f26k20.asm
                TRISCbits   0x000f94       data     extern D:\3.43\pic18-lt\cxx-framework\src\traditional\proc\p18f26k20.asm
                    TRISC   0x000f94       data     extern D:\3.43\pic18-lt\cxx-framework\src\traditional\proc\p18f26k20.asm
                 DDRCbits   0x000f94       data     extern D:\3.43\pic18-lt\cxx-framework\src\traditional\proc\p18f26k20.asm
                     DDRC   0x000f94       data     extern D:\3.43\pic18-lt\cxx-framework\src\traditional\proc\p18f26k20.asm
              OSCTUNEbits   0x000f9b       data     extern D:\3.43\pic18-lt\cxx-framework\src\traditional\proc\p18f26k20.asm
                  OSCTUNE   0x000f9b       data     extern D:\3.43\pic18-lt\cxx-framework\src\traditional\proc\p18f26k20.asm
                     PIE1   0x000f9d       data     extern D:\3.43\pic18-lt\cxx-framework\src\traditional\proc\p18f26k20.asm
                 PIE1bits   0x000f9d       data     extern D:\3.43\pic18-lt\cxx-framework\src\traditional\proc\p18f26k20.asm
                 PIR1bits   0x000f9e       data     extern D:\3.43\pic18-lt\cxx-framework\src\traditional\proc\p18f26k20.asm
                     PIR1   0x000f9e       data     extern D:\3.43\pic18-lt\cxx-framework\src\traditional\proc\p18f26k20.asm
                     IPR1   0x000f9f       data     extern D:\3.43\pic18-lt\cxx-framework\src\traditional\proc\p18f26k20.asm
                 IPR1bits   0x000f9f       data     extern D:\3.43\pic18-lt\cxx-framework\src\traditional\proc\p18f26k20.asm
                     PIE2   0x000fa0       data     extern D:\3.43\pic18-lt\cxx-framework\src\traditional\proc\p18f26k20.asm
                 PIE2bits   0x000fa0       data     extern D:\3.43\pic18-lt\cxx-framework\src\traditional\proc\p18f26k20.asm
                 PIR2bits   0x000fa1       data     extern D:\3.43\pic18-lt\cxx-framework\src\traditional\proc\p18f26k20.asm
                     PIR2   0x000fa1       data     extern D:\3.43\pic18-lt\cxx-framework\src\traditional\proc\p18f26k20.asm
                 IPR2bits   0x000fa2       data     extern D:\3.43\pic18-lt\cxx-framework\src\traditional\proc\p18f26k20.asm
                     IPR2   0x000fa2       data     extern D:\3.43\pic18-lt\cxx-framework\src\traditional\proc\p18f26k20.asm
               EECON1bits   0x000fa6       data     extern D:\3.43\pic18-lt\cxx-framework\src\traditional\proc\p18f26k20.asm
                   EECON1   0x000fa6       data     extern D:\3.43\pic18-lt\cxx-framework\src\traditional\proc\p18f26k20.asm
                   EECON2   0x000fa7       data     extern D:\3.43\pic18-lt\cxx-framework\src\traditional\proc\p18f26k20.asm
                   EEDATA   0x000fa8       data     extern D:\3.43\pic18-lt\cxx-framework\src\traditional\proc\p18f26k20.asm
                    EEADR   0x000fa9       data     extern D:\3.43\pic18-lt\cxx-framework\src\traditional\proc\p18f26k20.asm
                EEADRbits   0x000fa9       data     extern D:\3.43\pic18-lt\cxx-framework\src\traditional\proc\p18f26k20.asm
                   EEADRH   0x000faa       data     extern D:\3.43\pic18-lt\cxx-framework\src\traditional\proc\p18f26k20.asm
               EEADRHbits   0x000faa       data     extern D:\3.43\pic18-lt\cxx-framework\src\traditional\proc\p18f26k20.asm
                    RCSTA   0x000fab       data     extern D:\3.43\pic18-lt\cxx-framework\src\traditional\proc\p18f26k20.asm
                RCSTAbits   0x000fab       data     extern D:\3.43\pic18-lt\cxx-framework\src\traditional\proc\p18f26k20.asm
                TXSTAbits   0x000fac       data     extern D:\3.43\pic18-lt\cxx-framework\src\traditional\proc\p18f26k20.asm
                    TXSTA   0x000fac       data     extern D:\3.43\pic18-lt\cxx-framework\src\traditional\proc\p18f26k20.asm
                    TXREG   0x000fad       data     extern D:\3.43\pic18-lt\cxx-framework\src\traditional\proc\p18f26k20.asm
                    RCREG   0x000fae       data     extern D:\3.43\pic18-lt\cxx-framework\src\traditional\proc\p18f26k20.asm
                    SPBRG   0x000faf       data     extern D:\3.43\pic18-lt\cxx-framework\src\traditional\proc\p18f26k20.asm
                   SPBRGH   0x000fb0       data     extern D:\3.43\pic18-lt\cxx-framework\src\traditional\proc\p18f26k20.asm
                    T3CON   0x000fb1       data     extern D:\3.43\pic18-lt\cxx-framework\src\traditional\proc\p18f26k20.asm
                T3CONbits   0x000fb1       data     extern D:\3.43\pic18-lt\cxx-framework\src\traditional\proc\p18f26k20.asm
                    TMR3L   0x000fb2       data     extern D:\3.43\pic18-lt\cxx-framework\src\traditional\proc\p18f26k20.asm
                    TMR3H   0x000fb3       data     extern D:\3.43\pic18-lt\cxx-framework\src\traditional\proc\p18f26k20.asm
              CVRCON2bits   0x000fb4       data     extern D:\3.43\pic18-lt\cxx-framework\src\traditional\proc\p18f26k20.asm
                  CVRCON2   0x000fb4       data     extern D:\3.43\pic18-lt\cxx-framework\src\traditional\proc\p18f26k20.asm
               CVRCONbits   0x000fb5       data     extern D:\3.43\pic18-lt\cxx-framework\src\traditional\proc\p18f26k20.asm
                   CVRCON   0x000fb5       data     extern D:\3.43\pic18-lt\cxx-framework\src\traditional\proc\p18f26k20.asm
              ECCP1ASbits   0x000fb6       data     extern D:\3.43\pic18-lt\cxx-framework\src\traditional\proc\p18f26k20.asm
                  ECCP1AS   0x000fb6       data     extern D:\3.43\pic18-lt\cxx-framework\src\traditional\proc\p18f26k20.asm
                  PWM1CON   0x000fb7       data     extern D:\3.43\pic18-lt\cxx-framework\src\traditional\proc\p18f26k20.asm
              PWM1CONbits   0x000fb7       data     extern D:\3.43\pic18-lt\cxx-framework\src\traditional\proc\p18f26k20.asm
                  BAUDCON   0x000fb8       data     extern D:\3.43\pic18-lt\cxx-framework\src\traditional\proc\p18f26k20.asm
              BAUDCONbits   0x000fb8       data     extern D:\3.43\pic18-lt\cxx-framework\src\traditional\proc\p18f26k20.asm
                  BAUDCTL   0x000fb8       data     extern D:\3.43\pic18-lt\cxx-framework\src\traditional\proc\p18f26k20.asm
              BAUDCTLbits   0x000fb8       data     extern D:\3.43\pic18-lt\cxx-framework\src\traditional\proc\p18f26k20.asm
              PSTRCONbits   0x000fb9       data     extern D:\3.43\pic18-lt\cxx-framework\src\traditional\proc\p18f26k20.asm
                  PSTRCON   0x000fb9       data     extern D:\3.43\pic18-lt\cxx-framework\src\traditional\proc\p18f26k20.asm
                  CCP2CON   0x000fba       data     extern D:\3.43\pic18-lt\cxx-framework\src\traditional\proc\p18f26k20.asm
              CCP2CONbits   0x000fba       data     extern D:\3.43\pic18-lt\cxx-framework\src\traditional\proc\p18f26k20.asm
                    CCPR2   0x000fbb       data     extern D:\3.43\pic18-lt\cxx-framework\src\traditional\proc\p18f26k20.asm
                   CCPR2L   0x000fbb       data     extern D:\3.43\pic18-lt\cxx-framework\src\traditional\proc\p18f26k20.asm
                   CCPR2H   0x000fbc       data     extern D:\3.43\pic18-lt\cxx-framework\src\traditional\proc\p18f26k20.asm
                  CCP1CON   0x000fbd       data     extern D:\3.43\pic18-lt\cxx-framework\src\traditional\proc\p18f26k20.asm
              CCP1CONbits   0x000fbd       data     extern D:\3.43\pic18-lt\cxx-framework\src\traditional\proc\p18f26k20.asm
                    CCPR1   0x000fbe       data     extern D:\3.43\pic18-lt\cxx-framework\src\traditional\proc\p18f26k20.asm
                   CCPR1L   0x000fbe       data     extern D:\3.43\pic18-lt\cxx-framework\src\traditional\proc\p18f26k20.asm
                   CCPR1H   0x000fbf       data     extern D:\3.43\pic18-lt\cxx-framework\src\traditional\proc\p18f26k20.asm
               ADCON2bits   0x000fc0       data     extern D:\3.43\pic18-lt\cxx-framework\src\traditional\proc\p18f26k20.asm
                   ADCON2   0x000fc0       data     extern D:\3.43\pic18-lt\cxx-framework\src\traditional\proc\p18f26k20.asm
               ADCON1bits   0x000fc1       data     extern D:\3.43\pic18-lt\cxx-framework\src\traditional\proc\p18f26k20.asm
                   ADCON1   0x000fc1       data     extern D:\3.43\pic18-lt\cxx-framework\src\traditional\proc\p18f26k20.asm
                   ADCON0   0x000fc2       data     extern D:\3.43\pic18-lt\cxx-framework\src\traditional\proc\p18f26k20.asm
               ADCON0bits   0x000fc2       data     extern D:\3.43\pic18-lt\cxx-framework\src\traditional\proc\p18f26k20.asm
                    ADRES   0x000fc3       data     extern D:\3.43\pic18-lt\cxx-framework\src\traditional\proc\p18f26k20.asm
                   ADRESL   0x000fc3       data     extern D:\3.43\pic18-lt\cxx-framework\src\traditional\proc\p18f26k20.asm
                   ADRESH   0x000fc4       data     extern D:\3.43\pic18-lt\cxx-framework\src\traditional\proc\p18f26k20.asm
                  SSPCON2   0x000fc5       data     extern D:\3.43\pic18-lt\cxx-framework\src\traditional\proc\p18f26k20.asm
              SSPCON2bits   0x000fc5       data     extern D:\3.43\pic18-lt\cxx-framework\src\traditional\proc\p18f26k20.asm
                  SSPCON1   0x000fc6       data     extern D:\3.43\pic18-lt\cxx-framework\src\traditional\proc\p18f26k20.asm
              SSPCON1bits   0x000fc6       data     extern D:\3.43\pic18-lt\cxx-framework\src\traditional\proc\p18f26k20.asm
                  SSPSTAT   0x000fc7       data     extern D:\3.43\pic18-lt\cxx-framework\src\traditional\proc\p18f26k20.asm
              SSPSTATbits   0x000fc7       data     extern D:\3.43\pic18-lt\cxx-framework\src\traditional\proc\p18f26k20.asm
                   SSPADD   0x000fc8       data     extern D:\3.43\pic18-lt\cxx-framework\src\traditional\proc\p18f26k20.asm
                   SSPBUF   0x000fc9       data     extern D:\3.43\pic18-lt\cxx-framework\src\traditional\proc\p18f26k20.asm
                    T2CON   0x000fca       data     extern D:\3.43\pic18-lt\cxx-framework\src\traditional\proc\p18f26k20.asm
                T2CONbits   0x000fca       data     extern D:\3.43\pic18-lt\cxx-framework\src\traditional\proc\p18f26k20.asm
                      PR2   0x000fcb       data     extern D:\3.43\pic18-lt\cxx-framework\src\traditional\proc\p18f26k20.asm
                     TMR2   0x000fcc       data     extern D:\3.43\pic18-lt\cxx-framework\src\traditional\proc\p18f26k20.asm
                T1CONbits   0x000fcd       data     extern D:\3.43\pic18-lt\cxx-framework\src\traditional\proc\p18f26k20.asm
                    T1CON   0x000fcd       data     extern D:\3.43\pic18-lt\cxx-framework\src\traditional\proc\p18f26k20.asm
                    TMR1L   0x000fce       data     extern D:\3.43\pic18-lt\cxx-framework\src\traditional\proc\p18f26k20.asm
                    TMR1H   0x000fcf       data     extern D:\3.43\pic18-lt\cxx-framework\src\traditional\proc\p18f26k20.asm
                     RCON   0x000fd0       data     extern D:\3.43\pic18-lt\cxx-framework\src\traditional\proc\p18f26k20.asm
                 RCONbits   0x000fd0       data     extern D:\3.43\pic18-lt\cxx-framework\src\traditional\proc\p18f26k20.asm
               WDTCONbits   0x000fd1       data     extern D:\3.43\pic18-lt\cxx-framework\src\traditional\proc\p18f26k20.asm
                   WDTCON   0x000fd1       data     extern D:\3.43\pic18-lt\cxx-framework\src\traditional\proc\p18f26k20.asm
               LVDCONbits   0x000fd2       data     extern D:\3.43\pic18-lt\cxx-framework\src\traditional\proc\p18f26k20.asm
                   LVDCON   0x000fd2       data     extern D:\3.43\pic18-lt\cxx-framework\src\traditional\proc\p18f26k20.asm
              HLVDCONbits   0x000fd2       data     extern D:\3.43\pic18-lt\cxx-framework\src\traditional\proc\p18f26k20.asm
                  HLVDCON   0x000fd2       data     extern D:\3.43\pic18-lt\cxx-framework\src\traditional\proc\p18f26k20.asm
               OSCCONbits   0x000fd3       data     extern D:\3.43\pic18-lt\cxx-framework\src\traditional\proc\p18f26k20.asm
                   OSCCON   0x000fd3       data     extern D:\3.43\pic18-lt\cxx-framework\src\traditional\proc\p18f26k20.asm
                T0CONbits   0x000fd5       data     extern D:\3.43\pic18-lt\cxx-framework\src\traditional\proc\p18f26k20.asm
                    T0CON   0x000fd5       data     extern D:\3.43\pic18-lt\cxx-framework\src\traditional\proc\p18f26k20.asm
                    TMR0L   0x000fd6       data     extern D:\3.43\pic18-lt\cxx-framework\src\traditional\proc\p18f26k20.asm
                    TMR0H   0x000fd7       data     extern D:\3.43\pic18-lt\cxx-framework\src\traditional\proc\p18f26k20.asm
                   STATUS   0x000fd8       data     extern D:\3.43\pic18-lt\cxx-framework\src\traditional\proc\p18f26k20.asm
               STATUSbits   0x000fd8       data     extern D:\3.43\pic18-lt\cxx-framework\src\traditional\proc\p18f26k20.asm
                     FSR2   0x000fd9       data     extern D:\3.43\pic18-lt\cxx-framework\src\traditional\proc\p18f26k20.asm
                    FSR2L   0x000fd9       data     extern D:\3.43\pic18-lt\cxx-framework\src\traditional\proc\p18f26k20.asm
                    FSR2H   0x000fda       data     extern D:\3.43\pic18-lt\cxx-framework\src\traditional\proc\p18f26k20.asm
                   PLUSW2   0x000fdb       data     extern D:\3.43\pic18-lt\cxx-framework\src\traditional\proc\p18f26k20.asm
                  PREINC2   0x000fdc       data     extern D:\3.43\pic18-lt\cxx-framework\src\traditional\proc\p18f26k20.asm
                 POSTDEC2   0x000fdd       data     extern D:\3.43\pic18-lt\cxx-framework\src\traditional\proc\p18f26k20.asm
                 POSTINC2   0x000fde       data     extern D:\3.43\pic18-lt\cxx-framework\src\traditional\proc\p18f26k20.asm
                    INDF2   0x000fdf       data     extern D:\3.43\pic18-lt\cxx-framework\src\traditional\proc\p18f26k20.asm
                      BSR   0x000fe0       data     extern D:\3.43\pic18-lt\cxx-framework\src\traditional\proc\p18f26k20.asm
                     FSR1   0x000fe1       data     extern D:\3.43\pic18-lt\cxx-framework\src\traditional\proc\p18f26k20.asm
                    FSR1L   0x000fe1       data     extern D:\3.43\pic18-lt\cxx-framework\src\traditional\proc\p18f26k20.asm
                    FSR1H   0x000fe2       data     extern D:\3.43\pic18-lt\cxx-framework\src\traditional\proc\p18f26k20.asm
                   PLUSW1   0x000fe3       data     extern D:\3.43\pic18-lt\cxx-framework\src\traditional\proc\p18f26k20.asm
                  PREINC1   0x000fe4       data     extern D:\3.43\pic18-lt\cxx-framework\src\traditional\proc\p18f26k20.asm
                 POSTDEC1   0x000fe5       data     extern D:\3.43\pic18-lt\cxx-framework\src\traditional\proc\p18f26k20.asm
                 POSTINC1   0x000fe6       data     extern D:\3.43\pic18-lt\cxx-framework\src\traditional\proc\p18f26k20.asm
                    INDF1   0x000fe7       data     extern D:\3.43\pic18-lt\cxx-framework\src\traditional\proc\p18f26k20.asm
                        W   0x000fe8       data     extern D:\3.43\pic18-lt\cxx-framework\src\traditional\proc\p18f26k20.asm
                     WREG   0x000fe8       data     extern D:\3.43\pic18-lt\cxx-framework\src\traditional\proc\p18f26k20.asm
                    FSR0L   0x000fe9       data     extern D:\3.43\pic18-lt\cxx-framework\src\traditional\proc\p18f26k20.asm
                     FSR0   0x000fe9       data     extern D:\3.43\pic18-lt\cxx-framework\src\traditional\proc\p18f26k20.asm
                    FSR0H   0x000fea       data     extern D:\3.43\pic18-lt\cxx-framework\src\traditional\proc\p18f26k20.asm
                   PLUSW0   0x000feb       data     extern D:\3.43\pic18-lt\cxx-framework\src\traditional\proc\p18f26k20.asm
                  PREINC0   0x000fec       data     extern D:\3.43\pic18-lt\cxx-framework\src\traditional\proc\p18f26k20.asm
                 POSTDEC0   0x000fed       data     extern D:\3.43\pic18-lt\cxx-framework\src\traditional\proc\p18f26k20.asm
                 POSTINC0   0x000fee       data     extern D:\3.43\pic18-lt\cxx-framework\src\traditional\proc\p18f26k20.asm
                    INDF0   0x000fef       data     extern D:\3.43\pic18-lt\cxx-framework\src\traditional\proc\p18f26k20.asm
              INTCON3bits   0x000ff0       data     extern D:\3.43\pic18-lt\cxx-framework\src\traditional\proc\p18f26k20.asm
                  INTCON3   0x000ff0       data     extern D:\3.43\pic18-lt\cxx-framework\src\traditional\proc\p18f26k20.asm
                  INTCON2   0x000ff1       data     extern D:\3.43\pic18-lt\cxx-framework\src\traditional\proc\p18f26k20.asm
              INTCON2bits   0x000ff1       data     extern D:\3.43\pic18-lt\cxx-framework\src\traditional\proc\p18f26k20.asm
                   INTCON   0x000ff2       data     extern D:\3.43\pic18-lt\cxx-framework\src\traditional\proc\p18f26k20.asm
               INTCONbits   0x000ff2       data     extern D:\3.43\pic18-lt\cxx-framework\src\traditional\proc\p18f26k20.asm
                     PROD   0x000ff3       data     extern D:\3.43\pic18-lt\cxx-framework\src\traditional\proc\p18f26k20.asm
                    PRODL   0x000ff3       data     extern D:\3.43\pic18-lt\cxx-framework\src\traditional\proc\p18f26k20.asm
                    PRODH   0x000ff4       data     extern D:\3.43\pic18-lt\cxx-framework\src\traditional\proc\p18f26k20.asm
                   TABLAT   0x000ff5       data     extern D:\3.43\pic18-lt\cxx-framework\src\traditional\proc\p18f26k20.asm
                  TBLPTRL   0x000ff6       data     extern D:\3.43\pic18-lt\cxx-framework\src\traditional\proc\p18f26k20.asm
                   TBLPTR   0x000ff6       data     extern D:\3.43\pic18-lt\cxx-framework\src\traditional\proc\p18f26k20.asm
                  TBLPTRH   0x000ff7       data     extern D:\3.43\pic18-lt\cxx-framework\src\traditional\proc\p18f26k20.asm
                  TBLPTRU   0x000ff8       data     extern D:\3.43\pic18-lt\cxx-framework\src\traditional\proc\p18f26k20.asm
                       PC   0x000ff9       data     extern D:\3.43\pic18-lt\cxx-framework\src\traditional\proc\p18f26k20.asm
                      PCL   0x000ff9       data     extern D:\3.43\pic18-lt\cxx-framework\src\traditional\proc\p18f26k20.asm
                   PCLATH   0x000ffa       data     extern D:\3.43\pic18-lt\cxx-framework\src\traditional\proc\p18f26k20.asm
                   PCLATU   0x000ffb       data     extern D:\3.43\pic18-lt\cxx-framework\src\traditional\proc\p18f26k20.asm
                   STKPTR   0x000ffc       data     extern D:\3.43\pic18-lt\cxx-framework\src\traditional\proc\p18f26k20.asm
               STKPTRbits   0x000ffc       data     extern D:\3.43\pic18-lt\cxx-framework\src\traditional\proc\p18f26k20.asm
                      TOS   0x000ffd       data     extern D:\3.43\pic18-lt\cxx-framework\src\traditional\proc\p18f26k20.asm
                     TOSL   0x000ffd       data     extern D:\3.43\pic18-lt\cxx-framework\src\traditional\proc\p18f26k20.asm
                     TOSH   0x000ffe       data     extern D:\3.43\pic18-lt\cxx-framework\src\traditional\proc\p18f26k20.asm
                     TOSU   0x000fff       data     extern D:\3.43\pic18-lt\cxx-framework\src\traditional\proc\p18f26k20.asm


