MPLINK 4.34, Linker
Linker Map File - Created Tue Dec 01 21:27:52 2009

                                 Section Info
                  Section       Type    Address   Location Size(Bytes)
                ---------  ---------  ---------  ---------  ---------
               _entry_scn       code   0x000000    program   0x000006
               highVector       code   0x000008    program   0x000006
               lowhVector       code   0x000018    program   0x000006
                   .cinit    romdata   0x000032    program   0x000026
             .code_zNWK.o       code   0x000058    program   0x003f42
             .code_zZDO.o       code   0x003f9a    program   0x002bb4
             .code_zAPS.o       code   0x006b4e    program   0x002538
    .code_zMAC_MRF24J40.o       code   0x009086    program   0x001a66
      .code_Coordinator.o       code   0x00aaec    program   0x000e6e
    .code_zPHY_MRF24J40.o       code   0x00b95a    program   0x000b86
             .stringtable    romdata   0x00c4e0    program   0x0007a1
          .idata_zNVM.o_i    romdata   0x00cc81    program   0x000000
    .idata_SymbolTime.o_i    romdata   0x00cc81    program   0x000000
       .idata_sralloc.o_i    romdata   0x00cc81    program   0x000000
    .romdata_SymbolTime.o    romdata   0x00cc81    program   0x000000
        .idata___init.o_i    romdata   0x00cc81    program   0x000000
       .romdata_fxm3232.o    romdata   0x00cc81    program   0x000000
          .romdata_zAPS.o    romdata   0x00cc81    program   0x000000
 .romdata_zPHY_MRF24J40.o    romdata   0x00cc81    program   0x000000
       .idata_fxm3232.o_i    romdata   0x00cc81    program   0x000000
   .romdata_Coordinator.o    romdata   0x00cc81    program   0x000000
       .idata_Console.o_i    romdata   0x00cc81    program   0x000000
          .romdata_zZDO.o    romdata   0x00cc81    program   0x000000
.idata_zSecurity_MRF24J40.o_i    romdata   0x00cc81    program   0x000000
        .romdata___init.o    romdata   0x00cc81    program   0x000000
         .code_myZigBee.o       code   0x00cc82    program   0x000000
      .code_ZigbeeTasks.o       code   0x00cc82    program   0x0003ea
             .code_zNVM.o       code   0x00d06c    program   0x0003c4
          .romdata_zNVM.o    romdata   0x00d430    program   0x0003bf
          .romdata_zNWK.o    romdata   0x00d7ef    program   0x000000
 .idata_zMAC_MRF24J40.o_i    romdata   0x00d7ef    program   0x000000
 .idata_zPHY_MRF24J40.o_i    romdata   0x00d7ef    program   0x000000
.romdata_zSecurity_MRF24J40.o    romdata   0x00d7ef    program   0x000000
          .idata_zZDO.o_i    romdata   0x00d7ef    program   0x000000
         .idata_c018i.o_i    romdata   0x00d7ef    program   0x000000
         .romdata_c018i.o    romdata   0x00d7ef    program   0x000000
          .idata_MSPI.o_i    romdata   0x00d7ef    program   0x000000
          .romdata_MSPI.o    romdata   0x00d7ef    program   0x000000
      .idata_myZigBee.o_i    romdata   0x00d7ef    program   0x000000
       .romdata_sralloc.o    romdata   0x00d7ef    program   0x000000
   .romdata_ZigbeeTasks.o    romdata   0x00d7ef    program   0x000000
   .idata_ZigbeeTasks.o_i    romdata   0x00d7ef    program   0x000000
            .code_c018i.o       code   0x00d7f0    program   0x000000
.code_zSecurity_MRF24J40.o       code   0x00d7f0    program   0x000000
          .code_sralloc.o       code   0x00d7f0    program   0x0002ac
                     PROG       code   0x00da9c    program   0x00023a
          .code_Console.o       code   0x00dcd6    program   0x000148
                   STRING       code   0x00de1e    program   0x00012c
       .code_SymbolTime.o       code   0x00df4a    program   0x0000aa
      .romdata_myZigBee.o    romdata   0x00dff4    program   0x0000a6
               _cinit_scn       code   0x00e09a    program   0x00009e
             .code_MSPI.o       code   0x00e138    program   0x00008e
          .code_fxm3232.o       code   0x00e1c6    program   0x000070
 .romdata_zMAC_MRF24J40.o    romdata   0x00e236    program   0x00003c
                    .code       code   0x00e272    program   0x000020
             _startup_scn       code   0x00e292    program   0x00001c
       .romdata_Console.o    romdata   0x00e2ae    program   0x000010
           .code___init.o       code   0x00e2be    program   0x000002
          .idata_zNWK.o_i    romdata   0x00e2c0    program   0x000002
          .idata_zAPS.o_i    romdata   0x00e2c2    program   0x000002
   .idata_Coordinator.o_i    romdata   0x00e2c4    program   0x00000c
                 CONFIG1H    romdata   0x300001    program   0x000001
                 CONFIG2L    romdata   0x300002    program   0x000001
                 CONFIG2H    romdata   0x300003    program   0x000001
                 CONFIG3H    romdata   0x300005    program   0x000001
                 CONFIG4L    romdata   0x300006    program   0x000001
                MATH_DATA      udata   0x000000       data   0x000014
                 .tmpdata      udata   0x000014       data   0x000010
              HighISR_tmp      udata   0x000024       data   0x000004
     .idata_Coordinator.o      idata   0x000080       data   0x00000c
            MultiBankHeap      udata   0x000100       data   0x000700
                   .stack      udata   0x000800       data   0x000200
                RX_BUFFER      udata   0x000a00       data   0x000100
            .udata_zNWK.o      udata   0x000b00       data   0x0000fc
            .idata_zNWK.o      idata   0x000bfc       data   0x000002
            .idata_zAPS.o      idata   0x000bfe       data   0x000002
                DUP_TABLE      udata   0x000c00       data   0x0000a8
            .udata_zNVM.o      udata   0x000ca8       data   0x00003b
     .udata_Coordinator.o      udata   0x000ce3       data   0x00001b
      .udata_SymbolTime.o      udata   0x000cfe       data   0x000002
   .udata_zMAC_MRF24J40.o      udata   0x000d00       data   0x000083
            .udata_zAPS.o      udata   0x000d83       data   0x000068
   .udata_zPHY_MRF24J40.o      udata   0x000deb       data   0x00000f
     .udata_ZigbeeTasks.o      udata   0x000e00       data   0x0000aa
            .udata_zZDO.o      udata   0x000eaa       data   0x00003f
           .udata_c018i.o      udata   0x000ee9       data   0x00000a
.udata_zSecurity_MRF24J40.o      udata   0x000ef3       data   0x000000
.idata_zSecurity_MRF24J40.o      idata   0x000ef3       data   0x000000
            .idata_zZDO.o      idata   0x000ef3       data   0x000000
           .idata_c018i.o      idata   0x000ef3       data   0x000000
         .udata_fxm3232.o      udata   0x000ef3       data   0x000000
         .idata_fxm3232.o      idata   0x000ef3       data   0x000000
   .idata_zPHY_MRF24J40.o      idata   0x000ef3       data   0x000000
          .udata___init.o      udata   0x000ef3       data   0x000000
          .idata___init.o      idata   0x000ef3       data   0x000000
            .idata_zNVM.o      idata   0x000ef3       data   0x000000
   .idata_zMAC_MRF24J40.o      idata   0x000ef3       data   0x000000
     .idata_ZigbeeTasks.o      idata   0x000ef3       data   0x000000
      .idata_SymbolTime.o      idata   0x000ef3       data   0x000000
         .idata_sralloc.o      idata   0x000ef3       data   0x000000
         .udata_sralloc.o      udata   0x000ef3       data   0x000000
        .idata_myZigBee.o      idata   0x000ef3       data   0x000000
        .udata_myZigBee.o      udata   0x000ef3       data   0x000000
            .idata_MSPI.o      idata   0x000ef3       data   0x000000
            .udata_MSPI.o      udata   0x000ef3       data   0x000000
         .idata_Console.o      idata   0x000ef3       data   0x000000
         .udata_Console.o      udata   0x000ef3       data   0x000000
            SFR_UNBANKED0      udata   0x000f80       data   0x000080



                              Program Memory Usage 
                               Start         End      
                           ---------   ---------      
                            0x000000    0x000005      
                            0x000008    0x00000d      
                            0x000018    0x00001d      
                            0x000032    0x00cc80      
                            0x00cc82    0x00d7ee      
                            0x00d7f0    0x00e2cf      
                            0x300001    0x300003      
                            0x300005    0x300006      
            58035 out of 66584 program addresses used, program memory utilization is 87%



                              Symbols - Sorted by Name
                     Name    Address   Location    Storage File                     
                ---------  ---------  ---------  --------- ---------                
        APSAddBindingInfo   0x007cae    program     extern F:\Microchip Solutions\ZigBee2006Res\microchip\ZigBeeStack\zAPS.c
  APSClearAPSAddressTable   0x007fac    program     extern F:\Microchip Solutions\ZigBee2006Res\microchip\ZigBeeStack\zAPS.c
       APSFromLongToShort   0x00857a    program     extern F:\Microchip Solutions\ZigBee2006Res\microchip\ZigBeeStack\zAPS.c
       APSFromShortToLong   0x008520    program     extern F:\Microchip Solutions\ZigBee2006Res\microchip\ZigBeeStack\zAPS.c
                   APSGet   0x007fee    program     extern F:\Microchip Solutions\ZigBee2006Res\microchip\ZigBeeStack\zAPS.c
    APSHasBackgroundTasks   0x006b4e    program     extern F:\Microchip Solutions\ZigBee2006Res\microchip\ZigBeeStack\zAPS.c
                  APSInit   0x006b5a    program     extern F:\Microchip Solutions\ZigBee2006Res\microchip\ZigBeeStack\zAPS.c
     APSRemoveBindingInfo   0x00800a    program     extern F:\Microchip Solutions\ZigBee2006Res\microchip\ZigBeeStack\zAPS.c
        APSSaveAPSAddress   0x0081ce    program     extern F:\Microchip Solutions\ZigBee2006Res\microchip\ZigBeeStack\zAPS.c
                 APSTasks   0x006cbe    program     extern F:\Microchip Solutions\ZigBee2006Res\microchip\ZigBeeStack\zAPS.c
             AddChildNode   0x002378    program     extern F:\Microchip Solutions\ZigBee2006Res\microchip\ZigBeeStack\zNWK.c
                 AddGroup   0x0086a6    program     extern F:\Microchip Solutions\ZigBee2006Res\microchip\ZigBeeStack\zAPS.c
          CanAddChildNode   0x002458    program     extern F:\Microchip Solutions\ZigBee2006Res\microchip\ZigBeeStack\zNWK.c
       CanAddNeighborNode   0x0024ca    program     extern F:\Microchip Solutions\ZigBee2006Res\microchip\ZigBeeStack\zNWK.c
           CharacterArray   0x00e2ae    program     extern F:\Microchip Solutions\ZigBee2006Res\microchip\Common\Console.c
                 ClearNVM   0x00d358    program     extern F:\Microchip Solutions\ZigBee2006Res\microchip\ZigBeeStack\zNVM.c
Config_NWK_Mode_and_Params   0x00e090    program     extern F:\Microchip Solutions\ZigBee2006Res\DemoPIC18Coordinator\myZigBee.c
   Config_Node_Descriptor   0x00dff4    program     extern F:\Microchip Solutions\ZigBee2006Res\DemoPIC18Coordinator\myZigBee.c
  Config_Power_Descriptor   0x00dffe    program     extern F:\Microchip Solutions\ZigBee2006Res\DemoPIC18Coordinator\myZigBee.c
Config_Simple_Descriptors   0x00e000    program     extern F:\Microchip Solutions\ZigBee2006Res\DemoPIC18Coordinator\myZigBee.c
               ConsoleGet   0x00dda6    program     extern F:\Microchip Solutions\ZigBee2006Res\microchip\Common\Console.c
         ConsoleGetString   0x00dd20    program     extern F:\Microchip Solutions\ZigBee2006Res\microchip\Common\Console.c
              ConsoleInit   0x00dcd6    program     extern F:\Microchip Solutions\ZigBee2006Res\microchip\Common\Console.c
               ConsolePut   0x00dd74    program     extern F:\Microchip Solutions\ZigBee2006Res\microchip\Common\Console.c
      ConsolePutROMString   0x00dcee    program     extern F:\Microchip Solutions\ZigBee2006Res\microchip\Common\Console.c
         ConsolePutString   0x00dd82    program     extern F:\Microchip Solutions\ZigBee2006Res\microchip\Common\Console.c
             CreateNewBTR   0x0024fa    program     extern F:\Microchip Solutions\ZigBee2006Res\microchip\ZigBeeStack\zNWK.c
         CreateRouteReply   0x0025b2    program     extern F:\Microchip Solutions\ZigBee2006Res\microchip\ZigBeeStack\zNWK.c
CreateRoutingTableEntries   0x002656    program     extern F:\Microchip Solutions\ZigBee2006Res\microchip\ZigBeeStack\zNWK.c
      DoneReceivingPacket   0x00c37c    program     static                          
          DuplicatePacket   0x0085a6    program     extern F:\Microchip Solutions\ZigBee2006Res\microchip\ZigBeeStack\zAPS.c
                 FLO3232S   0x00daa0    program     extern C:\MCC18\src\traditional\math\cast32FP.asm
                 FLO3232U   0x00da9c    program     extern C:\MCC18\src\traditional\math\cast32FP.asm
                 FXM1616U   0x00dad2    program     extern C:\MCC18\src\traditional\math\fxm1616u.asm
                  FXM3232   0x00e1c6    program     extern C:\MCC18\src\traditional\math\fxm3232.c
   FinishAddressResponses   0x00533e    program     extern F:\Microchip Solutions\ZigBee2006Res\microchip\ZigBeeStack\zZDO.C
              GetCSkipVal   0x002754    program     extern F:\Microchip Solutions\ZigBee2006Res\microchip\ZigBeeStack\zNWK.c
            GetEmptyGroup   0x00867a    program     extern F:\Microchip Solutions\ZigBee2006Res\microchip\ZigBeeStack\zAPS.c
    GetEndPointsFromGroup   0x008644    program     extern F:\Microchip Solutions\ZigBee2006Res\microchip\ZigBeeStack\zAPS.c
              GetHexDigit   0x00b438    program     extern F:\Microchip Solutions\ZigBee2006Res\DemoPIC18Coordinator\Coordinator.c
               GetMACByte   0x00b482    program     extern F:\Microchip Solutions\ZigBee2006Res\DemoPIC18Coordinator\Coordinator.c
               GetNextHop   0x0027b4    program     extern F:\Microchip Solutions\ZigBee2006Res\microchip\ZigBeeStack\zNWK.c
GetOneEndDeviceBindRequest   0x0054bc    program     extern F:\Microchip Solutions\ZigBee2006Res\microchip\ZigBeeStack\zZDO.C
        GetRoutingAddress   0x002828    program     extern F:\Microchip Solutions\ZigBee2006Res\microchip\ZigBeeStack\zNWK.c
             HardwareInit   0x00b3f6    program     extern F:\Microchip Solutions\ZigBee2006Res\DemoPIC18Coordinator\Coordinator.c
      HaveRoutingCapacity   0x0028e4    program     extern F:\Microchip Solutions\ZigBee2006Res\microchip\ZigBeeStack\zNWK.c
                  HighISR   0x00c01a    program     extern F:\Microchip Solutions\ZigBee2006Res\microchip\ZigBeeStack\zPHY_MRF24J40.c
               HighVector   0x000008    program     extern F:\Microchip Solutions\ZigBee2006Res\microchip\ZigBeeStack\zPHY_MRF24J40.c
          InitSymbolTimer   0x00df4a    program     extern F:\Microchip Solutions\ZigBee2006Res\microchip\ZigBeeStack\SymbolTime.c
   InitiateRouteDiscovery   0x0029b2    program     extern F:\Microchip Solutions\ZigBee2006Res\microchip\ZigBeeStack\zNWK.c
             IsDescendant   0x002dc6    program     extern F:\Microchip Solutions\ZigBee2006Res\microchip\ZigBeeStack\zNWK.c
        IsThisMyShortAddr   0x005458    program     extern F:\Microchip Solutions\ZigBee2006Res\microchip\ZigBeeStack\zZDO.C
         LookupAPSAddress   0x00817a    program     extern F:\Microchip Solutions\ZigBee2006Res\microchip\ZigBeeStack\zAPS.c
     LookupAPSLongAddress   0x008256    program     extern F:\Microchip Solutions\ZigBee2006Res\microchip\ZigBeeStack\zAPS.c
  LookupSourceBindingInfo   0x008298    program     extern F:\Microchip Solutions\ZigBee2006Res\microchip\ZigBeeStack\zAPS.c
                LowVector   0x000018    program     extern F:\Microchip Solutions\ZigBee2006Res\microchip\ZigBeeStack\zPHY_MRF24J40.c
               MACDisable   0x0090c0    program     extern F:\Microchip Solutions\ZigBee2006Res\microchip\ZigBeeStack\zMAC_MRF24J40.c
             MACDiscardRx   0x0090a8    program     extern F:\Microchip Solutions\ZigBee2006Res\microchip\ZigBeeStack\zMAC_MRF24J40.c
                MACEnable   0x0090cc    program     extern F:\Microchip Solutions\ZigBee2006Res\microchip\ZigBeeStack\zMAC_MRF24J40.c
                   MACGet   0x009092    program     extern F:\Microchip Solutions\ZigBee2006Res\microchip\ZigBeeStack\zMAC_MRF24J40.c
    MACHasBackgroundTasks   0x009086    program     extern F:\Microchip Solutions\ZigBee2006Res\microchip\ZigBeeStack\zMAC_MRF24J40.c
                  MACInit   0x00914e    program     extern F:\Microchip Solutions\ZigBee2006Res\microchip\ZigBeeStack\zMAC_MRF24J40.c
                 MACTasks   0x00918e    program     extern F:\Microchip Solutions\ZigBee2006Res\microchip\ZigBeeStack\zMAC_MRF24J40.c
     MLME_SET_macPANId_hw   0x00a562    program     extern F:\Microchip Solutions\ZigBee2006Res\microchip\ZigBeeStack\zMAC_MRF24J40.c
MLME_SET_macShortAddress_hw   0x00a572    program     extern F:\Microchip Solutions\ZigBee2006Res\microchip\ZigBeeStack\zMAC_MRF24J40.c
            MRF24J40Sleep   0x00bc82    program     extern F:\Microchip Solutions\ZigBee2006Res\microchip\ZigBeeStack\zPHY_MRF24J40.c
             MRF24J40Wake   0x00bcac    program     extern F:\Microchip Solutions\ZigBee2006Res\microchip\ZigBeeStack\zPHY_MRF24J40.c
MarkNeighborAsPasssiveACKed   0x002e50    program     extern F:\Microchip Solutions\ZigBee2006Res\microchip\ZigBeeStack\zNWK.c
         NLME_GET_nwkBCSN   0x002e9a    program     extern F:\Microchip Solutions\ZigBee2006Res\microchip\ZigBeeStack\zNWK.c
                  NVMInit   0x00d06c    program     extern F:\Microchip Solutions\ZigBee2006Res\microchip\ZigBeeStack\zNVM.c
                 NVMWrite   0x00d06e    program     extern F:\Microchip Solutions\ZigBee2006Res\microchip\ZigBeeStack\zNVM.c
    NWKClearNeighborTable   0x002ea8    program     extern F:\Microchip Solutions\ZigBee2006Res\microchip\ZigBeeStack\zNWK.c
     NWKClearRoutingTable   0x002ef0    program     extern F:\Microchip Solutions\ZigBee2006Res\microchip\ZigBeeStack\zNWK.c
                   NWKGet   0x002f24    program     extern F:\Microchip Solutions\ZigBee2006Res\microchip\ZigBeeStack\zNWK.c
    NWKHasBackgroundTasks   0x000058    program     extern F:\Microchip Solutions\ZigBee2006Res\microchip\ZigBeeStack\zNWK.c
                  NWKInit   0x000068    program     extern F:\Microchip Solutions\ZigBee2006Res\microchip\ZigBeeStack\zNWK.c
  NWKLookupNodeByLongAddr   0x002f40    program     extern F:\Microchip Solutions\ZigBee2006Res\microchip\ZigBeeStack\zNWK.c
NWKLookupNodeByShortAddrVal   0x002f7a    program     extern F:\Microchip Solutions\ZigBee2006Res\microchip\ZigBeeStack\zNWK.c
NWKLookupNodeByShortAddrValAndPANID   0x002fb2    program     extern F:\Microchip Solutions\ZigBee2006Res\microchip\ZigBeeStack\zNWK.c
                 NWKTasks   0x0000ea    program     extern F:\Microchip Solutions\ZigBee2006Res\microchip\ZigBeeStack\zNWK.c
   NWKThisIsMyLongAddress   0x003002    program     extern F:\Microchip Solutions\ZigBee2006Res\microchip\ZigBeeStack\zNWK.c
     NWKTidyNeighborTable   0x003052    program     extern F:\Microchip Solutions\ZigBee2006Res\microchip\ZigBeeStack\zNWK.c
                   PHYGet   0x00b95a    program     extern F:\Microchip Solutions\ZigBee2006Res\microchip\ZigBeeStack\zPHY_MRF24J40.c
        PHYGetLongRAMAddr   0x00bf5e    program     extern F:\Microchip Solutions\ZigBee2006Res\microchip\ZigBeeStack\zPHY_MRF24J40.c
       PHYGetShortRAMAddr   0x00befc    program     extern F:\Microchip Solutions\ZigBee2006Res\microchip\ZigBeeStack\zPHY_MRF24J40.c
    PHYHasBackgroundTasks   0x00b978    program     extern F:\Microchip Solutions\ZigBee2006Res\microchip\ZigBeeStack\zPHY_MRF24J40.c
                  PHYInit   0x00b97e    program     extern F:\Microchip Solutions\ZigBee2006Res\microchip\ZigBeeStack\zPHY_MRF24J40.c
        PHYSetLongRAMAddr   0x00bdfe    program     extern F:\Microchip Solutions\ZigBee2006Res\microchip\ZigBeeStack\zPHY_MRF24J40.c
        PHYSetOutputPower   0x00c000    program     extern F:\Microchip Solutions\ZigBee2006Res\microchip\ZigBeeStack\zPHY_MRF24J40.c
       PHYSetShortRAMAddr   0x00be9a    program     extern F:\Microchip Solutions\ZigBee2006Res\microchip\ZigBeeStack\zPHY_MRF24J40.c
                 PHYTasks   0x00bd16    program     extern F:\Microchip Solutions\ZigBee2006Res\microchip\ZigBeeStack\zPHY_MRF24J40.c
   PrepareMessageResponse   0x00594a    program     extern F:\Microchip Solutions\ZigBee2006Res\microchip\ZigBeeStack\zZDO.C
Prepare_MCPS_DATA_request   0x0030a6    program     extern F:\Microchip Solutions\ZigBee2006Res\microchip\ZigBeeStack\zNWK.c
                PrintChar   0x00ddb2    program     extern F:\Microchip Solutions\ZigBee2006Res\microchip\Common\Console.c
                PrintMenu   0x00b754    program     extern F:\Microchip Solutions\ZigBee2006Res\DemoPIC18Coordinator\Coordinator.c
     ProcessBindAndUnbind   0x005cb8    program     extern F:\Microchip Solutions\ZigBee2006Res\microchip\ZigBeeStack\zZDO.C
     ProcessEndDeviceBind   0x0056ae    program     extern F:\Microchip Solutions\ZigBee2006Res\microchip\ZigBeeStack\zZDO.C
              ProcessMenu   0x00b498    program     extern F:\Microchip Solutions\ZigBee2006Res\DemoPIC18Coordinator\Coordinator.c
    ProcessNONZigBeeTasks   0x00b3f4    program     extern F:\Microchip Solutions\ZigBee2006Res\DemoPIC18Coordinator\Coordinator.c
  ProcessZigBeePrimitives   0x00ab76    program     extern F:\Microchip Solutions\ZigBee2006Res\DemoPIC18Coordinator\Coordinator.c
        RemoveAllBindings   0x00831e    program     extern F:\Microchip Solutions\ZigBee2006Res\microchip\ZigBeeStack\zAPS.c
          RemoveAllGroups   0x008812    program     extern F:\Microchip Solutions\ZigBee2006Res\microchip\ZigBeeStack\zAPS.c
              RemoveGroup   0x008740    program     extern F:\Microchip Solutions\ZigBee2006Res\microchip\ZigBeeStack\zAPS.c
 RemoveNeighborTableEntry   0x00311c    program     extern F:\Microchip Solutions\ZigBee2006Res\microchip\ZigBeeStack\zNWK.c
      RequestedPANIDFound   0x003156    program     extern F:\Microchip Solutions\ZigBee2006Res\microchip\ZigBeeStack\zNWK.c
           RouteAlongTree   0x00319a    program     extern F:\Microchip Solutions\ZigBee2006Res\microchip\ZigBeeStack\zNWK.c
                   SPIGet   0x00e14e    program     extern F:\Microchip Solutions\ZigBee2006Res\microchip\Common\MSPI.c
              SPIGetArray   0x00e158    program     extern F:\Microchip Solutions\ZigBee2006Res\microchip\Common\MSPI.c
                   SPIPut   0x00e138    program     extern F:\Microchip Solutions\ZigBee2006Res\microchip\Common\MSPI.c
              SPIPutArray   0x00e172    program     extern F:\Microchip Solutions\ZigBee2006Res\microchip\Common\MSPI.c
             SRAMInitHeap   0x00d8e2    program     extern F:\Microchip Solutions\ZigBee2006Res\microchip\Common\sralloc.c
                SRAMalloc   0x00d7f0    program     extern F:\Microchip Solutions\ZigBee2006Res\microchip\Common\sralloc.c
                 SRAMfree   0x00d8d4    program     extern F:\Microchip Solutions\ZigBee2006Res\microchip\Common\sralloc.c
   SendBindAddressRequest   0x005fca    program     extern F:\Microchip Solutions\ZigBee2006Res\microchip\ZigBeeStack\zZDO.C
         SendUpBindResult   0x006044    program     extern F:\Microchip Solutions\ZigBee2006Res\microchip\ZigBeeStack\zZDO.C
 Send_END_DEVICE_BIND_rsp   0x005890    program     extern F:\Microchip Solutions\ZigBee2006Res\microchip\ZigBeeStack\zZDO.C
         SetBeaconPayload   0x00321a    program     extern F:\Microchip Solutions\ZigBee2006Res\microchip\ZigBeeStack\zNWK.c
                  TAGTB32   0x00db0e    program     extern C:\MCC18\src\traditional\math\gtFP.asm
                  TickGet   0x00df5e    program     extern F:\Microchip Solutions\ZigBee2006Res\microchip\ZigBeeStack\SymbolTime.c
     UserInterruptHandler   0x00b42a    program     extern F:\Microchip Solutions\ZigBee2006Res\DemoPIC18Coordinator\Coordinator.c
VariableAndTableInitialization   0x003270    program     extern F:\Microchip Solutions\ZigBee2006Res\microchip\ZigBeeStack\zNWK.c
    ZDOHasBackgroundTasks   0x003f9a    program     extern F:\Microchip Solutions\ZigBee2006Res\microchip\ZigBeeStack\zZDO.C
                  ZDOInit   0x003fa6    program     extern F:\Microchip Solutions\ZigBee2006Res\microchip\ZigBeeStack\zZDO.C
                 ZDOTasks   0x003fba    program     extern F:\Microchip Solutions\ZigBee2006Res\microchip\ZigBeeStack\zZDO.C
               ZigBeeInit   0x00cc82    program     extern F:\Microchip Solutions\ZigBee2006Res\microchip\ZigBeeStack\ZigbeeTasks.c
              ZigBeeTasks   0x00ccb8    program     extern F:\Microchip Solutions\ZigBee2006Res\microchip\ZigBeeStack\ZigbeeTasks.c
              _3jContinue   0x00de9a    program     static C:\MCC18\src\traditional\stdclib\mcmpp2r.asm
              _3jContinue   0x00df36    program     static C:\MCC18\src\traditional\stdclib\mcpyp2r.asm
              _4jContinue   0x00dee2    program     static C:\MCC18\src\traditional\stdclib\memcpy.asm
              _4jContinue   0x00de4a    program     static C:\MCC18\src\traditional\stdclib\memcmp.asm
                   _4jEnd   0x00df40    program     static C:\MCC18\src\traditional\stdclib\mcpyp2r.asm
                   _4jEnd   0x00dea4    program     static C:\MCC18\src\traditional\stdclib\mcmpp2r.asm
                   _5jEnd   0x00de54    program     static C:\MCC18\src\traditional\stdclib\memcmp.asm
                   _5jEnd   0x00deec    program     static C:\MCC18\src\traditional\stdclib\memcpy.asm
               _SRAMmerge   0x00d964    program     extern F:\Microchip Solutions\ZigBee2006Res\microchip\Common\sralloc.c
              __FpCompare   0x00db20    program     extern C:\MCC18\src\traditional\math\compFP.asm
                 __FpExit   0x00dbd6    program     extern C:\MCC18\src\traditional\math\packFP.asm
                 __FpPack   0x00dc02    program     extern C:\MCC18\src\traditional\math\packFP.asm
            __FpReturnNaN   0x00dbca    program     extern C:\MCC18\src\traditional\math\packFP.asm
         __FpReturnNegInf   0x00dbdc    program     extern C:\MCC18\src\traditional\math\packFP.asm
        __FpReturnNegZero   0x00dbf4    program     extern C:\MCC18\src\traditional\math\packFP.asm
         __FpReturnPosInf   0x00dbe2    program     extern C:\MCC18\src\traditional\math\packFP.asm
        __FpReturnPosZero   0x00dbfc    program     extern C:\MCC18\src\traditional\math\packFP.asm
        __FpReturnSignInf   0x00dbd8    program     extern C:\MCC18\src\traditional\math\packFP.asm
       __FpReturnSignZero   0x00dbf0    program     extern C:\MCC18\src\traditional\math\packFP.asm
              __FpReturnW   0x00dc5a    program     extern C:\MCC18\src\traditional\math\packFP.asm
              __FpUnPackA   0x00dc7a    program     extern C:\MCC18\src\traditional\math\UnpackFP.asm
              __FpUnPackB   0x00dcaa    program     extern C:\MCC18\src\traditional\math\UnpackFP.asm
     ___case_100_lbl00078   0x00cfa0    program     static                          
     ___case_101_lbl00091   0x00cfb0    program     static                          
     ___case_102_lbl00077   0x00cfa0    program     static                          
     ___case_103_lbl00090   0x00cfb0    program     static                          
     ___case_104_lbl00076   0x00cfa0    program     static                          
     ___case_105_lbl00089   0x00cfb0    program     static                          
     ___case_106_lbl00075   0x00cfa0    program     static                          
     ___case_107_lbl00088   0x00cfb0    program     static                          
     ___case_108_lbl00074   0x00cfa0    program     static                          
     ___case_109_lbl00100   0x00cfc0    program     static                          
      ___case_10_lbl00011   0x00cf70    program     static                          
     ___case_110_lbl00073   0x00cfa0    program     static                          
     ___case_111_lbl00099   0x00cfc0    program     static                          
     ___case_112_lbl00072   0x00cfa0    program     static                          
     ___case_113_lbl00098   0x00cfc0    program     static                          
     ___case_114_lbl00039   0x00cf90    program     static                          
     ___case_115_lbl00104   0x00cfc0    program     static                          
      ___case_11_lbl00033   0x00cf80    program     static                          
      ___case_12_lbl00013   0x00cf70    program     static                          
      ___case_13_lbl00032   0x00cf80    program     static                          
      ___case_16_lbl00031   0x00cf80    program     static                          
      ___case_17_lbl00071   0x00cf90    program     static                          
      ___case_18_lbl00070   0x00cf90    program     static                          
      ___case_19_lbl00030   0x00cf80    program     static                          
       ___case_1_lbl00016   0x00cf70    program     static                          
      ___case_20_lbl00069   0x00cf90    program     static                          
      ___case_21_lbl00029   0x00cf80    program     static                          
      ___case_22_lbl00068   0x00cf90    program     static                          
      ___case_23_lbl00028   0x00cf80    program     static                          
      ___case_24_lbl00067   0x00cf90    program     static                          
      ___case_25_lbl00027   0x00cf80    program     static                          
      ___case_26_lbl00066   0x00cf90    program     static                          
      ___case_27_lbl00065   0x00cf90    program     static                          
      ___case_28_lbl00064   0x00cf90    program     static                          
      ___case_29_lbl00026   0x00cf80    program     static                          
       ___case_2_lbl00037   0x00cf80    program     static                          
      ___case_30_lbl00063   0x00cf90    program     static                          
      ___case_31_lbl00025   0x00cf80    program     static                          
      ___case_32_lbl00062   0x00cf90    program     static                          
      ___case_33_lbl00061   0x00cf90    program     static                          
      ___case_34_lbl00060   0x00cf90    program     static                          
      ___case_35_lbl00024   0x00cf80    program     static                          
      ___case_36_lbl00023   0x00cf80    program     static                          
      ___case_37_lbl00059   0x00cf90    program     static                          
      ___case_38_lbl00022   0x00cf80    program     static                          
      ___case_39_lbl00058   0x00cf90    program     static                          
       ___case_3_lbl00038   0x00cf80    program     static                          
      ___case_40_lbl00021   0x00cf80    program     static                          
      ___case_41_lbl00057   0x00cf90    program     static                          
      ___case_42_lbl00056   0x00cf90    program     static                          
      ___case_43_lbl00020   0x00cf80    program     static                          
      ___case_44_lbl00055   0x00cf90    program     static                          
      ___case_45_lbl00019   0x00cf80    program     static                          
      ___case_46_lbl00054   0x00cf90    program     static                          
      ___case_47_lbl00018   0x00cf80    program     static                          
      ___case_48_lbl00053   0x00cf90    program     static                          
      ___case_49_lbl00017   0x00cf80    program     static                          
       ___case_4_lbl00015   0x00cf70    program     static                          
      ___case_50_lbl00052   0x00cf90    program     static                          
      ___case_51_lbl00051   0x00cf90    program     static                          
      ___case_52_lbl00087   0x00cfa0    program     static                          
      ___case_53_lbl00086   0x00cfa0    program     static                          
      ___case_54_lbl00118   0x00cfc0    program     static                          
      ___case_55_lbl00117   0x00cfc0    program     static                          
      ___case_56_lbl00116   0x00cfc0    program     static                          
      ___case_57_lbl00115   0x00cfc0    program     static                          
      ___case_58_lbl00114   0x00cfc0    program     static                          
      ___case_59_lbl00113   0x00cfc0    program     static                          
       ___case_5_lbl00034   0x00cf80    program     static                          
      ___case_60_lbl00112   0x00cfc0    program     static                          
      ___case_61_lbl00111   0x00cfc0    program     static                          
      ___case_62_lbl00110   0x00cfc0    program     static                          
      ___case_63_lbl00109   0x00cfc0    program     static                          
      ___case_64_lbl00108   0x00cfc0    program     static                          
      ___case_65_lbl00050   0x00cf90    program     static                          
      ___case_66_lbl00049   0x00cf90    program     static                          
      ___case_67_lbl00048   0x00cf90    program     static                          
      ___case_68_lbl00047   0x00cf90    program     static                          
      ___case_69_lbl00046   0x00cf90    program     static                          
       ___case_6_lbl00014   0x00cf70    program     static                          
      ___case_70_lbl00045   0x00cf90    program     static                          
      ___case_71_lbl00044   0x00cf90    program     static                          
      ___case_72_lbl00043   0x00cf90    program     static                          
      ___case_73_lbl00042   0x00cf90    program     static                          
      ___case_74_lbl00041   0x00cf90    program     static                          
      ___case_75_lbl00040   0x00cf90    program     static                          
      ___case_76_lbl00107   0x00cfc0    program     static                          
      ___case_77_lbl00106   0x00cfc0    program     static                          
      ___case_78_lbl00105   0x00cfc0    program     static                          
      ___case_79_lbl00085   0x00cfa0    program     static                          
       ___case_7_lbl00036   0x00cf80    program     static                          
      ___case_80_lbl00119   0x00cfc0    program     static                          
      ___case_81_lbl00103   0x00cfc0    program     static                          
      ___case_82_lbl00084   0x00cfa0    program     static                          
      ___case_85_lbl00083   0x00cfa0    program     static                          
      ___case_86_lbl00102   0x00cfc0    program     static                          
      ___case_89_lbl00101   0x00cfc0    program     static                          
       ___case_8_lbl00012   0x00cf70    program     static                          
      ___case_90_lbl00097   0x00cfb0    program     static                          
      ___case_91_lbl00096   0x00cfb0    program     static                          
      ___case_92_lbl00095   0x00cfb0    program     static                          
      ___case_93_lbl00094   0x00cfb0    program     static                          
      ___case_94_lbl00082   0x00cfa0    program     static                          
      ___case_95_lbl00081   0x00cfa0    program     static                          
      ___case_96_lbl00092   0x00cfb0    program     static                          
      ___case_97_lbl00080   0x00cfa0    program     static                          
      ___case_98_lbl00079   0x00cfa0    program     static                          
      ___case_99_lbl00093   0x00cfb0    program     static                          
       ___case_9_lbl00035   0x00cf80    program     static                          
      ___default_lbl00126   0x00d00c    program     static                          
           ___do_lbl00003   0x00d00e    program     static                          
           ___do_lbl00004   0x00d016    program     static                          
           ___do_lbl00010   0x00ba10    program     static                          
           ___do_lbl00011   0x00ba16    program     static                          
           ___do_lbl00012   0x00ba06    program     static                          
           ___do_lbl00016   0x00ba58    program     static                          
           ___do_lbl00017   0x00ba5e    program     static                          
           ___do_lbl00018   0x00ba4e    program     static                          
           ___do_lbl00022   0x00bc68    program     static                          
           ___do_lbl00023   0x00bc70    program     static                          
           ___do_lbl00024   0x00bc58    program     static                          
           ___do_lbl00127   0x00ccdc    program     static                          
         ___else_lbl00057   0x00c0c0    program     static                          
         ___else_lbl00063   0x00c12a    program     static                          
         ___else_lbl00069   0x00c1b2    program     static                          
         ___else_lbl00074   0x00c274    program     static                          
         ___else_lbl00081   0x00c2e0    program     static                          
         ___else_lbl00084   0x00c354    program     static                          
         ___else_lbl00086   0x00c372    program     static                          
         ___else_lbl00125   0x00d002    program     static                          
         ___else_lbl00133   0x00d058    program     static                          
          ___for_lbl00004   0x00b9c0    program     static                          
          ___for_lbl00005   0x00b9cc    program     static                          
          ___for_lbl00006   0x00b9aa    program     static                          
          ___for_lbl00007   0x00b9ec    program     static                          
          ___for_lbl00008   0x00b9f8    program     static                          
          ___for_lbl00009   0x00b9d6    program     static                          
          ___for_lbl00013   0x00ba34    program     static                          
          ___for_lbl00014   0x00ba40    program     static                          
          ___for_lbl00015   0x00ba1e    program     static                          
          ___for_lbl00019   0x00ba7c    program     static                          
          ___for_lbl00019   0x00d412    program     static                          
          ___for_lbl00020   0x00ba88    program     static                          
          ___for_lbl00020   0x00d41e    program     static                          
          ___for_lbl00021   0x00ba66    program     static                          
          ___for_lbl00023   0x00d378    program     static                          
           ___if_lbl00002   0x00ccdc    program     static                          
           ___if_lbl00004   0x00d0f8    program     static                          
           ___if_lbl00005   0x00ccf2    program     static                          
           ___if_lbl00006   0x00cd06    program     static                          
           ___if_lbl00007   0x00cd1a    program     static                          
           ___if_lbl00007   0x00d17c    program     static                          
           ___if_lbl00008   0x00d1c6    program     static                          
           ___if_lbl00008   0x00cd2e    program     static                          
           ___if_lbl00009   0x00cd42    program     static                          
           ___if_lbl00014   0x00d286    program     static                          
           ___if_lbl00017   0x00d31e    program     static                          
           ___if_lbl00055   0x00c0ce    program     static                          
           ___if_lbl00056   0x00c0ce    program     static                          
           ___if_lbl00058   0x00c0ce    program     static                          
           ___if_lbl00061   0x00c10a    program     static                          
           ___if_lbl00062   0x00c12e    program     static                          
           ___if_lbl00064   0x00c12e    program     static                          
           ___if_lbl00065   0x00c132    program     static                          
           ___if_lbl00066   0x00c136    program     static                          
           ___if_lbl00067   0x00c18e    program     static                          
           ___if_lbl00068   0x00c1d8    program     static                          
           ___if_lbl00070   0x00c21e    program     static                          
           ___if_lbl00073   0x00c2ac    program     static                          
           ___if_lbl00075   0x00c2de    program     static                          
           ___if_lbl00077   0x00c32a    program     static                          
           ___if_lbl00078   0x00c332    program     static                          
           ___if_lbl00079   0x00c332    program     static                          
           ___if_lbl00080   0x00c332    program     static                          
           ___if_lbl00082   0x00c344    program     static                          
           ___if_lbl00083   0x00c368    program     static                          
           ___if_lbl00085   0x00c37c    program     static                          
           ___if_lbl00087   0x00c398    program     static                          
           ___if_lbl00088   0x00c398    program     static                          
           ___if_lbl00089   0x00c398    program     static                          
           ___if_lbl00090   0x00c3b0    program     static                          
           ___if_lbl00091   0x00c3b0    program     static                          
           ___if_lbl00092   0x00c3b0    program     static                          
           ___if_lbl00124   0x00d00a    program     static                          
           ___if_lbl00132   0x00d060    program     static                          
       ___return_lbl00000   0x000004    program     static                          
       ___return_lbl00000   0x00e234    program     static                          
       ___return_lbl00000   0x00ab74    program     static                          
       ___return_lbl00001   0x00d060    program     static                          
       ___return_lbl00001   0x00d340    program     static                          
       ___return_lbl00001   0x00e2ac    program     static                          
       ___return_lbl00002   0x00e136    program     static                          
       ___return_lbl00003   0x00bc70    program     static                          
       ___return_lbl00018   0x00d41e    program     static                          
       ___return_lbl00049   0x00be8e    program     static                          
       ___return_lbl00050   0x00bef0    program     static                          
       ___return_lbl00051   0x00bf50    program     static                          
       ___return_lbl00052   0x00bff2    program     static                          
       ___return_lbl00054   0x00c3b4    program     static                          
       ___return_lbl00093   0x00000c    program     static                          
       ___return_lbl00094   0x00001c    program     static                          
   ___switchexit_lbl00010   0x00d00e    program     static                          
        ___while_lbl00001   0x00ab5a    program     static                          
        ___while_lbl00002   0x00ab74    program     static                          
        ___while_lbl00002   0x00d08a    program     static                          
        ___while_lbl00003   0x00d340    program     static                          
        ___while_lbl00005   0x00d122    program     static                          
        ___while_lbl00006   0x00d32a    program     static                          
        ___while_lbl00009   0x00d1ec    program     static                          
        ___while_lbl00010   0x00d248    program     static                          
        ___while_lbl00012   0x00d26e    program     static                          
        ___while_lbl00013   0x00d320    program     static                          
        ___while_lbl00015   0x00d2a4    program     static                          
        ___while_lbl00016   0x00d2cc    program     static                          
        ___while_lbl00021   0x00d39a    program     static                          
        ___while_lbl00022   0x00d406    program     static                          
        ___while_lbl00071   0x00c21e    program     static                          
        ___while_lbl00072   0x00c346    program     static                          
                   __init   0x00e2be    program     extern C:\MCC18\src\traditional\stdclib\__init.c
                   __pa_0   0x00e18a    program     static F:\Microchip Solutions\ZigBee2006Res\microchip\Common\MSPI.c
                   __pa_0   0x003332    program     static F:\Microchip Solutions\ZigBee2006Res\microchip\ZigBeeStack\zNWK.c
                   __pa_0   0x00ddd0    program     static F:\Microchip Solutions\ZigBee2006Res\microchip\Common\Console.c
                   __pa_0   0x00c418    program     static F:\Microchip Solutions\ZigBee2006Res\microchip\ZigBeeStack\zPHY_MRF24J40.c
                   __pa_0   0x00da28    program     static F:\Microchip Solutions\ZigBee2006Res\microchip\Common\sralloc.c
                   __pa_0   0x00609a    program     static F:\Microchip Solutions\ZigBee2006Res\microchip\ZigBeeStack\zZDO.C
                   __pa_0   0x008858    program     static F:\Microchip Solutions\ZigBee2006Res\microchip\ZigBeeStack\zAPS.c
                   __pa_0   0x00b76e    program     static F:\Microchip Solutions\ZigBee2006Res\DemoPIC18Coordinator\Coordinator.c
                   __pa_0   0x00a582    program     static F:\Microchip Solutions\ZigBee2006Res\microchip\ZigBeeStack\zMAC_MRF24J40.c
                   __pa_1   0x00c4a8    program     static F:\Microchip Solutions\ZigBee2006Res\microchip\ZigBeeStack\zPHY_MRF24J40.c
                   __pa_1   0x00b774    program     static F:\Microchip Solutions\ZigBee2006Res\DemoPIC18Coordinator\Coordinator.c
                   __pa_1   0x00885c    program     static F:\Microchip Solutions\ZigBee2006Res\microchip\ZigBeeStack\zAPS.c
                   __pa_1   0x003338    program     static F:\Microchip Solutions\ZigBee2006Res\microchip\ZigBeeStack\zNWK.c
                   __pa_1   0x00a58e    program     static F:\Microchip Solutions\ZigBee2006Res\microchip\ZigBeeStack\zMAC_MRF24J40.c
                   __pa_1   0x00dde2    program     static F:\Microchip Solutions\ZigBee2006Res\microchip\Common\Console.c
                   __pa_1   0x0060a0    program     static F:\Microchip Solutions\ZigBee2006Res\microchip\ZigBeeStack\zZDO.C
                   __pa_1   0x00da2e    program     static F:\Microchip Solutions\ZigBee2006Res\microchip\Common\sralloc.c
                   __pa_1   0x00e19c    program     static F:\Microchip Solutions\ZigBee2006Res\microchip\Common\MSPI.c
                  __pa_10   0x00b7f4    program     static F:\Microchip Solutions\ZigBee2006Res\DemoPIC18Coordinator\Coordinator.c
                  __pa_10   0x00a60e    program     static F:\Microchip Solutions\ZigBee2006Res\microchip\ZigBeeStack\zMAC_MRF24J40.c
                  __pa_10   0x0088b6    program     static F:\Microchip Solutions\ZigBee2006Res\microchip\ZigBeeStack\zAPS.c
                  __pa_10   0x0060fa    program     static F:\Microchip Solutions\ZigBee2006Res\microchip\ZigBeeStack\zZDO.C
                  __pa_10   0x0033c0    program     static F:\Microchip Solutions\ZigBee2006Res\microchip\ZigBeeStack\zNWK.c
                 __pa_100   0x003836    program     static F:\Microchip Solutions\ZigBee2006Res\microchip\ZigBeeStack\zNWK.c
                 __pa_100   0x008cfa    program     static F:\Microchip Solutions\ZigBee2006Res\microchip\ZigBeeStack\zAPS.c
                 __pa_100   0x006634    program     static F:\Microchip Solutions\ZigBee2006Res\microchip\ZigBeeStack\zZDO.C
                 __pa_101   0x003846    program     static F:\Microchip Solutions\ZigBee2006Res\microchip\ZigBeeStack\zNWK.c
                 __pa_101   0x008d02    program     static F:\Microchip Solutions\ZigBee2006Res\microchip\ZigBeeStack\zAPS.c
                 __pa_101   0x006644    program     static F:\Microchip Solutions\ZigBee2006Res\microchip\ZigBeeStack\zZDO.C
                 __pa_102   0x003850    program     static F:\Microchip Solutions\ZigBee2006Res\microchip\ZigBeeStack\zNWK.c
                 __pa_102   0x008d08    program     static F:\Microchip Solutions\ZigBee2006Res\microchip\ZigBeeStack\zAPS.c
                 __pa_102   0x00664e    program     static F:\Microchip Solutions\ZigBee2006Res\microchip\ZigBeeStack\zZDO.C
                 __pa_103   0x006656    program     static F:\Microchip Solutions\ZigBee2006Res\microchip\ZigBeeStack\zZDO.C
                 __pa_103   0x008d0e    program     static F:\Microchip Solutions\ZigBee2006Res\microchip\ZigBeeStack\zAPS.c
                 __pa_103   0x003860    program     static F:\Microchip Solutions\ZigBee2006Res\microchip\ZigBeeStack\zNWK.c
                 __pa_104   0x008d2c    program     static F:\Microchip Solutions\ZigBee2006Res\microchip\ZigBeeStack\zAPS.c
                 __pa_104   0x00665e    program     static F:\Microchip Solutions\ZigBee2006Res\microchip\ZigBeeStack\zZDO.C
                 __pa_104   0x003870    program     static F:\Microchip Solutions\ZigBee2006Res\microchip\ZigBeeStack\zNWK.c
                 __pa_105   0x008d3c    program     static F:\Microchip Solutions\ZigBee2006Res\microchip\ZigBeeStack\zAPS.c
                 __pa_105   0x003880    program     static F:\Microchip Solutions\ZigBee2006Res\microchip\ZigBeeStack\zNWK.c
                 __pa_105   0x006666    program     static F:\Microchip Solutions\ZigBee2006Res\microchip\ZigBeeStack\zZDO.C
                 __pa_106   0x008d54    program     static F:\Microchip Solutions\ZigBee2006Res\microchip\ZigBeeStack\zAPS.c
                 __pa_106   0x003890    program     static F:\Microchip Solutions\ZigBee2006Res\microchip\ZigBeeStack\zNWK.c
                 __pa_106   0x00666e    program     static F:\Microchip Solutions\ZigBee2006Res\microchip\ZigBeeStack\zZDO.C
                 __pa_107   0x008d60    program     static F:\Microchip Solutions\ZigBee2006Res\microchip\ZigBeeStack\zAPS.c
                 __pa_107   0x006676    program     static F:\Microchip Solutions\ZigBee2006Res\microchip\ZigBeeStack\zZDO.C
                 __pa_107   0x003898    program     static F:\Microchip Solutions\ZigBee2006Res\microchip\ZigBeeStack\zNWK.c
                 __pa_108   0x006684    program     static F:\Microchip Solutions\ZigBee2006Res\microchip\ZigBeeStack\zZDO.C
                 __pa_108   0x0038a0    program     static F:\Microchip Solutions\ZigBee2006Res\microchip\ZigBeeStack\zNWK.c
                 __pa_108   0x008d6c    program     static F:\Microchip Solutions\ZigBee2006Res\microchip\ZigBeeStack\zAPS.c
                 __pa_109   0x0038ae    program     static F:\Microchip Solutions\ZigBee2006Res\microchip\ZigBeeStack\zNWK.c
                 __pa_109   0x008d74    program     static F:\Microchip Solutions\ZigBee2006Res\microchip\ZigBeeStack\zAPS.c
                 __pa_109   0x006692    program     static F:\Microchip Solutions\ZigBee2006Res\microchip\ZigBeeStack\zZDO.C
                  __pa_11   0x0088de    program     static F:\Microchip Solutions\ZigBee2006Res\microchip\ZigBeeStack\zAPS.c
                  __pa_11   0x00b7fa    program     static F:\Microchip Solutions\ZigBee2006Res\DemoPIC18Coordinator\Coordinator.c
                  __pa_11   0x0033cc    program     static F:\Microchip Solutions\ZigBee2006Res\microchip\ZigBeeStack\zNWK.c
                  __pa_11   0x00a62c    program     static F:\Microchip Solutions\ZigBee2006Res\microchip\ZigBeeStack\zMAC_MRF24J40.c
                  __pa_11   0x00610c    program     static F:\Microchip Solutions\ZigBee2006Res\microchip\ZigBeeStack\zZDO.C
                 __pa_110   0x008d82    program     static F:\Microchip Solutions\ZigBee2006Res\microchip\ZigBeeStack\zAPS.c
                 __pa_110   0x0038b6    program     static F:\Microchip Solutions\ZigBee2006Res\microchip\ZigBeeStack\zNWK.c
                 __pa_110   0x0066a0    program     static F:\Microchip Solutions\ZigBee2006Res\microchip\ZigBeeStack\zZDO.C
                 __pa_111   0x008d96    program     static F:\Microchip Solutions\ZigBee2006Res\microchip\ZigBeeStack\zAPS.c
                 __pa_111   0x0066ae    program     static F:\Microchip Solutions\ZigBee2006Res\microchip\ZigBeeStack\zZDO.C
                 __pa_111   0x0038c4    program     static F:\Microchip Solutions\ZigBee2006Res\microchip\ZigBeeStack\zNWK.c
                 __pa_112   0x008d9c    program     static F:\Microchip Solutions\ZigBee2006Res\microchip\ZigBeeStack\zAPS.c
                 __pa_112   0x0038cc    program     static F:\Microchip Solutions\ZigBee2006Res\microchip\ZigBeeStack\zNWK.c
                 __pa_112   0x0066b6    program     static F:\Microchip Solutions\ZigBee2006Res\microchip\ZigBeeStack\zZDO.C
                 __pa_113   0x0066c4    program     static F:\Microchip Solutions\ZigBee2006Res\microchip\ZigBeeStack\zZDO.C
                 __pa_113   0x008da8    program     static F:\Microchip Solutions\ZigBee2006Res\microchip\ZigBeeStack\zAPS.c
                 __pa_113   0x0038da    program     static F:\Microchip Solutions\ZigBee2006Res\microchip\ZigBeeStack\zNWK.c
                 __pa_114   0x008db6    program     static F:\Microchip Solutions\ZigBee2006Res\microchip\ZigBeeStack\zAPS.c
                 __pa_114   0x0066d2    program     static F:\Microchip Solutions\ZigBee2006Res\microchip\ZigBeeStack\zZDO.C
                 __pa_114   0x0038e8    program     static F:\Microchip Solutions\ZigBee2006Res\microchip\ZigBeeStack\zNWK.c
                 __pa_115   0x0066e0    program     static F:\Microchip Solutions\ZigBee2006Res\microchip\ZigBeeStack\zZDO.C
                 __pa_115   0x008dbe    program     static F:\Microchip Solutions\ZigBee2006Res\microchip\ZigBeeStack\zAPS.c
                 __pa_115   0x0038f6    program     static F:\Microchip Solutions\ZigBee2006Res\microchip\ZigBeeStack\zNWK.c
                 __pa_116   0x008dc8    program     static F:\Microchip Solutions\ZigBee2006Res\microchip\ZigBeeStack\zAPS.c
                 __pa_116   0x0066ee    program     static F:\Microchip Solutions\ZigBee2006Res\microchip\ZigBeeStack\zZDO.C
                 __pa_116   0x003904    program     static F:\Microchip Solutions\ZigBee2006Res\microchip\ZigBeeStack\zNWK.c
                 __pa_117   0x008dd2    program     static F:\Microchip Solutions\ZigBee2006Res\microchip\ZigBeeStack\zAPS.c
                 __pa_117   0x00390e    program     static F:\Microchip Solutions\ZigBee2006Res\microchip\ZigBeeStack\zNWK.c
                 __pa_117   0x0066f6    program     static F:\Microchip Solutions\ZigBee2006Res\microchip\ZigBeeStack\zZDO.C
                 __pa_118   0x008dd8    program     static F:\Microchip Solutions\ZigBee2006Res\microchip\ZigBeeStack\zAPS.c
                 __pa_118   0x003918    program     static F:\Microchip Solutions\ZigBee2006Res\microchip\ZigBeeStack\zNWK.c
                 __pa_118   0x0066fe    program     static F:\Microchip Solutions\ZigBee2006Res\microchip\ZigBeeStack\zZDO.C
                 __pa_119   0x008de0    program     static F:\Microchip Solutions\ZigBee2006Res\microchip\ZigBeeStack\zAPS.c
                 __pa_119   0x006708    program     static F:\Microchip Solutions\ZigBee2006Res\microchip\ZigBeeStack\zZDO.C
                 __pa_119   0x003922    program     static F:\Microchip Solutions\ZigBee2006Res\microchip\ZigBeeStack\zNWK.c
                  __pa_12   0x00a636    program     static F:\Microchip Solutions\ZigBee2006Res\microchip\ZigBeeStack\zMAC_MRF24J40.c
                  __pa_12   0x006112    program     static F:\Microchip Solutions\ZigBee2006Res\microchip\ZigBeeStack\zZDO.C
                  __pa_12   0x00b802    program     static F:\Microchip Solutions\ZigBee2006Res\DemoPIC18Coordinator\Coordinator.c
                  __pa_12   0x0033e2    program     static F:\Microchip Solutions\ZigBee2006Res\microchip\ZigBeeStack\zNWK.c
                  __pa_12   0x0088e6    program     static F:\Microchip Solutions\ZigBee2006Res\microchip\ZigBeeStack\zAPS.c
                 __pa_120   0x00392c    program     static F:\Microchip Solutions\ZigBee2006Res\microchip\ZigBeeStack\zNWK.c
                 __pa_120   0x006712    program     static F:\Microchip Solutions\ZigBee2006Res\microchip\ZigBeeStack\zZDO.C
                 __pa_120   0x008de8    program     static F:\Microchip Solutions\ZigBee2006Res\microchip\ZigBeeStack\zAPS.c
                 __pa_121   0x00671c    program     static F:\Microchip Solutions\ZigBee2006Res\microchip\ZigBeeStack\zZDO.C
                 __pa_121   0x003934    program     static F:\Microchip Solutions\ZigBee2006Res\microchip\ZigBeeStack\zNWK.c
                 __pa_121   0x008df0    program     static F:\Microchip Solutions\ZigBee2006Res\microchip\ZigBeeStack\zAPS.c
                 __pa_122   0x00393c    program     static F:\Microchip Solutions\ZigBee2006Res\microchip\ZigBeeStack\zNWK.c
                 __pa_122   0x006724    program     static F:\Microchip Solutions\ZigBee2006Res\microchip\ZigBeeStack\zZDO.C
                 __pa_122   0x008df8    program     static F:\Microchip Solutions\ZigBee2006Res\microchip\ZigBeeStack\zAPS.c
                 __pa_123   0x003944    program     static F:\Microchip Solutions\ZigBee2006Res\microchip\ZigBeeStack\zNWK.c
                 __pa_123   0x00672c    program     static F:\Microchip Solutions\ZigBee2006Res\microchip\ZigBeeStack\zZDO.C
                 __pa_123   0x008e06    program     static F:\Microchip Solutions\ZigBee2006Res\microchip\ZigBeeStack\zAPS.c
                 __pa_124   0x008e0c    program     static F:\Microchip Solutions\ZigBee2006Res\microchip\ZigBeeStack\zAPS.c
                 __pa_124   0x006736    program     static F:\Microchip Solutions\ZigBee2006Res\microchip\ZigBeeStack\zZDO.C
                 __pa_124   0x00394c    program     static F:\Microchip Solutions\ZigBee2006Res\microchip\ZigBeeStack\zNWK.c
                 __pa_125   0x008e18    program     static F:\Microchip Solutions\ZigBee2006Res\microchip\ZigBeeStack\zAPS.c
                 __pa_125   0x006740    program     static F:\Microchip Solutions\ZigBee2006Res\microchip\ZigBeeStack\zZDO.C
                 __pa_125   0x00395a    program     static F:\Microchip Solutions\ZigBee2006Res\microchip\ZigBeeStack\zNWK.c
                 __pa_126   0x008e1e    program     static F:\Microchip Solutions\ZigBee2006Res\microchip\ZigBeeStack\zAPS.c
                 __pa_126   0x006748    program     static F:\Microchip Solutions\ZigBee2006Res\microchip\ZigBeeStack\zZDO.C
                 __pa_126   0x003970    program     static F:\Microchip Solutions\ZigBee2006Res\microchip\ZigBeeStack\zNWK.c
                 __pa_127   0x008e2a    program     static F:\Microchip Solutions\ZigBee2006Res\microchip\ZigBeeStack\zAPS.c
                 __pa_127   0x006756    program     static F:\Microchip Solutions\ZigBee2006Res\microchip\ZigBeeStack\zZDO.C
                 __pa_127   0x003976    program     static F:\Microchip Solutions\ZigBee2006Res\microchip\ZigBeeStack\zNWK.c
                 __pa_128   0x00397c    program     static F:\Microchip Solutions\ZigBee2006Res\microchip\ZigBeeStack\zNWK.c
                 __pa_128   0x00675c    program     static F:\Microchip Solutions\ZigBee2006Res\microchip\ZigBeeStack\zZDO.C
                 __pa_128   0x008e36    program     static F:\Microchip Solutions\ZigBee2006Res\microchip\ZigBeeStack\zAPS.c
                 __pa_129   0x006764    program     static F:\Microchip Solutions\ZigBee2006Res\microchip\ZigBeeStack\zZDO.C
                 __pa_129   0x003986    program     static F:\Microchip Solutions\ZigBee2006Res\microchip\ZigBeeStack\zNWK.c
                 __pa_129   0x008e42    program     static F:\Microchip Solutions\ZigBee2006Res\microchip\ZigBeeStack\zAPS.c
                  __pa_13   0x0033ea    program     static F:\Microchip Solutions\ZigBee2006Res\microchip\ZigBeeStack\zNWK.c
                  __pa_13   0x006140    program     static F:\Microchip Solutions\ZigBee2006Res\microchip\ZigBeeStack\zZDO.C
                  __pa_13   0x00a666    program     static F:\Microchip Solutions\ZigBee2006Res\microchip\ZigBeeStack\zMAC_MRF24J40.c
                  __pa_13   0x00b818    program     static F:\Microchip Solutions\ZigBee2006Res\DemoPIC18Coordinator\Coordinator.c
                  __pa_13   0x0088ec    program     static F:\Microchip Solutions\ZigBee2006Res\microchip\ZigBeeStack\zAPS.c
                 __pa_130   0x008e50    program     static F:\Microchip Solutions\ZigBee2006Res\microchip\ZigBeeStack\zAPS.c
                 __pa_130   0x00676a    program     static F:\Microchip Solutions\ZigBee2006Res\microchip\ZigBeeStack\zZDO.C
                 __pa_130   0x00398c    program     static F:\Microchip Solutions\ZigBee2006Res\microchip\ZigBeeStack\zNWK.c
                 __pa_131   0x006770    program     static F:\Microchip Solutions\ZigBee2006Res\microchip\ZigBeeStack\zZDO.C
                 __pa_131   0x008e5e    program     static F:\Microchip Solutions\ZigBee2006Res\microchip\ZigBeeStack\zAPS.c
                 __pa_131   0x003996    program     static F:\Microchip Solutions\ZigBee2006Res\microchip\ZigBeeStack\zNWK.c
                 __pa_132   0x006776    program     static F:\Microchip Solutions\ZigBee2006Res\microchip\ZigBeeStack\zZDO.C
                 __pa_132   0x00399e    program     static F:\Microchip Solutions\ZigBee2006Res\microchip\ZigBeeStack\zNWK.c
                 __pa_132   0x008e68    program     static F:\Microchip Solutions\ZigBee2006Res\microchip\ZigBeeStack\zAPS.c
                 __pa_133   0x008e70    program     static F:\Microchip Solutions\ZigBee2006Res\microchip\ZigBeeStack\zAPS.c
                 __pa_133   0x00677c    program     static F:\Microchip Solutions\ZigBee2006Res\microchip\ZigBeeStack\zZDO.C
                 __pa_133   0x0039a6    program     static F:\Microchip Solutions\ZigBee2006Res\microchip\ZigBeeStack\zNWK.c
                 __pa_134   0x008e78    program     static F:\Microchip Solutions\ZigBee2006Res\microchip\ZigBeeStack\zAPS.c
                 __pa_134   0x006792    program     static F:\Microchip Solutions\ZigBee2006Res\microchip\ZigBeeStack\zZDO.C
                 __pa_134   0x0039b6    program     static F:\Microchip Solutions\ZigBee2006Res\microchip\ZigBeeStack\zNWK.c
                 __pa_135   0x008e80    program     static F:\Microchip Solutions\ZigBee2006Res\microchip\ZigBeeStack\zAPS.c
                 __pa_135   0x00679c    program     static F:\Microchip Solutions\ZigBee2006Res\microchip\ZigBeeStack\zZDO.C
                 __pa_135   0x0039bc    program     static F:\Microchip Solutions\ZigBee2006Res\microchip\ZigBeeStack\zNWK.c
                 __pa_136   0x008e88    program     static F:\Microchip Solutions\ZigBee2006Res\microchip\ZigBeeStack\zAPS.c
                 __pa_136   0x0067bc    program     static F:\Microchip Solutions\ZigBee2006Res\microchip\ZigBeeStack\zZDO.C
                 __pa_136   0x0039c2    program     static F:\Microchip Solutions\ZigBee2006Res\microchip\ZigBeeStack\zNWK.c
                 __pa_137   0x0039c8    program     static F:\Microchip Solutions\ZigBee2006Res\microchip\ZigBeeStack\zNWK.c
                 __pa_137   0x008e8e    program     static F:\Microchip Solutions\ZigBee2006Res\microchip\ZigBeeStack\zAPS.c
                 __pa_137   0x0067d6    program     static F:\Microchip Solutions\ZigBee2006Res\microchip\ZigBeeStack\zZDO.C
                 __pa_138   0x0067e2    program     static F:\Microchip Solutions\ZigBee2006Res\microchip\ZigBeeStack\zZDO.C
                 __pa_138   0x008e96    program     static F:\Microchip Solutions\ZigBee2006Res\microchip\ZigBeeStack\zAPS.c
                 __pa_138   0x0039d2    program     static F:\Microchip Solutions\ZigBee2006Res\microchip\ZigBeeStack\zNWK.c
                 __pa_139   0x0067ec    program     static F:\Microchip Solutions\ZigBee2006Res\microchip\ZigBeeStack\zZDO.C
                 __pa_139   0x008e9e    program     static F:\Microchip Solutions\ZigBee2006Res\microchip\ZigBeeStack\zAPS.c
                 __pa_139   0x0039dc    program     static F:\Microchip Solutions\ZigBee2006Res\microchip\ZigBeeStack\zNWK.c
                  __pa_14   0x00b826    program     static F:\Microchip Solutions\ZigBee2006Res\DemoPIC18Coordinator\Coordinator.c
                  __pa_14   0x00a66e    program     static F:\Microchip Solutions\ZigBee2006Res\microchip\ZigBeeStack\zMAC_MRF24J40.c
                  __pa_14   0x00614c    program     static F:\Microchip Solutions\ZigBee2006Res\microchip\ZigBeeStack\zZDO.C
                  __pa_14   0x0033f6    program     static F:\Microchip Solutions\ZigBee2006Res\microchip\ZigBeeStack\zNWK.c
                  __pa_14   0x0088f4    program     static F:\Microchip Solutions\ZigBee2006Res\microchip\ZigBeeStack\zAPS.c
                 __pa_140   0x006804    program     static F:\Microchip Solutions\ZigBee2006Res\microchip\ZigBeeStack\zZDO.C
                 __pa_140   0x0039e8    program     static F:\Microchip Solutions\ZigBee2006Res\microchip\ZigBeeStack\zNWK.c
                 __pa_140   0x008ea6    program     static F:\Microchip Solutions\ZigBee2006Res\microchip\ZigBeeStack\zAPS.c
                 __pa_141   0x0039fa    program     static F:\Microchip Solutions\ZigBee2006Res\microchip\ZigBeeStack\zNWK.c
                 __pa_141   0x006812    program     static F:\Microchip Solutions\ZigBee2006Res\microchip\ZigBeeStack\zZDO.C
                 __pa_141   0x008eb0    program     static F:\Microchip Solutions\ZigBee2006Res\microchip\ZigBeeStack\zAPS.c
                 __pa_142   0x003a02    program     static F:\Microchip Solutions\ZigBee2006Res\microchip\ZigBeeStack\zNWK.c
                 __pa_142   0x008eb8    program     static F:\Microchip Solutions\ZigBee2006Res\microchip\ZigBeeStack\zAPS.c
                 __pa_142   0x006818    program     static F:\Microchip Solutions\ZigBee2006Res\microchip\ZigBeeStack\zZDO.C
                 __pa_143   0x006824    program     static F:\Microchip Solutions\ZigBee2006Res\microchip\ZigBeeStack\zZDO.C
                 __pa_143   0x008ec0    program     static F:\Microchip Solutions\ZigBee2006Res\microchip\ZigBeeStack\zAPS.c
                 __pa_143   0x003a08    program     static F:\Microchip Solutions\ZigBee2006Res\microchip\ZigBeeStack\zNWK.c
                 __pa_144   0x008ec6    program     static F:\Microchip Solutions\ZigBee2006Res\microchip\ZigBeeStack\zAPS.c
                 __pa_144   0x003a28    program     static F:\Microchip Solutions\ZigBee2006Res\microchip\ZigBeeStack\zNWK.c
                 __pa_144   0x00682e    program     static F:\Microchip Solutions\ZigBee2006Res\microchip\ZigBeeStack\zZDO.C
                 __pa_145   0x003a2e    program     static F:\Microchip Solutions\ZigBee2006Res\microchip\ZigBeeStack\zNWK.c
                 __pa_145   0x008ed0    program     static F:\Microchip Solutions\ZigBee2006Res\microchip\ZigBeeStack\zAPS.c
                 __pa_145   0x006832    program     static F:\Microchip Solutions\ZigBee2006Res\microchip\ZigBeeStack\zZDO.C
                 __pa_146   0x003a34    program     static F:\Microchip Solutions\ZigBee2006Res\microchip\ZigBeeStack\zNWK.c
                 __pa_146   0x008ed8    program     static F:\Microchip Solutions\ZigBee2006Res\microchip\ZigBeeStack\zAPS.c
                 __pa_146   0x00683c    program     static F:\Microchip Solutions\ZigBee2006Res\microchip\ZigBeeStack\zZDO.C
                 __pa_147   0x008ee2    program     static F:\Microchip Solutions\ZigBee2006Res\microchip\ZigBeeStack\zAPS.c
                 __pa_147   0x003a46    program     static F:\Microchip Solutions\ZigBee2006Res\microchip\ZigBeeStack\zNWK.c
                 __pa_147   0x006842    program     static F:\Microchip Solutions\ZigBee2006Res\microchip\ZigBeeStack\zZDO.C
                 __pa_148   0x003a4c    program     static F:\Microchip Solutions\ZigBee2006Res\microchip\ZigBeeStack\zNWK.c
                 __pa_148   0x006848    program     static F:\Microchip Solutions\ZigBee2006Res\microchip\ZigBeeStack\zZDO.C
                 __pa_148   0x008eea    program     static F:\Microchip Solutions\ZigBee2006Res\microchip\ZigBeeStack\zAPS.c
                 __pa_149   0x003a58    program     static F:\Microchip Solutions\ZigBee2006Res\microchip\ZigBeeStack\zNWK.c
                 __pa_149   0x008efe    program     static F:\Microchip Solutions\ZigBee2006Res\microchip\ZigBeeStack\zAPS.c
                 __pa_149   0x00685a    program     static F:\Microchip Solutions\ZigBee2006Res\microchip\ZigBeeStack\zZDO.C
                  __pa_15   0x00b838    program     static F:\Microchip Solutions\ZigBee2006Res\DemoPIC18Coordinator\Coordinator.c
                  __pa_15   0x006152    program     static F:\Microchip Solutions\ZigBee2006Res\microchip\ZigBeeStack\zZDO.C
                  __pa_15   0x0033fe    program     static F:\Microchip Solutions\ZigBee2006Res\microchip\ZigBeeStack\zNWK.c
                  __pa_15   0x00a674    program     static F:\Microchip Solutions\ZigBee2006Res\microchip\ZigBeeStack\zMAC_MRF24J40.c
                  __pa_15   0x008900    program     static F:\Microchip Solutions\ZigBee2006Res\microchip\ZigBeeStack\zAPS.c
                 __pa_150   0x008f08    program     static F:\Microchip Solutions\ZigBee2006Res\microchip\ZigBeeStack\zAPS.c
                 __pa_150   0x006864    program     static F:\Microchip Solutions\ZigBee2006Res\microchip\ZigBeeStack\zZDO.C
                 __pa_150   0x003a60    program     static F:\Microchip Solutions\ZigBee2006Res\microchip\ZigBeeStack\zNWK.c
                 __pa_151   0x008f0e    program     static F:\Microchip Solutions\ZigBee2006Res\microchip\ZigBeeStack\zAPS.c
                 __pa_151   0x003a68    program     static F:\Microchip Solutions\ZigBee2006Res\microchip\ZigBeeStack\zNWK.c
                 __pa_151   0x00686e    program     static F:\Microchip Solutions\ZigBee2006Res\microchip\ZigBeeStack\zZDO.C
                 __pa_152   0x008f16    program     static F:\Microchip Solutions\ZigBee2006Res\microchip\ZigBeeStack\zAPS.c
                 __pa_152   0x003a74    program     static F:\Microchip Solutions\ZigBee2006Res\microchip\ZigBeeStack\zNWK.c
                 __pa_152   0x006874    program     static F:\Microchip Solutions\ZigBee2006Res\microchip\ZigBeeStack\zZDO.C
                 __pa_153   0x00687e    program     static F:\Microchip Solutions\ZigBee2006Res\microchip\ZigBeeStack\zZDO.C
                 __pa_153   0x003a7c    program     static F:\Microchip Solutions\ZigBee2006Res\microchip\ZigBeeStack\zNWK.c
                 __pa_153   0x008f1c    program     static F:\Microchip Solutions\ZigBee2006Res\microchip\ZigBeeStack\zAPS.c
                 __pa_154   0x003a84    program     static F:\Microchip Solutions\ZigBee2006Res\microchip\ZigBeeStack\zNWK.c
                 __pa_154   0x008f24    program     static F:\Microchip Solutions\ZigBee2006Res\microchip\ZigBeeStack\zAPS.c
                 __pa_154   0x00688e    program     static F:\Microchip Solutions\ZigBee2006Res\microchip\ZigBeeStack\zZDO.C
                 __pa_155   0x003a8c    program     static F:\Microchip Solutions\ZigBee2006Res\microchip\ZigBeeStack\zNWK.c
                 __pa_155   0x008f2c    program     static F:\Microchip Solutions\ZigBee2006Res\microchip\ZigBeeStack\zAPS.c
                 __pa_155   0x00689a    program     static F:\Microchip Solutions\ZigBee2006Res\microchip\ZigBeeStack\zZDO.C
                 __pa_156   0x003a94    program     static F:\Microchip Solutions\ZigBee2006Res\microchip\ZigBeeStack\zNWK.c
                 __pa_156   0x008f3e    program     static F:\Microchip Solutions\ZigBee2006Res\microchip\ZigBeeStack\zAPS.c
                 __pa_156   0x0068a4    program     static F:\Microchip Solutions\ZigBee2006Res\microchip\ZigBeeStack\zZDO.C
                 __pa_157   0x003a9c    program     static F:\Microchip Solutions\ZigBee2006Res\microchip\ZigBeeStack\zNWK.c
                 __pa_157   0x008f46    program     static F:\Microchip Solutions\ZigBee2006Res\microchip\ZigBeeStack\zAPS.c
                 __pa_157   0x0068ac    program     static F:\Microchip Solutions\ZigBee2006Res\microchip\ZigBeeStack\zZDO.C
                 __pa_158   0x003ab6    program     static F:\Microchip Solutions\ZigBee2006Res\microchip\ZigBeeStack\zNWK.c
                 __pa_158   0x0068b6    program     static F:\Microchip Solutions\ZigBee2006Res\microchip\ZigBeeStack\zZDO.C
                 __pa_158   0x008f4c    program     static F:\Microchip Solutions\ZigBee2006Res\microchip\ZigBeeStack\zAPS.c
                 __pa_159   0x008f58    program     static F:\Microchip Solutions\ZigBee2006Res\microchip\ZigBeeStack\zAPS.c
                 __pa_159   0x003ace    program     static F:\Microchip Solutions\ZigBee2006Res\microchip\ZigBeeStack\zNWK.c
                 __pa_159   0x0068c6    program     static F:\Microchip Solutions\ZigBee2006Res\microchip\ZigBeeStack\zZDO.C
                  __pa_16   0x00b842    program     static F:\Microchip Solutions\ZigBee2006Res\DemoPIC18Coordinator\Coordinator.c
                  __pa_16   0x00615e    program     static F:\Microchip Solutions\ZigBee2006Res\microchip\ZigBeeStack\zZDO.C
                  __pa_16   0x003406    program     static F:\Microchip Solutions\ZigBee2006Res\microchip\ZigBeeStack\zNWK.c
                  __pa_16   0x008912    program     static F:\Microchip Solutions\ZigBee2006Res\microchip\ZigBeeStack\zAPS.c
                  __pa_16   0x00a6a0    program     static F:\Microchip Solutions\ZigBee2006Res\microchip\ZigBeeStack\zMAC_MRF24J40.c
                 __pa_160   0x003ad6    program     static F:\Microchip Solutions\ZigBee2006Res\microchip\ZigBeeStack\zNWK.c
                 __pa_160   0x008f64    program     static F:\Microchip Solutions\ZigBee2006Res\microchip\ZigBeeStack\zAPS.c
                 __pa_160   0x0068ce    program     static F:\Microchip Solutions\ZigBee2006Res\microchip\ZigBeeStack\zZDO.C
                 __pa_161   0x008f6c    program     static F:\Microchip Solutions\ZigBee2006Res\microchip\ZigBeeStack\zAPS.c
                 __pa_161   0x0068e0    program     static F:\Microchip Solutions\ZigBee2006Res\microchip\ZigBeeStack\zZDO.C
                 __pa_161   0x003ae0    program     static F:\Microchip Solutions\ZigBee2006Res\microchip\ZigBeeStack\zNWK.c
                 __pa_162   0x003aea    program     static F:\Microchip Solutions\ZigBee2006Res\microchip\ZigBeeStack\zNWK.c
                 __pa_162   0x0068ee    program     static F:\Microchip Solutions\ZigBee2006Res\microchip\ZigBeeStack\zZDO.C
                 __pa_162   0x008f74    program     static F:\Microchip Solutions\ZigBee2006Res\microchip\ZigBeeStack\zAPS.c
                 __pa_163   0x0068fa    program     static F:\Microchip Solutions\ZigBee2006Res\microchip\ZigBeeStack\zZDO.C
                 __pa_163   0x003af2    program     static F:\Microchip Solutions\ZigBee2006Res\microchip\ZigBeeStack\zNWK.c
                 __pa_163   0x008f7c    program     static F:\Microchip Solutions\ZigBee2006Res\microchip\ZigBeeStack\zAPS.c
                 __pa_164   0x008f84    program     static F:\Microchip Solutions\ZigBee2006Res\microchip\ZigBeeStack\zAPS.c
                 __pa_164   0x003b00    program     static F:\Microchip Solutions\ZigBee2006Res\microchip\ZigBeeStack\zNWK.c
                 __pa_164   0x006906    program     static F:\Microchip Solutions\ZigBee2006Res\microchip\ZigBeeStack\zZDO.C
                 __pa_165   0x00690e    program     static F:\Microchip Solutions\ZigBee2006Res\microchip\ZigBeeStack\zZDO.C
                 __pa_165   0x003b06    program     static F:\Microchip Solutions\ZigBee2006Res\microchip\ZigBeeStack\zNWK.c
                 __pa_165   0x008f8e    program     static F:\Microchip Solutions\ZigBee2006Res\microchip\ZigBeeStack\zAPS.c
                 __pa_166   0x003b12    program     static F:\Microchip Solutions\ZigBee2006Res\microchip\ZigBeeStack\zNWK.c
                 __pa_166   0x008f94    program     static F:\Microchip Solutions\ZigBee2006Res\microchip\ZigBeeStack\zAPS.c
                 __pa_166   0x006914    program     static F:\Microchip Solutions\ZigBee2006Res\microchip\ZigBeeStack\zZDO.C
                 __pa_167   0x003b18    program     static F:\Microchip Solutions\ZigBee2006Res\microchip\ZigBeeStack\zNWK.c
                 __pa_167   0x008f9e    program     static F:\Microchip Solutions\ZigBee2006Res\microchip\ZigBeeStack\zAPS.c
                 __pa_167   0x00691e    program     static F:\Microchip Solutions\ZigBee2006Res\microchip\ZigBeeStack\zZDO.C
                 __pa_168   0x003b24    program     static F:\Microchip Solutions\ZigBee2006Res\microchip\ZigBeeStack\zNWK.c
                 __pa_168   0x008faa    program     static F:\Microchip Solutions\ZigBee2006Res\microchip\ZigBeeStack\zAPS.c
                 __pa_168   0x006926    program     static F:\Microchip Solutions\ZigBee2006Res\microchip\ZigBeeStack\zZDO.C
                 __pa_169   0x006932    program     static F:\Microchip Solutions\ZigBee2006Res\microchip\ZigBeeStack\zZDO.C
                 __pa_169   0x008fb6    program     static F:\Microchip Solutions\ZigBee2006Res\microchip\ZigBeeStack\zAPS.c
                 __pa_169   0x003b2c    program     static F:\Microchip Solutions\ZigBee2006Res\microchip\ZigBeeStack\zNWK.c
                  __pa_17   0x006168    program     static F:\Microchip Solutions\ZigBee2006Res\microchip\ZigBeeStack\zZDO.C
                  __pa_17   0x003434    program     static F:\Microchip Solutions\ZigBee2006Res\microchip\ZigBeeStack\zNWK.c
                  __pa_17   0x00b852    program     static F:\Microchip Solutions\ZigBee2006Res\DemoPIC18Coordinator\Coordinator.c
                  __pa_17   0x00a6b4    program     static F:\Microchip Solutions\ZigBee2006Res\microchip\ZigBeeStack\zMAC_MRF24J40.c
                  __pa_17   0x008924    program     static F:\Microchip Solutions\ZigBee2006Res\microchip\ZigBeeStack\zAPS.c
                 __pa_170   0x003b32    program     static F:\Microchip Solutions\ZigBee2006Res\microchip\ZigBeeStack\zNWK.c
                 __pa_170   0x008fc0    program     static F:\Microchip Solutions\ZigBee2006Res\microchip\ZigBeeStack\zAPS.c
                 __pa_170   0x00693e    program     static F:\Microchip Solutions\ZigBee2006Res\microchip\ZigBeeStack\zZDO.C
                 __pa_171   0x006944    program     static F:\Microchip Solutions\ZigBee2006Res\microchip\ZigBeeStack\zZDO.C
                 __pa_171   0x008fc6    program     static F:\Microchip Solutions\ZigBee2006Res\microchip\ZigBeeStack\zAPS.c
                 __pa_171   0x003b3a    program     static F:\Microchip Solutions\ZigBee2006Res\microchip\ZigBeeStack\zNWK.c
                 __pa_172   0x00694a    program     static F:\Microchip Solutions\ZigBee2006Res\microchip\ZigBeeStack\zZDO.C
                 __pa_172   0x008fd2    program     static F:\Microchip Solutions\ZigBee2006Res\microchip\ZigBeeStack\zAPS.c
                 __pa_172   0x003b46    program     static F:\Microchip Solutions\ZigBee2006Res\microchip\ZigBeeStack\zNWK.c
                 __pa_173   0x006958    program     static F:\Microchip Solutions\ZigBee2006Res\microchip\ZigBeeStack\zZDO.C
                 __pa_173   0x008fdc    program     static F:\Microchip Solutions\ZigBee2006Res\microchip\ZigBeeStack\zAPS.c
                 __pa_173   0x003b4e    program     static F:\Microchip Solutions\ZigBee2006Res\microchip\ZigBeeStack\zNWK.c
                 __pa_174   0x003b58    program     static F:\Microchip Solutions\ZigBee2006Res\microchip\ZigBeeStack\zNWK.c
                 __pa_174   0x006966    program     static F:\Microchip Solutions\ZigBee2006Res\microchip\ZigBeeStack\zZDO.C
                 __pa_174   0x008fe6    program     static F:\Microchip Solutions\ZigBee2006Res\microchip\ZigBeeStack\zAPS.c
                 __pa_175   0x003b68    program     static F:\Microchip Solutions\ZigBee2006Res\microchip\ZigBeeStack\zNWK.c
                 __pa_175   0x006974    program     static F:\Microchip Solutions\ZigBee2006Res\microchip\ZigBeeStack\zZDO.C
                 __pa_175   0x008ff0    program     static F:\Microchip Solutions\ZigBee2006Res\microchip\ZigBeeStack\zAPS.c
                 __pa_176   0x008ffc    program     static F:\Microchip Solutions\ZigBee2006Res\microchip\ZigBeeStack\zAPS.c
                 __pa_176   0x003b6e    program     static F:\Microchip Solutions\ZigBee2006Res\microchip\ZigBeeStack\zNWK.c
                 __pa_176   0x006982    program     static F:\Microchip Solutions\ZigBee2006Res\microchip\ZigBeeStack\zZDO.C
                 __pa_177   0x009004    program     static F:\Microchip Solutions\ZigBee2006Res\microchip\ZigBeeStack\zAPS.c
                 __pa_177   0x003b80    program     static F:\Microchip Solutions\ZigBee2006Res\microchip\ZigBeeStack\zNWK.c
                 __pa_177   0x00698a    program     static F:\Microchip Solutions\ZigBee2006Res\microchip\ZigBeeStack\zZDO.C
                 __pa_178   0x00900c    program     static F:\Microchip Solutions\ZigBee2006Res\microchip\ZigBeeStack\zAPS.c
                 __pa_178   0x003b90    program     static F:\Microchip Solutions\ZigBee2006Res\microchip\ZigBeeStack\zNWK.c
                 __pa_178   0x006992    program     static F:\Microchip Solutions\ZigBee2006Res\microchip\ZigBeeStack\zZDO.C
                 __pa_179   0x00699c    program     static F:\Microchip Solutions\ZigBee2006Res\microchip\ZigBeeStack\zZDO.C
                 __pa_179   0x003b9a    program     static F:\Microchip Solutions\ZigBee2006Res\microchip\ZigBeeStack\zNWK.c
                 __pa_179   0x009012    program     static F:\Microchip Solutions\ZigBee2006Res\microchip\ZigBeeStack\zAPS.c
                  __pa_18   0x00b862    program     static F:\Microchip Solutions\ZigBee2006Res\DemoPIC18Coordinator\Coordinator.c
                  __pa_18   0x008938    program     static F:\Microchip Solutions\ZigBee2006Res\microchip\ZigBeeStack\zAPS.c
                  __pa_18   0x00343a    program     static F:\Microchip Solutions\ZigBee2006Res\microchip\ZigBeeStack\zNWK.c
                  __pa_18   0x00a6be    program     static F:\Microchip Solutions\ZigBee2006Res\microchip\ZigBeeStack\zMAC_MRF24J40.c
                  __pa_18   0x006172    program     static F:\Microchip Solutions\ZigBee2006Res\microchip\ZigBeeStack\zZDO.C
                 __pa_180   0x009018    program     static F:\Microchip Solutions\ZigBee2006Res\microchip\ZigBeeStack\zAPS.c
                 __pa_180   0x0069a4    program     static F:\Microchip Solutions\ZigBee2006Res\microchip\ZigBeeStack\zZDO.C
                 __pa_180   0x003ba0    program     static F:\Microchip Solutions\ZigBee2006Res\microchip\ZigBeeStack\zNWK.c
                 __pa_181   0x00901e    program     static F:\Microchip Solutions\ZigBee2006Res\microchip\ZigBeeStack\zAPS.c
                 __pa_181   0x0069ac    program     static F:\Microchip Solutions\ZigBee2006Res\microchip\ZigBeeStack\zZDO.C
                 __pa_181   0x003bac    program     static F:\Microchip Solutions\ZigBee2006Res\microchip\ZigBeeStack\zNWK.c
                 __pa_182   0x003bb6    program     static F:\Microchip Solutions\ZigBee2006Res\microchip\ZigBeeStack\zNWK.c
                 __pa_182   0x009026    program     static F:\Microchip Solutions\ZigBee2006Res\microchip\ZigBeeStack\zAPS.c
                 __pa_182   0x0069b2    program     static F:\Microchip Solutions\ZigBee2006Res\microchip\ZigBeeStack\zZDO.C
                 __pa_183   0x003bc0    program     static F:\Microchip Solutions\ZigBee2006Res\microchip\ZigBeeStack\zNWK.c
                 __pa_183   0x0069c4    program     static F:\Microchip Solutions\ZigBee2006Res\microchip\ZigBeeStack\zZDO.C
                 __pa_183   0x009038    program     static F:\Microchip Solutions\ZigBee2006Res\microchip\ZigBeeStack\zAPS.c
                 __pa_184   0x0069d6    program     static F:\Microchip Solutions\ZigBee2006Res\microchip\ZigBeeStack\zZDO.C
                 __pa_184   0x009044    program     static F:\Microchip Solutions\ZigBee2006Res\microchip\ZigBeeStack\zAPS.c
                 __pa_184   0x003bcc    program     static F:\Microchip Solutions\ZigBee2006Res\microchip\ZigBeeStack\zNWK.c
                 __pa_185   0x0069dc    program     static F:\Microchip Solutions\ZigBee2006Res\microchip\ZigBeeStack\zZDO.C
                 __pa_185   0x00904c    program     static F:\Microchip Solutions\ZigBee2006Res\microchip\ZigBeeStack\zAPS.c
                 __pa_185   0x003bd4    program     static F:\Microchip Solutions\ZigBee2006Res\microchip\ZigBeeStack\zNWK.c
                 __pa_186   0x003bdc    program     static F:\Microchip Solutions\ZigBee2006Res\microchip\ZigBeeStack\zNWK.c
                 __pa_186   0x009052    program     static F:\Microchip Solutions\ZigBee2006Res\microchip\ZigBeeStack\zAPS.c
                 __pa_186   0x0069f0    program     static F:\Microchip Solutions\ZigBee2006Res\microchip\ZigBeeStack\zZDO.C
                 __pa_187   0x003be4    program     static F:\Microchip Solutions\ZigBee2006Res\microchip\ZigBeeStack\zNWK.c
                 __pa_187   0x006a04    program     static F:\Microchip Solutions\ZigBee2006Res\microchip\ZigBeeStack\zZDO.C
                 __pa_187   0x00905a    program     static F:\Microchip Solutions\ZigBee2006Res\microchip\ZigBeeStack\zAPS.c
                 __pa_188   0x009068    program     static F:\Microchip Solutions\ZigBee2006Res\microchip\ZigBeeStack\zAPS.c
                 __pa_188   0x006a0a    program     static F:\Microchip Solutions\ZigBee2006Res\microchip\ZigBeeStack\zZDO.C
                 __pa_188   0x003bee    program     static F:\Microchip Solutions\ZigBee2006Res\microchip\ZigBeeStack\zNWK.c
                 __pa_189   0x006a10    program     static F:\Microchip Solutions\ZigBee2006Res\microchip\ZigBeeStack\zZDO.C
                 __pa_189   0x009072    program     static F:\Microchip Solutions\ZigBee2006Res\microchip\ZigBeeStack\zAPS.c
                 __pa_189   0x003bf8    program     static F:\Microchip Solutions\ZigBee2006Res\microchip\ZigBeeStack\zNWK.c
                  __pa_19   0x00344a    program     static F:\Microchip Solutions\ZigBee2006Res\microchip\ZigBeeStack\zNWK.c
                  __pa_19   0x008950    program     static F:\Microchip Solutions\ZigBee2006Res\microchip\ZigBeeStack\zAPS.c
                  __pa_19   0x00b870    program     static F:\Microchip Solutions\ZigBee2006Res\DemoPIC18Coordinator\Coordinator.c
                  __pa_19   0x00617c    program     static F:\Microchip Solutions\ZigBee2006Res\microchip\ZigBeeStack\zZDO.C
                  __pa_19   0x00a6cc    program     static F:\Microchip Solutions\ZigBee2006Res\microchip\ZigBeeStack\zMAC_MRF24J40.c
                 __pa_190   0x003c08    program     static F:\Microchip Solutions\ZigBee2006Res\microchip\ZigBeeStack\zNWK.c
                 __pa_190   0x00907c    program     static F:\Microchip Solutions\ZigBee2006Res\microchip\ZigBeeStack\zAPS.c
                 __pa_190   0x006a18    program     static F:\Microchip Solutions\ZigBee2006Res\microchip\ZigBeeStack\zZDO.C
                 __pa_191   0x006a22    program     static F:\Microchip Solutions\ZigBee2006Res\microchip\ZigBeeStack\zZDO.C
                 __pa_191   0x003c10    program     static F:\Microchip Solutions\ZigBee2006Res\microchip\ZigBeeStack\zNWK.c
                 __pa_192   0x003c1e    program     static F:\Microchip Solutions\ZigBee2006Res\microchip\ZigBeeStack\zNWK.c
                 __pa_192   0x006a2c    program     static F:\Microchip Solutions\ZigBee2006Res\microchip\ZigBeeStack\zZDO.C
                 __pa_193   0x003c2c    program     static F:\Microchip Solutions\ZigBee2006Res\microchip\ZigBeeStack\zNWK.c
                 __pa_193   0x006a3a    program     static F:\Microchip Solutions\ZigBee2006Res\microchip\ZigBeeStack\zZDO.C
                 __pa_194   0x003c36    program     static F:\Microchip Solutions\ZigBee2006Res\microchip\ZigBeeStack\zNWK.c
                 __pa_194   0x006a48    program     static F:\Microchip Solutions\ZigBee2006Res\microchip\ZigBeeStack\zZDO.C
                 __pa_195   0x003c46    program     static F:\Microchip Solutions\ZigBee2006Res\microchip\ZigBeeStack\zNWK.c
                 __pa_195   0x006a4e    program     static F:\Microchip Solutions\ZigBee2006Res\microchip\ZigBeeStack\zZDO.C
                 __pa_196   0x006a5e    program     static F:\Microchip Solutions\ZigBee2006Res\microchip\ZigBeeStack\zZDO.C
                 __pa_196   0x003c54    program     static F:\Microchip Solutions\ZigBee2006Res\microchip\ZigBeeStack\zNWK.c
                 __pa_197   0x003c5a    program     static F:\Microchip Solutions\ZigBee2006Res\microchip\ZigBeeStack\zNWK.c
                 __pa_197   0x006a68    program     static F:\Microchip Solutions\ZigBee2006Res\microchip\ZigBeeStack\zZDO.C
                 __pa_198   0x006a70    program     static F:\Microchip Solutions\ZigBee2006Res\microchip\ZigBeeStack\zZDO.C
                 __pa_198   0x003c64    program     static F:\Microchip Solutions\ZigBee2006Res\microchip\ZigBeeStack\zNWK.c
                 __pa_199   0x006a78    program     static F:\Microchip Solutions\ZigBee2006Res\microchip\ZigBeeStack\zZDO.C
                 __pa_199   0x003c70    program     static F:\Microchip Solutions\ZigBee2006Res\microchip\ZigBeeStack\zNWK.c
                   __pa_2   0x008860    program     static F:\Microchip Solutions\ZigBee2006Res\microchip\ZigBeeStack\zAPS.c
                   __pa_2   0x00b780    program     static F:\Microchip Solutions\ZigBee2006Res\DemoPIC18Coordinator\Coordinator.c
                   __pa_2   0x0060a6    program     static F:\Microchip Solutions\ZigBee2006Res\microchip\ZigBeeStack\zZDO.C
                   __pa_2   0x00a596    program     static F:\Microchip Solutions\ZigBee2006Res\microchip\ZigBeeStack\zMAC_MRF24J40.c
                   __pa_2   0x00da3c    program     static F:\Microchip Solutions\ZigBee2006Res\microchip\Common\sralloc.c
                   __pa_2   0x00c4ba    program     static F:\Microchip Solutions\ZigBee2006Res\microchip\ZigBeeStack\zPHY_MRF24J40.c
                   __pa_2   0x00333e    program     static F:\Microchip Solutions\ZigBee2006Res\microchip\ZigBeeStack\zNWK.c
                   __pa_2   0x00e1a8    program     static F:\Microchip Solutions\ZigBee2006Res\microchip\Common\MSPI.c
                   __pa_2   0x00ddee    program     static F:\Microchip Solutions\ZigBee2006Res\microchip\Common\Console.c
                  __pa_20   0x003460    program     static F:\Microchip Solutions\ZigBee2006Res\microchip\ZigBeeStack\zNWK.c
                  __pa_20   0x00a6d4    program     static F:\Microchip Solutions\ZigBee2006Res\microchip\ZigBeeStack\zMAC_MRF24J40.c
                  __pa_20   0x006184    program     static F:\Microchip Solutions\ZigBee2006Res\microchip\ZigBeeStack\zZDO.C
                  __pa_20   0x00b87c    program     static F:\Microchip Solutions\ZigBee2006Res\DemoPIC18Coordinator\Coordinator.c
                  __pa_20   0x008958    program     static F:\Microchip Solutions\ZigBee2006Res\microchip\ZigBeeStack\zAPS.c
                 __pa_200   0x003c7e    program     static F:\Microchip Solutions\ZigBee2006Res\microchip\ZigBeeStack\zNWK.c
                 __pa_200   0x006a7e    program     static F:\Microchip Solutions\ZigBee2006Res\microchip\ZigBeeStack\zZDO.C
                 __pa_201   0x003c8a    program     static F:\Microchip Solutions\ZigBee2006Res\microchip\ZigBeeStack\zNWK.c
                 __pa_201   0x006a84    program     static F:\Microchip Solutions\ZigBee2006Res\microchip\ZigBeeStack\zZDO.C
                 __pa_202   0x006a8a    program     static F:\Microchip Solutions\ZigBee2006Res\microchip\ZigBeeStack\zZDO.C
                 __pa_202   0x003c94    program     static F:\Microchip Solutions\ZigBee2006Res\microchip\ZigBeeStack\zNWK.c
                 __pa_203   0x006a94    program     static F:\Microchip Solutions\ZigBee2006Res\microchip\ZigBeeStack\zZDO.C
                 __pa_203   0x003ca2    program     static F:\Microchip Solutions\ZigBee2006Res\microchip\ZigBeeStack\zNWK.c
                 __pa_204   0x006a9a    program     static F:\Microchip Solutions\ZigBee2006Res\microchip\ZigBeeStack\zZDO.C
                 __pa_204   0x003cae    program     static F:\Microchip Solutions\ZigBee2006Res\microchip\ZigBeeStack\zNWK.c
                 __pa_205   0x006aa0    program     static F:\Microchip Solutions\ZigBee2006Res\microchip\ZigBeeStack\zZDO.C
                 __pa_205   0x003cb4    program     static F:\Microchip Solutions\ZigBee2006Res\microchip\ZigBeeStack\zNWK.c
                 __pa_206   0x006aae    program     static F:\Microchip Solutions\ZigBee2006Res\microchip\ZigBeeStack\zZDO.C
                 __pa_206   0x003cc0    program     static F:\Microchip Solutions\ZigBee2006Res\microchip\ZigBeeStack\zNWK.c
                 __pa_207   0x003cce    program     static F:\Microchip Solutions\ZigBee2006Res\microchip\ZigBeeStack\zNWK.c
                 __pa_207   0x006abc    program     static F:\Microchip Solutions\ZigBee2006Res\microchip\ZigBeeStack\zZDO.C
                 __pa_208   0x003cd4    program     static F:\Microchip Solutions\ZigBee2006Res\microchip\ZigBeeStack\zNWK.c
                 __pa_208   0x006ac8    program     static F:\Microchip Solutions\ZigBee2006Res\microchip\ZigBeeStack\zZDO.C
                 __pa_209   0x003ce2    program     static F:\Microchip Solutions\ZigBee2006Res\microchip\ZigBeeStack\zNWK.c
                 __pa_209   0x006ad4    program     static F:\Microchip Solutions\ZigBee2006Res\microchip\ZigBeeStack\zZDO.C
                  __pa_21   0x00895e    program     static F:\Microchip Solutions\ZigBee2006Res\microchip\ZigBeeStack\zAPS.c
                  __pa_21   0x006190    program     static F:\Microchip Solutions\ZigBee2006Res\microchip\ZigBeeStack\zZDO.C
                  __pa_21   0x00b886    program     static F:\Microchip Solutions\ZigBee2006Res\DemoPIC18Coordinator\Coordinator.c
                  __pa_21   0x003470    program     static F:\Microchip Solutions\ZigBee2006Res\microchip\ZigBeeStack\zNWK.c
                  __pa_21   0x00a6f2    program     static F:\Microchip Solutions\ZigBee2006Res\microchip\ZigBeeStack\zMAC_MRF24J40.c
                 __pa_210   0x006ade    program     static F:\Microchip Solutions\ZigBee2006Res\microchip\ZigBeeStack\zZDO.C
                 __pa_210   0x003cf0    program     static F:\Microchip Solutions\ZigBee2006Res\microchip\ZigBeeStack\zNWK.c
                 __pa_211   0x003cfe    program     static F:\Microchip Solutions\ZigBee2006Res\microchip\ZigBeeStack\zNWK.c
                 __pa_211   0x006ae8    program     static F:\Microchip Solutions\ZigBee2006Res\microchip\ZigBeeStack\zZDO.C
                 __pa_212   0x003d06    program     static F:\Microchip Solutions\ZigBee2006Res\microchip\ZigBeeStack\zNWK.c
                 __pa_212   0x006af4    program     static F:\Microchip Solutions\ZigBee2006Res\microchip\ZigBeeStack\zZDO.C
                 __pa_213   0x003d10    program     static F:\Microchip Solutions\ZigBee2006Res\microchip\ZigBeeStack\zNWK.c
                 __pa_213   0x006b02    program     static F:\Microchip Solutions\ZigBee2006Res\microchip\ZigBeeStack\zZDO.C
                 __pa_214   0x003d1a    program     static F:\Microchip Solutions\ZigBee2006Res\microchip\ZigBeeStack\zNWK.c
                 __pa_214   0x006b0a    program     static F:\Microchip Solutions\ZigBee2006Res\microchip\ZigBeeStack\zZDO.C
                 __pa_215   0x006b14    program     static F:\Microchip Solutions\ZigBee2006Res\microchip\ZigBeeStack\zZDO.C
                 __pa_215   0x003d24    program     static F:\Microchip Solutions\ZigBee2006Res\microchip\ZigBeeStack\zNWK.c
                 __pa_216   0x006b1c    program     static F:\Microchip Solutions\ZigBee2006Res\microchip\ZigBeeStack\zZDO.C
                 __pa_216   0x003d2e    program     static F:\Microchip Solutions\ZigBee2006Res\microchip\ZigBeeStack\zNWK.c
                 __pa_217   0x006b26    program     static F:\Microchip Solutions\ZigBee2006Res\microchip\ZigBeeStack\zZDO.C
                 __pa_217   0x003d36    program     static F:\Microchip Solutions\ZigBee2006Res\microchip\ZigBeeStack\zNWK.c
                 __pa_218   0x006b2e    program     static F:\Microchip Solutions\ZigBee2006Res\microchip\ZigBeeStack\zZDO.C
                 __pa_218   0x003d3e    program     static F:\Microchip Solutions\ZigBee2006Res\microchip\ZigBeeStack\zNWK.c
                 __pa_219   0x003d48    program     static F:\Microchip Solutions\ZigBee2006Res\microchip\ZigBeeStack\zNWK.c
                 __pa_219   0x006b38    program     static F:\Microchip Solutions\ZigBee2006Res\microchip\ZigBeeStack\zZDO.C
                  __pa_22   0x00b88e    program     static F:\Microchip Solutions\ZigBee2006Res\DemoPIC18Coordinator\Coordinator.c
                  __pa_22   0x00896c    program     static F:\Microchip Solutions\ZigBee2006Res\microchip\ZigBeeStack\zAPS.c
                  __pa_22   0x00a710    program     static F:\Microchip Solutions\ZigBee2006Res\microchip\ZigBeeStack\zMAC_MRF24J40.c
                  __pa_22   0x00619a    program     static F:\Microchip Solutions\ZigBee2006Res\microchip\ZigBeeStack\zZDO.C
                  __pa_22   0x003476    program     static F:\Microchip Solutions\ZigBee2006Res\microchip\ZigBeeStack\zNWK.c
                 __pa_220   0x006b42    program     static F:\Microchip Solutions\ZigBee2006Res\microchip\ZigBeeStack\zZDO.C
                 __pa_220   0x003d52    program     static F:\Microchip Solutions\ZigBee2006Res\microchip\ZigBeeStack\zNWK.c
                 __pa_221   0x006b48    program     static F:\Microchip Solutions\ZigBee2006Res\microchip\ZigBeeStack\zZDO.C
                 __pa_221   0x003d5a    program     static F:\Microchip Solutions\ZigBee2006Res\microchip\ZigBeeStack\zNWK.c
                 __pa_222   0x003d62    program     static F:\Microchip Solutions\ZigBee2006Res\microchip\ZigBeeStack\zNWK.c
                 __pa_223   0x003d68    program     static F:\Microchip Solutions\ZigBee2006Res\microchip\ZigBeeStack\zNWK.c
                 __pa_224   0x003d6e    program     static F:\Microchip Solutions\ZigBee2006Res\microchip\ZigBeeStack\zNWK.c
                 __pa_225   0x003d76    program     static F:\Microchip Solutions\ZigBee2006Res\microchip\ZigBeeStack\zNWK.c
                 __pa_226   0x003d7e    program     static F:\Microchip Solutions\ZigBee2006Res\microchip\ZigBeeStack\zNWK.c
                 __pa_227   0x003d86    program     static F:\Microchip Solutions\ZigBee2006Res\microchip\ZigBeeStack\zNWK.c
                 __pa_228   0x003d90    program     static F:\Microchip Solutions\ZigBee2006Res\microchip\ZigBeeStack\zNWK.c
                 __pa_229   0x003dac    program     static F:\Microchip Solutions\ZigBee2006Res\microchip\ZigBeeStack\zNWK.c
                  __pa_23   0x00b8a8    program     static F:\Microchip Solutions\ZigBee2006Res\DemoPIC18Coordinator\Coordinator.c
                  __pa_23   0x003488    program     static F:\Microchip Solutions\ZigBee2006Res\microchip\ZigBeeStack\zNWK.c
                  __pa_23   0x0061a0    program     static F:\Microchip Solutions\ZigBee2006Res\microchip\ZigBeeStack\zZDO.C
                  __pa_23   0x008974    program     static F:\Microchip Solutions\ZigBee2006Res\microchip\ZigBeeStack\zAPS.c
                  __pa_23   0x00a722    program     static F:\Microchip Solutions\ZigBee2006Res\microchip\ZigBeeStack\zMAC_MRF24J40.c
                 __pa_230   0x003dbe    program     static F:\Microchip Solutions\ZigBee2006Res\microchip\ZigBeeStack\zNWK.c
                 __pa_231   0x003dc4    program     static F:\Microchip Solutions\ZigBee2006Res\microchip\ZigBeeStack\zNWK.c
                 __pa_232   0x003dce    program     static F:\Microchip Solutions\ZigBee2006Res\microchip\ZigBeeStack\zNWK.c
                 __pa_233   0x003dd4    program     static F:\Microchip Solutions\ZigBee2006Res\microchip\ZigBeeStack\zNWK.c
                 __pa_234   0x003ddc    program     static F:\Microchip Solutions\ZigBee2006Res\microchip\ZigBeeStack\zNWK.c
                 __pa_235   0x003de4    program     static F:\Microchip Solutions\ZigBee2006Res\microchip\ZigBeeStack\zNWK.c
                 __pa_236   0x003dea    program     static F:\Microchip Solutions\ZigBee2006Res\microchip\ZigBeeStack\zNWK.c
                 __pa_237   0x003df2    program     static F:\Microchip Solutions\ZigBee2006Res\microchip\ZigBeeStack\zNWK.c
                 __pa_238   0x003dfc    program     static F:\Microchip Solutions\ZigBee2006Res\microchip\ZigBeeStack\zNWK.c
                 __pa_239   0x003e02    program     static F:\Microchip Solutions\ZigBee2006Res\microchip\ZigBeeStack\zNWK.c
                  __pa_24   0x0061e2    program     static F:\Microchip Solutions\ZigBee2006Res\microchip\ZigBeeStack\zZDO.C
                  __pa_24   0x003492    program     static F:\Microchip Solutions\ZigBee2006Res\microchip\ZigBeeStack\zNWK.c
                  __pa_24   0x008982    program     static F:\Microchip Solutions\ZigBee2006Res\microchip\ZigBeeStack\zAPS.c
                  __pa_24   0x00a734    program     static F:\Microchip Solutions\ZigBee2006Res\microchip\ZigBeeStack\zMAC_MRF24J40.c
                  __pa_24   0x00b8b8    program     static F:\Microchip Solutions\ZigBee2006Res\DemoPIC18Coordinator\Coordinator.c
                 __pa_240   0x003e0a    program     static F:\Microchip Solutions\ZigBee2006Res\microchip\ZigBeeStack\zNWK.c
                 __pa_241   0x003e1a    program     static F:\Microchip Solutions\ZigBee2006Res\microchip\ZigBeeStack\zNWK.c
                 __pa_242   0x003e22    program     static F:\Microchip Solutions\ZigBee2006Res\microchip\ZigBeeStack\zNWK.c
                 __pa_243   0x003e28    program     static F:\Microchip Solutions\ZigBee2006Res\microchip\ZigBeeStack\zNWK.c
                 __pa_244   0x003e32    program     static F:\Microchip Solutions\ZigBee2006Res\microchip\ZigBeeStack\zNWK.c
                 __pa_245   0x003e3c    program     static F:\Microchip Solutions\ZigBee2006Res\microchip\ZigBeeStack\zNWK.c
                 __pa_246   0x003e4c    program     static F:\Microchip Solutions\ZigBee2006Res\microchip\ZigBeeStack\zNWK.c
                 __pa_247   0x003e5c    program     static F:\Microchip Solutions\ZigBee2006Res\microchip\ZigBeeStack\zNWK.c
                 __pa_248   0x003e64    program     static F:\Microchip Solutions\ZigBee2006Res\microchip\ZigBeeStack\zNWK.c
                 __pa_249   0x003e6a    program     static F:\Microchip Solutions\ZigBee2006Res\microchip\ZigBeeStack\zNWK.c
                  __pa_25   0x0061ea    program     static F:\Microchip Solutions\ZigBee2006Res\microchip\ZigBeeStack\zZDO.C
                  __pa_25   0x00b8be    program     static F:\Microchip Solutions\ZigBee2006Res\DemoPIC18Coordinator\Coordinator.c
                  __pa_25   0x00a746    program     static F:\Microchip Solutions\ZigBee2006Res\microchip\ZigBeeStack\zMAC_MRF24J40.c
                  __pa_25   0x00898a    program     static F:\Microchip Solutions\ZigBee2006Res\microchip\ZigBeeStack\zAPS.c
                  __pa_25   0x00349e    program     static F:\Microchip Solutions\ZigBee2006Res\microchip\ZigBeeStack\zNWK.c
                 __pa_250   0x003e74    program     static F:\Microchip Solutions\ZigBee2006Res\microchip\ZigBeeStack\zNWK.c
                 __pa_251   0x003e7e    program     static F:\Microchip Solutions\ZigBee2006Res\microchip\ZigBeeStack\zNWK.c
                 __pa_252   0x003e88    program     static F:\Microchip Solutions\ZigBee2006Res\microchip\ZigBeeStack\zNWK.c
                 __pa_253   0x003e92    program     static F:\Microchip Solutions\ZigBee2006Res\microchip\ZigBeeStack\zNWK.c
                 __pa_254   0x003e9a    program     static F:\Microchip Solutions\ZigBee2006Res\microchip\ZigBeeStack\zNWK.c
                 __pa_255   0x003ea0    program     static F:\Microchip Solutions\ZigBee2006Res\microchip\ZigBeeStack\zNWK.c
                 __pa_256   0x003ea6    program     static F:\Microchip Solutions\ZigBee2006Res\microchip\ZigBeeStack\zNWK.c
                 __pa_257   0x003eae    program     static F:\Microchip Solutions\ZigBee2006Res\microchip\ZigBeeStack\zNWK.c
                 __pa_258   0x003eb6    program     static F:\Microchip Solutions\ZigBee2006Res\microchip\ZigBeeStack\zNWK.c
                 __pa_259   0x003ebe    program     static F:\Microchip Solutions\ZigBee2006Res\microchip\ZigBeeStack\zNWK.c
                  __pa_26   0x00a74e    program     static F:\Microchip Solutions\ZigBee2006Res\microchip\ZigBeeStack\zMAC_MRF24J40.c
                  __pa_26   0x008992    program     static F:\Microchip Solutions\ZigBee2006Res\microchip\ZigBeeStack\zAPS.c
                  __pa_26   0x00b8d2    program     static F:\Microchip Solutions\ZigBee2006Res\DemoPIC18Coordinator\Coordinator.c
                  __pa_26   0x006210    program     static F:\Microchip Solutions\ZigBee2006Res\microchip\ZigBeeStack\zZDO.C
                  __pa_26   0x0034ae    program     static F:\Microchip Solutions\ZigBee2006Res\microchip\ZigBeeStack\zNWK.c
                 __pa_260   0x003eca    program     static F:\Microchip Solutions\ZigBee2006Res\microchip\ZigBeeStack\zNWK.c
                 __pa_261   0x003ed0    program     static F:\Microchip Solutions\ZigBee2006Res\microchip\ZigBeeStack\zNWK.c
                 __pa_262   0x003ed8    program     static F:\Microchip Solutions\ZigBee2006Res\microchip\ZigBeeStack\zNWK.c
                 __pa_263   0x003ee2    program     static F:\Microchip Solutions\ZigBee2006Res\microchip\ZigBeeStack\zNWK.c
                 __pa_264   0x003eec    program     static F:\Microchip Solutions\ZigBee2006Res\microchip\ZigBeeStack\zNWK.c
                 __pa_265   0x003ef6    program     static F:\Microchip Solutions\ZigBee2006Res\microchip\ZigBeeStack\zNWK.c
                 __pa_266   0x003f02    program     static F:\Microchip Solutions\ZigBee2006Res\microchip\ZigBeeStack\zNWK.c
                 __pa_267   0x003f08    program     static F:\Microchip Solutions\ZigBee2006Res\microchip\ZigBeeStack\zNWK.c
                 __pa_268   0x003f0e    program     static F:\Microchip Solutions\ZigBee2006Res\microchip\ZigBeeStack\zNWK.c
                 __pa_269   0x003f16    program     static F:\Microchip Solutions\ZigBee2006Res\microchip\ZigBeeStack\zNWK.c
                  __pa_27   0x00b8de    program     static F:\Microchip Solutions\ZigBee2006Res\DemoPIC18Coordinator\Coordinator.c
                  __pa_27   0x00a75c    program     static F:\Microchip Solutions\ZigBee2006Res\microchip\ZigBeeStack\zMAC_MRF24J40.c
                  __pa_27   0x0034c0    program     static F:\Microchip Solutions\ZigBee2006Res\microchip\ZigBeeStack\zNWK.c
                  __pa_27   0x006220    program     static F:\Microchip Solutions\ZigBee2006Res\microchip\ZigBeeStack\zZDO.C
                  __pa_27   0x00899a    program     static F:\Microchip Solutions\ZigBee2006Res\microchip\ZigBeeStack\zAPS.c
                 __pa_270   0x003f20    program     static F:\Microchip Solutions\ZigBee2006Res\microchip\ZigBeeStack\zNWK.c
                 __pa_271   0x003f2a    program     static F:\Microchip Solutions\ZigBee2006Res\microchip\ZigBeeStack\zNWK.c
                 __pa_272   0x003f32    program     static F:\Microchip Solutions\ZigBee2006Res\microchip\ZigBeeStack\zNWK.c
                 __pa_273   0x003f3a    program     static F:\Microchip Solutions\ZigBee2006Res\microchip\ZigBeeStack\zNWK.c
                 __pa_274   0x003f44    program     static F:\Microchip Solutions\ZigBee2006Res\microchip\ZigBeeStack\zNWK.c
                 __pa_275   0x003f4e    program     static F:\Microchip Solutions\ZigBee2006Res\microchip\ZigBeeStack\zNWK.c
                 __pa_276   0x003f54    program     static F:\Microchip Solutions\ZigBee2006Res\microchip\ZigBeeStack\zNWK.c
                 __pa_277   0x003f5a    program     static F:\Microchip Solutions\ZigBee2006Res\microchip\ZigBeeStack\zNWK.c
                 __pa_278   0x003f62    program     static F:\Microchip Solutions\ZigBee2006Res\microchip\ZigBeeStack\zNWK.c
                 __pa_279   0x003f68    program     static F:\Microchip Solutions\ZigBee2006Res\microchip\ZigBeeStack\zNWK.c
                  __pa_28   0x0034c6    program     static F:\Microchip Solutions\ZigBee2006Res\microchip\ZigBeeStack\zNWK.c
                  __pa_28   0x006238    program     static F:\Microchip Solutions\ZigBee2006Res\microchip\ZigBeeStack\zZDO.C
                  __pa_28   0x00b8e6    program     static F:\Microchip Solutions\ZigBee2006Res\DemoPIC18Coordinator\Coordinator.c
                  __pa_28   0x00a768    program     static F:\Microchip Solutions\ZigBee2006Res\microchip\ZigBeeStack\zMAC_MRF24J40.c
                  __pa_28   0x0089a0    program     static F:\Microchip Solutions\ZigBee2006Res\microchip\ZigBeeStack\zAPS.c
                 __pa_280   0x003f72    program     static F:\Microchip Solutions\ZigBee2006Res\microchip\ZigBeeStack\zNWK.c
                 __pa_281   0x003f7a    program     static F:\Microchip Solutions\ZigBee2006Res\microchip\ZigBeeStack\zNWK.c
                 __pa_282   0x003f80    program     static F:\Microchip Solutions\ZigBee2006Res\microchip\ZigBeeStack\zNWK.c
                 __pa_283   0x003f86    program     static F:\Microchip Solutions\ZigBee2006Res\microchip\ZigBeeStack\zNWK.c
                 __pa_284   0x003f8c    program     static F:\Microchip Solutions\ZigBee2006Res\microchip\ZigBeeStack\zNWK.c
                 __pa_285   0x003f92    program     static F:\Microchip Solutions\ZigBee2006Res\microchip\ZigBeeStack\zNWK.c
                  __pa_29   0x0089ae    program     static F:\Microchip Solutions\ZigBee2006Res\microchip\ZigBeeStack\zAPS.c
                  __pa_29   0x0034d4    program     static F:\Microchip Solutions\ZigBee2006Res\microchip\ZigBeeStack\zNWK.c
                  __pa_29   0x00625a    program     static F:\Microchip Solutions\ZigBee2006Res\microchip\ZigBeeStack\zZDO.C
                  __pa_29   0x00b8ee    program     static F:\Microchip Solutions\ZigBee2006Res\DemoPIC18Coordinator\Coordinator.c
                  __pa_29   0x00a782    program     static F:\Microchip Solutions\ZigBee2006Res\microchip\ZigBeeStack\zMAC_MRF24J40.c
                   __pa_3   0x00c4c6    program     static F:\Microchip Solutions\ZigBee2006Res\microchip\ZigBeeStack\zPHY_MRF24J40.c
                   __pa_3   0x00e1b8    program     static F:\Microchip Solutions\ZigBee2006Res\microchip\Common\MSPI.c
                   __pa_3   0x00de0e    program     static F:\Microchip Solutions\ZigBee2006Res\microchip\Common\Console.c
                   __pa_3   0x00b788    program     static F:\Microchip Solutions\ZigBee2006Res\DemoPIC18Coordinator\Coordinator.c
                   __pa_3   0x0060ac    program     static F:\Microchip Solutions\ZigBee2006Res\microchip\ZigBeeStack\zZDO.C
                   __pa_3   0x00da4e    program     static F:\Microchip Solutions\ZigBee2006Res\microchip\Common\sralloc.c
                   __pa_3   0x008864    program     static F:\Microchip Solutions\ZigBee2006Res\microchip\ZigBeeStack\zAPS.c
                   __pa_3   0x003346    program     static F:\Microchip Solutions\ZigBee2006Res\microchip\ZigBeeStack\zNWK.c
                   __pa_3   0x00a5a6    program     static F:\Microchip Solutions\ZigBee2006Res\microchip\ZigBeeStack\zMAC_MRF24J40.c
                  __pa_30   0x0089b6    program     static F:\Microchip Solutions\ZigBee2006Res\microchip\ZigBeeStack\zAPS.c
                  __pa_30   0x00a792    program     static F:\Microchip Solutions\ZigBee2006Res\microchip\ZigBeeStack\zMAC_MRF24J40.c
                  __pa_30   0x0034de    program     static F:\Microchip Solutions\ZigBee2006Res\microchip\ZigBeeStack\zNWK.c
                  __pa_30   0x006260    program     static F:\Microchip Solutions\ZigBee2006Res\microchip\ZigBeeStack\zZDO.C
                  __pa_30   0x00b8f6    program     static F:\Microchip Solutions\ZigBee2006Res\DemoPIC18Coordinator\Coordinator.c
                  __pa_31   0x0089be    program     static F:\Microchip Solutions\ZigBee2006Res\microchip\ZigBeeStack\zAPS.c
                  __pa_31   0x00a7a8    program     static F:\Microchip Solutions\ZigBee2006Res\microchip\ZigBeeStack\zMAC_MRF24J40.c
                  __pa_31   0x0034ea    program     static F:\Microchip Solutions\ZigBee2006Res\microchip\ZigBeeStack\zNWK.c
                  __pa_31   0x00626a    program     static F:\Microchip Solutions\ZigBee2006Res\microchip\ZigBeeStack\zZDO.C
                  __pa_31   0x00b8fc    program     static F:\Microchip Solutions\ZigBee2006Res\DemoPIC18Coordinator\Coordinator.c
                  __pa_32   0x0089c6    program     static F:\Microchip Solutions\ZigBee2006Res\microchip\ZigBeeStack\zAPS.c
                  __pa_32   0x00a7ba    program     static F:\Microchip Solutions\ZigBee2006Res\microchip\ZigBeeStack\zMAC_MRF24J40.c
                  __pa_32   0x0034f4    program     static F:\Microchip Solutions\ZigBee2006Res\microchip\ZigBeeStack\zNWK.c
                  __pa_32   0x006272    program     static F:\Microchip Solutions\ZigBee2006Res\microchip\ZigBeeStack\zZDO.C
                  __pa_32   0x00b90c    program     static F:\Microchip Solutions\ZigBee2006Res\DemoPIC18Coordinator\Coordinator.c
                  __pa_33   0x00627c    program     static F:\Microchip Solutions\ZigBee2006Res\microchip\ZigBeeStack\zZDO.C
                  __pa_33   0x00a7d0    program     static F:\Microchip Solutions\ZigBee2006Res\microchip\ZigBeeStack\zMAC_MRF24J40.c
                  __pa_33   0x0034fc    program     static F:\Microchip Solutions\ZigBee2006Res\microchip\ZigBeeStack\zNWK.c
                  __pa_33   0x00b918    program     static F:\Microchip Solutions\ZigBee2006Res\DemoPIC18Coordinator\Coordinator.c
                  __pa_33   0x0089d4    program     static F:\Microchip Solutions\ZigBee2006Res\microchip\ZigBeeStack\zAPS.c
                  __pa_34   0x00b924    program     static F:\Microchip Solutions\ZigBee2006Res\DemoPIC18Coordinator\Coordinator.c
                  __pa_34   0x006292    program     static F:\Microchip Solutions\ZigBee2006Res\microchip\ZigBeeStack\zZDO.C
                  __pa_34   0x00a7dc    program     static F:\Microchip Solutions\ZigBee2006Res\microchip\ZigBeeStack\zMAC_MRF24J40.c
                  __pa_34   0x00350e    program     static F:\Microchip Solutions\ZigBee2006Res\microchip\ZigBeeStack\zNWK.c
                  __pa_34   0x0089ec    program     static F:\Microchip Solutions\ZigBee2006Res\microchip\ZigBeeStack\zAPS.c
                  __pa_35   0x00b930    program     static F:\Microchip Solutions\ZigBee2006Res\DemoPIC18Coordinator\Coordinator.c
                  __pa_35   0x00a7ea    program     static F:\Microchip Solutions\ZigBee2006Res\microchip\ZigBeeStack\zMAC_MRF24J40.c
                  __pa_35   0x003516    program     static F:\Microchip Solutions\ZigBee2006Res\microchip\ZigBeeStack\zNWK.c
                  __pa_35   0x0062be    program     static F:\Microchip Solutions\ZigBee2006Res\microchip\ZigBeeStack\zZDO.C
                  __pa_35   0x0089f4    program     static F:\Microchip Solutions\ZigBee2006Res\microchip\ZigBeeStack\zAPS.c
                  __pa_36   0x0062d2    program     static F:\Microchip Solutions\ZigBee2006Res\microchip\ZigBeeStack\zZDO.C
                  __pa_36   0x0089fe    program     static F:\Microchip Solutions\ZigBee2006Res\microchip\ZigBeeStack\zAPS.c
                  __pa_36   0x003526    program     static F:\Microchip Solutions\ZigBee2006Res\microchip\ZigBeeStack\zNWK.c
                  __pa_36   0x00a7fe    program     static F:\Microchip Solutions\ZigBee2006Res\microchip\ZigBeeStack\zMAC_MRF24J40.c
                  __pa_36   0x00b93c    program     static F:\Microchip Solutions\ZigBee2006Res\DemoPIC18Coordinator\Coordinator.c
                  __pa_37   0x008a20    program     static F:\Microchip Solutions\ZigBee2006Res\microchip\ZigBeeStack\zAPS.c
                  __pa_37   0x00b946    program     static F:\Microchip Solutions\ZigBee2006Res\DemoPIC18Coordinator\Coordinator.c
                  __pa_37   0x0062d8    program     static F:\Microchip Solutions\ZigBee2006Res\microchip\ZigBeeStack\zZDO.C
                  __pa_37   0x00352e    program     static F:\Microchip Solutions\ZigBee2006Res\microchip\ZigBeeStack\zNWK.c
                  __pa_37   0x00a80e    program     static F:\Microchip Solutions\ZigBee2006Res\microchip\ZigBeeStack\zMAC_MRF24J40.c
                  __pa_38   0x008a3a    program     static F:\Microchip Solutions\ZigBee2006Res\microchip\ZigBeeStack\zAPS.c
                  __pa_38   0x0062e0    program     static F:\Microchip Solutions\ZigBee2006Res\microchip\ZigBeeStack\zZDO.C
                  __pa_38   0x00b94e    program     static F:\Microchip Solutions\ZigBee2006Res\DemoPIC18Coordinator\Coordinator.c
                  __pa_38   0x003536    program     static F:\Microchip Solutions\ZigBee2006Res\microchip\ZigBeeStack\zNWK.c
                  __pa_38   0x00a822    program     static F:\Microchip Solutions\ZigBee2006Res\microchip\ZigBeeStack\zMAC_MRF24J40.c
                  __pa_39   0x00b954    program     static F:\Microchip Solutions\ZigBee2006Res\DemoPIC18Coordinator\Coordinator.c
                  __pa_39   0x008a40    program     static F:\Microchip Solutions\ZigBee2006Res\microchip\ZigBeeStack\zAPS.c
                  __pa_39   0x0062e6    program     static F:\Microchip Solutions\ZigBee2006Res\microchip\ZigBeeStack\zZDO.C
                  __pa_39   0x00a82e    program     static F:\Microchip Solutions\ZigBee2006Res\microchip\ZigBeeStack\zMAC_MRF24J40.c
                  __pa_39   0x003542    program     static F:\Microchip Solutions\ZigBee2006Res\microchip\ZigBeeStack\zNWK.c
                   __pa_4   0x00c4d0    program     static F:\Microchip Solutions\ZigBee2006Res\microchip\ZigBeeStack\zPHY_MRF24J40.c
                   __pa_4   0x00a5cc    program     static F:\Microchip Solutions\ZigBee2006Res\microchip\ZigBeeStack\zMAC_MRF24J40.c
                   __pa_4   0x008872    program     static F:\Microchip Solutions\ZigBee2006Res\microchip\ZigBeeStack\zAPS.c
                   __pa_4   0x0060b8    program     static F:\Microchip Solutions\ZigBee2006Res\microchip\ZigBeeStack\zZDO.C
                   __pa_4   0x00da5a    program     static F:\Microchip Solutions\ZigBee2006Res\microchip\Common\sralloc.c
                   __pa_4   0x00b796    program     static F:\Microchip Solutions\ZigBee2006Res\DemoPIC18Coordinator\Coordinator.c
                   __pa_4   0x00334c    program     static F:\Microchip Solutions\ZigBee2006Res\microchip\ZigBeeStack\zNWK.c
                  __pa_40   0x0062f2    program     static F:\Microchip Solutions\ZigBee2006Res\microchip\ZigBeeStack\zZDO.C
                  __pa_40   0x00354e    program     static F:\Microchip Solutions\ZigBee2006Res\microchip\ZigBeeStack\zNWK.c
                  __pa_40   0x00a836    program     static F:\Microchip Solutions\ZigBee2006Res\microchip\ZigBeeStack\zMAC_MRF24J40.c
                  __pa_40   0x008a48    program     static F:\Microchip Solutions\ZigBee2006Res\microchip\ZigBeeStack\zAPS.c
                  __pa_41   0x006300    program     static F:\Microchip Solutions\ZigBee2006Res\microchip\ZigBeeStack\zZDO.C
                  __pa_41   0x003558    program     static F:\Microchip Solutions\ZigBee2006Res\microchip\ZigBeeStack\zNWK.c
                  __pa_41   0x00a848    program     static F:\Microchip Solutions\ZigBee2006Res\microchip\ZigBeeStack\zMAC_MRF24J40.c
                  __pa_41   0x008a52    program     static F:\Microchip Solutions\ZigBee2006Res\microchip\ZigBeeStack\zAPS.c
                  __pa_42   0x008a64    program     static F:\Microchip Solutions\ZigBee2006Res\microchip\ZigBeeStack\zAPS.c
                  __pa_42   0x00632c    program     static F:\Microchip Solutions\ZigBee2006Res\microchip\ZigBeeStack\zZDO.C
                  __pa_42   0x00a85a    program     static F:\Microchip Solutions\ZigBee2006Res\microchip\ZigBeeStack\zMAC_MRF24J40.c
                  __pa_42   0x003560    program     static F:\Microchip Solutions\ZigBee2006Res\microchip\ZigBeeStack\zNWK.c
                  __pa_43   0x00633e    program     static F:\Microchip Solutions\ZigBee2006Res\microchip\ZigBeeStack\zZDO.C
                  __pa_43   0x00356e    program     static F:\Microchip Solutions\ZigBee2006Res\microchip\ZigBeeStack\zNWK.c
                  __pa_43   0x008a72    program     static F:\Microchip Solutions\ZigBee2006Res\microchip\ZigBeeStack\zAPS.c
                  __pa_43   0x00a866    program     static F:\Microchip Solutions\ZigBee2006Res\microchip\ZigBeeStack\zMAC_MRF24J40.c
                  __pa_44   0x008a7a    program     static F:\Microchip Solutions\ZigBee2006Res\microchip\ZigBeeStack\zAPS.c
                  __pa_44   0x006344    program     static F:\Microchip Solutions\ZigBee2006Res\microchip\ZigBeeStack\zZDO.C
                  __pa_44   0x00a870    program     static F:\Microchip Solutions\ZigBee2006Res\microchip\ZigBeeStack\zMAC_MRF24J40.c
                  __pa_44   0x003576    program     static F:\Microchip Solutions\ZigBee2006Res\microchip\ZigBeeStack\zNWK.c
                  __pa_45   0x00634a    program     static F:\Microchip Solutions\ZigBee2006Res\microchip\ZigBeeStack\zZDO.C
                  __pa_45   0x008a8a    program     static F:\Microchip Solutions\ZigBee2006Res\microchip\ZigBeeStack\zAPS.c
                  __pa_45   0x00357e    program     static F:\Microchip Solutions\ZigBee2006Res\microchip\ZigBeeStack\zNWK.c
                  __pa_45   0x00a878    program     static F:\Microchip Solutions\ZigBee2006Res\microchip\ZigBeeStack\zMAC_MRF24J40.c
                  __pa_46   0x00a884    program     static F:\Microchip Solutions\ZigBee2006Res\microchip\ZigBeeStack\zMAC_MRF24J40.c
                  __pa_46   0x006350    program     static F:\Microchip Solutions\ZigBee2006Res\microchip\ZigBeeStack\zZDO.C
                  __pa_46   0x008a9a    program     static F:\Microchip Solutions\ZigBee2006Res\microchip\ZigBeeStack\zAPS.c
                  __pa_46   0x00358e    program     static F:\Microchip Solutions\ZigBee2006Res\microchip\ZigBeeStack\zNWK.c
                  __pa_47   0x008aa4    program     static F:\Microchip Solutions\ZigBee2006Res\microchip\ZigBeeStack\zAPS.c
                  __pa_47   0x00a890    program     static F:\Microchip Solutions\ZigBee2006Res\microchip\ZigBeeStack\zMAC_MRF24J40.c
                  __pa_47   0x00359a    program     static F:\Microchip Solutions\ZigBee2006Res\microchip\ZigBeeStack\zNWK.c
                  __pa_47   0x006374    program     static F:\Microchip Solutions\ZigBee2006Res\microchip\ZigBeeStack\zZDO.C
                  __pa_48   0x00a898    program     static F:\Microchip Solutions\ZigBee2006Res\microchip\ZigBeeStack\zMAC_MRF24J40.c
                  __pa_48   0x006380    program     static F:\Microchip Solutions\ZigBee2006Res\microchip\ZigBeeStack\zZDO.C
                  __pa_48   0x0035a2    program     static F:\Microchip Solutions\ZigBee2006Res\microchip\ZigBeeStack\zNWK.c
                  __pa_48   0x008aac    program     static F:\Microchip Solutions\ZigBee2006Res\microchip\ZigBeeStack\zAPS.c
                  __pa_49   0x006386    program     static F:\Microchip Solutions\ZigBee2006Res\microchip\ZigBeeStack\zZDO.C
                  __pa_49   0x0035b2    program     static F:\Microchip Solutions\ZigBee2006Res\microchip\ZigBeeStack\zNWK.c
                  __pa_49   0x00a8a6    program     static F:\Microchip Solutions\ZigBee2006Res\microchip\ZigBeeStack\zMAC_MRF24J40.c
                  __pa_49   0x008ab8    program     static F:\Microchip Solutions\ZigBee2006Res\microchip\ZigBeeStack\zAPS.c
                   __pa_5   0x00da64    program     static F:\Microchip Solutions\ZigBee2006Res\microchip\Common\sralloc.c
                   __pa_5   0x0060c6    program     static F:\Microchip Solutions\ZigBee2006Res\microchip\ZigBeeStack\zZDO.C
                   __pa_5   0x003354    program     static F:\Microchip Solutions\ZigBee2006Res\microchip\ZigBeeStack\zNWK.c
                   __pa_5   0x00a5da    program     static F:\Microchip Solutions\ZigBee2006Res\microchip\ZigBeeStack\zMAC_MRF24J40.c
                   __pa_5   0x00b7a6    program     static F:\Microchip Solutions\ZigBee2006Res\DemoPIC18Coordinator\Coordinator.c
                   __pa_5   0x008878    program     static F:\Microchip Solutions\ZigBee2006Res\microchip\ZigBeeStack\zAPS.c
                  __pa_50   0x0063a8    program     static F:\Microchip Solutions\ZigBee2006Res\microchip\ZigBeeStack\zZDO.C
                  __pa_50   0x00a8b4    program     static F:\Microchip Solutions\ZigBee2006Res\microchip\ZigBeeStack\zMAC_MRF24J40.c
                  __pa_50   0x0035c0    program     static F:\Microchip Solutions\ZigBee2006Res\microchip\ZigBeeStack\zNWK.c
                  __pa_50   0x008ac0    program     static F:\Microchip Solutions\ZigBee2006Res\microchip\ZigBeeStack\zAPS.c
                  __pa_51   0x0063b4    program     static F:\Microchip Solutions\ZigBee2006Res\microchip\ZigBeeStack\zZDO.C
                  __pa_51   0x0035ce    program     static F:\Microchip Solutions\ZigBee2006Res\microchip\ZigBeeStack\zNWK.c
                  __pa_51   0x008ad6    program     static F:\Microchip Solutions\ZigBee2006Res\microchip\ZigBeeStack\zAPS.c
                  __pa_51   0x00a8be    program     static F:\Microchip Solutions\ZigBee2006Res\microchip\ZigBeeStack\zMAC_MRF24J40.c
                  __pa_52   0x0063ba    program     static F:\Microchip Solutions\ZigBee2006Res\microchip\ZigBeeStack\zZDO.C
                  __pa_52   0x0035dc    program     static F:\Microchip Solutions\ZigBee2006Res\microchip\ZigBeeStack\zNWK.c
                  __pa_52   0x008ae4    program     static F:\Microchip Solutions\ZigBee2006Res\microchip\ZigBeeStack\zAPS.c
                  __pa_52   0x00a8cc    program     static F:\Microchip Solutions\ZigBee2006Res\microchip\ZigBeeStack\zMAC_MRF24J40.c
                  __pa_53   0x0063d8    program     static F:\Microchip Solutions\ZigBee2006Res\microchip\ZigBeeStack\zZDO.C
                  __pa_53   0x00a8da    program     static F:\Microchip Solutions\ZigBee2006Res\microchip\ZigBeeStack\zMAC_MRF24J40.c
                  __pa_53   0x008aec    program     static F:\Microchip Solutions\ZigBee2006Res\microchip\ZigBeeStack\zAPS.c
                  __pa_53   0x0035ea    program     static F:\Microchip Solutions\ZigBee2006Res\microchip\ZigBeeStack\zNWK.c
                  __pa_54   0x0063ec    program     static F:\Microchip Solutions\ZigBee2006Res\microchip\ZigBeeStack\zZDO.C
                  __pa_54   0x003608    program     static F:\Microchip Solutions\ZigBee2006Res\microchip\ZigBeeStack\zNWK.c
                  __pa_54   0x008af4    program     static F:\Microchip Solutions\ZigBee2006Res\microchip\ZigBeeStack\zAPS.c
                  __pa_54   0x00a8e8    program     static F:\Microchip Solutions\ZigBee2006Res\microchip\ZigBeeStack\zMAC_MRF24J40.c
                  __pa_55   0x0063fa    program     static F:\Microchip Solutions\ZigBee2006Res\microchip\ZigBeeStack\zZDO.C
                  __pa_55   0x00a8ec    program     static F:\Microchip Solutions\ZigBee2006Res\microchip\ZigBeeStack\zMAC_MRF24J40.c
                  __pa_55   0x008afe    program     static F:\Microchip Solutions\ZigBee2006Res\microchip\ZigBeeStack\zAPS.c
                  __pa_55   0x003610    program     static F:\Microchip Solutions\ZigBee2006Res\microchip\ZigBeeStack\zNWK.c
                  __pa_56   0x008b02    program     static F:\Microchip Solutions\ZigBee2006Res\microchip\ZigBeeStack\zAPS.c
                  __pa_56   0x006408    program     static F:\Microchip Solutions\ZigBee2006Res\microchip\ZigBeeStack\zZDO.C
                  __pa_56   0x003620    program     static F:\Microchip Solutions\ZigBee2006Res\microchip\ZigBeeStack\zNWK.c
                  __pa_56   0x00a8f6    program     static F:\Microchip Solutions\ZigBee2006Res\microchip\ZigBeeStack\zMAC_MRF24J40.c
                  __pa_57   0x00640e    program     static F:\Microchip Solutions\ZigBee2006Res\microchip\ZigBeeStack\zZDO.C
                  __pa_57   0x00362a    program     static F:\Microchip Solutions\ZigBee2006Res\microchip\ZigBeeStack\zNWK.c
                  __pa_57   0x00a900    program     static F:\Microchip Solutions\ZigBee2006Res\microchip\ZigBeeStack\zMAC_MRF24J40.c
                  __pa_57   0x008b14    program     static F:\Microchip Solutions\ZigBee2006Res\microchip\ZigBeeStack\zAPS.c
                  __pa_58   0x003634    program     static F:\Microchip Solutions\ZigBee2006Res\microchip\ZigBeeStack\zNWK.c
                  __pa_58   0x008b26    program     static F:\Microchip Solutions\ZigBee2006Res\microchip\ZigBeeStack\zAPS.c
                  __pa_58   0x00a908    program     static F:\Microchip Solutions\ZigBee2006Res\microchip\ZigBeeStack\zMAC_MRF24J40.c
                  __pa_58   0x00641e    program     static F:\Microchip Solutions\ZigBee2006Res\microchip\ZigBeeStack\zZDO.C
                  __pa_59   0x00642e    program     static F:\Microchip Solutions\ZigBee2006Res\microchip\ZigBeeStack\zZDO.C
                  __pa_59   0x008b32    program     static F:\Microchip Solutions\ZigBee2006Res\microchip\ZigBeeStack\zAPS.c
                  __pa_59   0x00363a    program     static F:\Microchip Solutions\ZigBee2006Res\microchip\ZigBeeStack\zNWK.c
                  __pa_59   0x00a910    program     static F:\Microchip Solutions\ZigBee2006Res\microchip\ZigBeeStack\zMAC_MRF24J40.c
                   __pa_6   0x008882    program     static F:\Microchip Solutions\ZigBee2006Res\microchip\ZigBeeStack\zAPS.c
                   __pa_6   0x003364    program     static F:\Microchip Solutions\ZigBee2006Res\microchip\ZigBeeStack\zNWK.c
                   __pa_6   0x00a5e2    program     static F:\Microchip Solutions\ZigBee2006Res\microchip\ZigBeeStack\zMAC_MRF24J40.c
                   __pa_6   0x00da76    program     static F:\Microchip Solutions\ZigBee2006Res\microchip\Common\sralloc.c
                   __pa_6   0x00b7b2    program     static F:\Microchip Solutions\ZigBee2006Res\DemoPIC18Coordinator\Coordinator.c
                   __pa_6   0x0060d4    program     static F:\Microchip Solutions\ZigBee2006Res\microchip\ZigBeeStack\zZDO.C
                  __pa_60   0x00a92c    program     static F:\Microchip Solutions\ZigBee2006Res\microchip\ZigBeeStack\zMAC_MRF24J40.c
                  __pa_60   0x006444    program     static F:\Microchip Solutions\ZigBee2006Res\microchip\ZigBeeStack\zZDO.C
                  __pa_60   0x00364c    program     static F:\Microchip Solutions\ZigBee2006Res\microchip\ZigBeeStack\zNWK.c
                  __pa_60   0x008b3e    program     static F:\Microchip Solutions\ZigBee2006Res\microchip\ZigBeeStack\zAPS.c
                  __pa_61   0x00a938    program     static F:\Microchip Solutions\ZigBee2006Res\microchip\ZigBeeStack\zMAC_MRF24J40.c
                  __pa_61   0x008b50    program     static F:\Microchip Solutions\ZigBee2006Res\microchip\ZigBeeStack\zAPS.c
                  __pa_61   0x00365a    program     static F:\Microchip Solutions\ZigBee2006Res\microchip\ZigBeeStack\zNWK.c
                  __pa_61   0x00644e    program     static F:\Microchip Solutions\ZigBee2006Res\microchip\ZigBeeStack\zZDO.C
                  __pa_62   0x006454    program     static F:\Microchip Solutions\ZigBee2006Res\microchip\ZigBeeStack\zZDO.C
                  __pa_62   0x003668    program     static F:\Microchip Solutions\ZigBee2006Res\microchip\ZigBeeStack\zNWK.c
                  __pa_62   0x008b58    program     static F:\Microchip Solutions\ZigBee2006Res\microchip\ZigBeeStack\zAPS.c
                  __pa_62   0x00a960    program     static F:\Microchip Solutions\ZigBee2006Res\microchip\ZigBeeStack\zMAC_MRF24J40.c
                  __pa_63   0x003676    program     static F:\Microchip Solutions\ZigBee2006Res\microchip\ZigBeeStack\zNWK.c
                  __pa_63   0x006460    program     static F:\Microchip Solutions\ZigBee2006Res\microchip\ZigBeeStack\zZDO.C
                  __pa_63   0x008b60    program     static F:\Microchip Solutions\ZigBee2006Res\microchip\ZigBeeStack\zAPS.c
                  __pa_63   0x00a976    program     static F:\Microchip Solutions\ZigBee2006Res\microchip\ZigBeeStack\zMAC_MRF24J40.c
                  __pa_64   0x003684    program     static F:\Microchip Solutions\ZigBee2006Res\microchip\ZigBeeStack\zNWK.c
                  __pa_64   0x006468    program     static F:\Microchip Solutions\ZigBee2006Res\microchip\ZigBeeStack\zZDO.C
                  __pa_64   0x00a97e    program     static F:\Microchip Solutions\ZigBee2006Res\microchip\ZigBeeStack\zMAC_MRF24J40.c
                  __pa_64   0x008b6c    program     static F:\Microchip Solutions\ZigBee2006Res\microchip\ZigBeeStack\zAPS.c
                  __pa_65   0x00646e    program     static F:\Microchip Solutions\ZigBee2006Res\microchip\ZigBeeStack\zZDO.C
                  __pa_65   0x00368e    program     static F:\Microchip Solutions\ZigBee2006Res\microchip\ZigBeeStack\zNWK.c
                  __pa_65   0x00a984    program     static F:\Microchip Solutions\ZigBee2006Res\microchip\ZigBeeStack\zMAC_MRF24J40.c
                  __pa_65   0x008b7c    program     static F:\Microchip Solutions\ZigBee2006Res\microchip\ZigBeeStack\zAPS.c
                  __pa_66   0x008b8c    program     static F:\Microchip Solutions\ZigBee2006Res\microchip\ZigBeeStack\zAPS.c
                  __pa_66   0x00369e    program     static F:\Microchip Solutions\ZigBee2006Res\microchip\ZigBeeStack\zNWK.c
                  __pa_66   0x00a98a    program     static F:\Microchip Solutions\ZigBee2006Res\microchip\ZigBeeStack\zMAC_MRF24J40.c
                  __pa_66   0x006484    program     static F:\Microchip Solutions\ZigBee2006Res\microchip\ZigBeeStack\zZDO.C
                  __pa_67   0x006494    program     static F:\Microchip Solutions\ZigBee2006Res\microchip\ZigBeeStack\zZDO.C
                  __pa_67   0x0036ae    program     static F:\Microchip Solutions\ZigBee2006Res\microchip\ZigBeeStack\zNWK.c
                  __pa_67   0x00a99c    program     static F:\Microchip Solutions\ZigBee2006Res\microchip\ZigBeeStack\zMAC_MRF24J40.c
                  __pa_67   0x008b9c    program     static F:\Microchip Solutions\ZigBee2006Res\microchip\ZigBeeStack\zAPS.c
                  __pa_68   0x00a9ac    program     static F:\Microchip Solutions\ZigBee2006Res\microchip\ZigBeeStack\zMAC_MRF24J40.c
                  __pa_68   0x0064a0    program     static F:\Microchip Solutions\ZigBee2006Res\microchip\ZigBeeStack\zZDO.C
                  __pa_68   0x0036b8    program     static F:\Microchip Solutions\ZigBee2006Res\microchip\ZigBeeStack\zNWK.c
                  __pa_68   0x008ba2    program     static F:\Microchip Solutions\ZigBee2006Res\microchip\ZigBeeStack\zAPS.c
                  __pa_69   0x008bb0    program     static F:\Microchip Solutions\ZigBee2006Res\microchip\ZigBeeStack\zAPS.c
                  __pa_69   0x00a9b8    program     static F:\Microchip Solutions\ZigBee2006Res\microchip\ZigBeeStack\zMAC_MRF24J40.c
                  __pa_69   0x0064ae    program     static F:\Microchip Solutions\ZigBee2006Res\microchip\ZigBeeStack\zZDO.C
                  __pa_69   0x0036c0    program     static F:\Microchip Solutions\ZigBee2006Res\microchip\ZigBeeStack\zNWK.c
                   __pa_7   0x00b7c4    program     static F:\Microchip Solutions\ZigBee2006Res\DemoPIC18Coordinator\Coordinator.c
                   __pa_7   0x00da82    program     static F:\Microchip Solutions\ZigBee2006Res\microchip\Common\sralloc.c
                   __pa_7   0x00a5f4    program     static F:\Microchip Solutions\ZigBee2006Res\microchip\ZigBeeStack\zMAC_MRF24J40.c
                   __pa_7   0x0060de    program     static F:\Microchip Solutions\ZigBee2006Res\microchip\ZigBeeStack\zZDO.C
                   __pa_7   0x00888a    program     static F:\Microchip Solutions\ZigBee2006Res\microchip\ZigBeeStack\zAPS.c
                   __pa_7   0x00336c    program     static F:\Microchip Solutions\ZigBee2006Res\microchip\ZigBeeStack\zNWK.c
                  __pa_70   0x0036c8    program     static F:\Microchip Solutions\ZigBee2006Res\microchip\ZigBeeStack\zNWK.c
                  __pa_70   0x00a9c4    program     static F:\Microchip Solutions\ZigBee2006Res\microchip\ZigBeeStack\zMAC_MRF24J40.c
                  __pa_70   0x008bb8    program     static F:\Microchip Solutions\ZigBee2006Res\microchip\ZigBeeStack\zAPS.c
                  __pa_70   0x0064b6    program     static F:\Microchip Solutions\ZigBee2006Res\microchip\ZigBeeStack\zZDO.C
                  __pa_71   0x00a9ce    program     static F:\Microchip Solutions\ZigBee2006Res\microchip\ZigBeeStack\zMAC_MRF24J40.c
                  __pa_71   0x008bbe    program     static F:\Microchip Solutions\ZigBee2006Res\microchip\ZigBeeStack\zAPS.c
                  __pa_71   0x0036da    program     static F:\Microchip Solutions\ZigBee2006Res\microchip\ZigBeeStack\zNWK.c
                  __pa_71   0x0064be    program     static F:\Microchip Solutions\ZigBee2006Res\microchip\ZigBeeStack\zZDO.C
                  __pa_72   0x008bcc    program     static F:\Microchip Solutions\ZigBee2006Res\microchip\ZigBeeStack\zAPS.c
                  __pa_72   0x0064cc    program     static F:\Microchip Solutions\ZigBee2006Res\microchip\ZigBeeStack\zZDO.C
                  __pa_72   0x0036e2    program     static F:\Microchip Solutions\ZigBee2006Res\microchip\ZigBeeStack\zNWK.c
                  __pa_72   0x00a9d6    program     static F:\Microchip Solutions\ZigBee2006Res\microchip\ZigBeeStack\zMAC_MRF24J40.c
                  __pa_73   0x0064da    program     static F:\Microchip Solutions\ZigBee2006Res\microchip\ZigBeeStack\zZDO.C
                  __pa_73   0x0036f8    program     static F:\Microchip Solutions\ZigBee2006Res\microchip\ZigBeeStack\zNWK.c
                  __pa_73   0x008bda    program     static F:\Microchip Solutions\ZigBee2006Res\microchip\ZigBeeStack\zAPS.c
                  __pa_73   0x00a9e2    program     static F:\Microchip Solutions\ZigBee2006Res\microchip\ZigBeeStack\zMAC_MRF24J40.c
                  __pa_74   0x003708    program     static F:\Microchip Solutions\ZigBee2006Res\microchip\ZigBeeStack\zNWK.c
                  __pa_74   0x008be2    program     static F:\Microchip Solutions\ZigBee2006Res\microchip\ZigBeeStack\zAPS.c
                  __pa_74   0x0064e0    program     static F:\Microchip Solutions\ZigBee2006Res\microchip\ZigBeeStack\zZDO.C
                  __pa_74   0x00a9ea    program     static F:\Microchip Solutions\ZigBee2006Res\microchip\ZigBeeStack\zMAC_MRF24J40.c
                  __pa_75   0x0064e8    program     static F:\Microchip Solutions\ZigBee2006Res\microchip\ZigBeeStack\zZDO.C
                  __pa_75   0x008bec    program     static F:\Microchip Solutions\ZigBee2006Res\microchip\ZigBeeStack\zAPS.c
                  __pa_75   0x003718    program     static F:\Microchip Solutions\ZigBee2006Res\microchip\ZigBeeStack\zNWK.c
                  __pa_75   0x00a9f4    program     static F:\Microchip Solutions\ZigBee2006Res\microchip\ZigBeeStack\zMAC_MRF24J40.c
                  __pa_76   0x008bfa    program     static F:\Microchip Solutions\ZigBee2006Res\microchip\ZigBeeStack\zAPS.c
                  __pa_76   0x003726    program     static F:\Microchip Solutions\ZigBee2006Res\microchip\ZigBeeStack\zNWK.c
                  __pa_76   0x00a9fa    program     static F:\Microchip Solutions\ZigBee2006Res\microchip\ZigBeeStack\zMAC_MRF24J40.c
                  __pa_76   0x0064f6    program     static F:\Microchip Solutions\ZigBee2006Res\microchip\ZigBeeStack\zZDO.C
                  __pa_77   0x0064fe    program     static F:\Microchip Solutions\ZigBee2006Res\microchip\ZigBeeStack\zZDO.C
                  __pa_77   0x003734    program     static F:\Microchip Solutions\ZigBee2006Res\microchip\ZigBeeStack\zNWK.c
                  __pa_77   0x00aa02    program     static F:\Microchip Solutions\ZigBee2006Res\microchip\ZigBeeStack\zMAC_MRF24J40.c
                  __pa_77   0x008c00    program     static F:\Microchip Solutions\ZigBee2006Res\microchip\ZigBeeStack\zAPS.c
                  __pa_78   0x003740    program     static F:\Microchip Solutions\ZigBee2006Res\microchip\ZigBeeStack\zNWK.c
                  __pa_78   0x008c08    program     static F:\Microchip Solutions\ZigBee2006Res\microchip\ZigBeeStack\zAPS.c
                  __pa_78   0x00aa0a    program     static F:\Microchip Solutions\ZigBee2006Res\microchip\ZigBeeStack\zMAC_MRF24J40.c
                  __pa_78   0x00650c    program     static F:\Microchip Solutions\ZigBee2006Res\microchip\ZigBeeStack\zZDO.C
                  __pa_79   0x008c12    program     static F:\Microchip Solutions\ZigBee2006Res\microchip\ZigBeeStack\zAPS.c
                  __pa_79   0x00374a    program     static F:\Microchip Solutions\ZigBee2006Res\microchip\ZigBeeStack\zNWK.c
                  __pa_79   0x00651c    program     static F:\Microchip Solutions\ZigBee2006Res\microchip\ZigBeeStack\zZDO.C
                  __pa_79   0x00aa12    program     static F:\Microchip Solutions\ZigBee2006Res\microchip\ZigBeeStack\zMAC_MRF24J40.c
                   __pa_8   0x00da8e    program     static F:\Microchip Solutions\ZigBee2006Res\microchip\Common\sralloc.c
                   __pa_8   0x0060e4    program     static F:\Microchip Solutions\ZigBee2006Res\microchip\ZigBeeStack\zZDO.C
                   __pa_8   0x003390    program     static F:\Microchip Solutions\ZigBee2006Res\microchip\ZigBeeStack\zNWK.c
                   __pa_8   0x00a5fc    program     static F:\Microchip Solutions\ZigBee2006Res\microchip\ZigBeeStack\zMAC_MRF24J40.c
                   __pa_8   0x00b7ce    program     static F:\Microchip Solutions\ZigBee2006Res\DemoPIC18Coordinator\Coordinator.c
                   __pa_8   0x008894    program     static F:\Microchip Solutions\ZigBee2006Res\microchip\ZigBeeStack\zAPS.c
                  __pa_80   0x00652c    program     static F:\Microchip Solutions\ZigBee2006Res\microchip\ZigBeeStack\zZDO.C
                  __pa_80   0x003754    program     static F:\Microchip Solutions\ZigBee2006Res\microchip\ZigBeeStack\zNWK.c
                  __pa_80   0x008c1a    program     static F:\Microchip Solutions\ZigBee2006Res\microchip\ZigBeeStack\zAPS.c
                  __pa_80   0x00aa22    program     static F:\Microchip Solutions\ZigBee2006Res\microchip\ZigBeeStack\zMAC_MRF24J40.c
                  __pa_81   0x00375e    program     static F:\Microchip Solutions\ZigBee2006Res\microchip\ZigBeeStack\zNWK.c
                  __pa_81   0x008c22    program     static F:\Microchip Solutions\ZigBee2006Res\microchip\ZigBeeStack\zAPS.c
                  __pa_81   0x00653a    program     static F:\Microchip Solutions\ZigBee2006Res\microchip\ZigBeeStack\zZDO.C
                  __pa_81   0x00aa30    program     static F:\Microchip Solutions\ZigBee2006Res\microchip\ZigBeeStack\zMAC_MRF24J40.c
                  __pa_82   0x003768    program     static F:\Microchip Solutions\ZigBee2006Res\microchip\ZigBeeStack\zNWK.c
                  __pa_82   0x008c28    program     static F:\Microchip Solutions\ZigBee2006Res\microchip\ZigBeeStack\zAPS.c
                  __pa_82   0x006546    program     static F:\Microchip Solutions\ZigBee2006Res\microchip\ZigBeeStack\zZDO.C
                  __pa_82   0x00aa3e    program     static F:\Microchip Solutions\ZigBee2006Res\microchip\ZigBeeStack\zMAC_MRF24J40.c
                  __pa_83   0x008c30    program     static F:\Microchip Solutions\ZigBee2006Res\microchip\ZigBeeStack\zAPS.c
                  __pa_83   0x003770    program     static F:\Microchip Solutions\ZigBee2006Res\microchip\ZigBeeStack\zNWK.c
                  __pa_83   0x006558    program     static F:\Microchip Solutions\ZigBee2006Res\microchip\ZigBeeStack\zZDO.C
                  __pa_83   0x00aa4e    program     static F:\Microchip Solutions\ZigBee2006Res\microchip\ZigBeeStack\zMAC_MRF24J40.c
                  __pa_84   0x003784    program     static F:\Microchip Solutions\ZigBee2006Res\microchip\ZigBeeStack\zNWK.c
                  __pa_84   0x00656a    program     static F:\Microchip Solutions\ZigBee2006Res\microchip\ZigBeeStack\zZDO.C
                  __pa_84   0x00aa5c    program     static F:\Microchip Solutions\ZigBee2006Res\microchip\ZigBeeStack\zMAC_MRF24J40.c
                  __pa_84   0x008c38    program     static F:\Microchip Solutions\ZigBee2006Res\microchip\ZigBeeStack\zAPS.c
                  __pa_85   0x00aa68    program     static F:\Microchip Solutions\ZigBee2006Res\microchip\ZigBeeStack\zMAC_MRF24J40.c
                  __pa_85   0x008c40    program     static F:\Microchip Solutions\ZigBee2006Res\microchip\ZigBeeStack\zAPS.c
                  __pa_85   0x003798    program     static F:\Microchip Solutions\ZigBee2006Res\microchip\ZigBeeStack\zNWK.c
                  __pa_85   0x006574    program     static F:\Microchip Solutions\ZigBee2006Res\microchip\ZigBeeStack\zZDO.C
                  __pa_86   0x00aa74    program     static F:\Microchip Solutions\ZigBee2006Res\microchip\ZigBeeStack\zMAC_MRF24J40.c
                  __pa_86   0x0037ac    program     static F:\Microchip Solutions\ZigBee2006Res\microchip\ZigBeeStack\zNWK.c
                  __pa_86   0x006586    program     static F:\Microchip Solutions\ZigBee2006Res\microchip\ZigBeeStack\zZDO.C
                  __pa_86   0x008c46    program     static F:\Microchip Solutions\ZigBee2006Res\microchip\ZigBeeStack\zAPS.c
                  __pa_87   0x0037c0    program     static F:\Microchip Solutions\ZigBee2006Res\microchip\ZigBeeStack\zNWK.c
                  __pa_87   0x008c4c    program     static F:\Microchip Solutions\ZigBee2006Res\microchip\ZigBeeStack\zAPS.c
                  __pa_87   0x006598    program     static F:\Microchip Solutions\ZigBee2006Res\microchip\ZigBeeStack\zZDO.C
                  __pa_87   0x00aa7c    program     static F:\Microchip Solutions\ZigBee2006Res\microchip\ZigBeeStack\zMAC_MRF24J40.c
                  __pa_88   0x0037c8    program     static F:\Microchip Solutions\ZigBee2006Res\microchip\ZigBeeStack\zNWK.c
                  __pa_88   0x0065aa    program     static F:\Microchip Solutions\ZigBee2006Res\microchip\ZigBeeStack\zZDO.C
                  __pa_88   0x008c5c    program     static F:\Microchip Solutions\ZigBee2006Res\microchip\ZigBeeStack\zAPS.c
                  __pa_88   0x00aa82    program     static F:\Microchip Solutions\ZigBee2006Res\microchip\ZigBeeStack\zMAC_MRF24J40.c
                  __pa_89   0x0037ce    program     static F:\Microchip Solutions\ZigBee2006Res\microchip\ZigBeeStack\zNWK.c
                  __pa_89   0x008c6c    program     static F:\Microchip Solutions\ZigBee2006Res\microchip\ZigBeeStack\zAPS.c
                  __pa_89   0x0065bc    program     static F:\Microchip Solutions\ZigBee2006Res\microchip\ZigBeeStack\zZDO.C
                  __pa_89   0x00aa88    program     static F:\Microchip Solutions\ZigBee2006Res\microchip\ZigBeeStack\zMAC_MRF24J40.c
                   __pa_9   0x0088aa    program     static F:\Microchip Solutions\ZigBee2006Res\microchip\ZigBeeStack\zAPS.c
                   __pa_9   0x00b7da    program     static F:\Microchip Solutions\ZigBee2006Res\DemoPIC18Coordinator\Coordinator.c
                   __pa_9   0x00a604    program     static F:\Microchip Solutions\ZigBee2006Res\microchip\ZigBeeStack\zMAC_MRF24J40.c
                   __pa_9   0x0033b4    program     static F:\Microchip Solutions\ZigBee2006Res\microchip\ZigBeeStack\zNWK.c
                   __pa_9   0x0060f0    program     static F:\Microchip Solutions\ZigBee2006Res\microchip\ZigBeeStack\zZDO.C
                  __pa_90   0x008c72    program     static F:\Microchip Solutions\ZigBee2006Res\microchip\ZigBeeStack\zAPS.c
                  __pa_90   0x00aa90    program     static F:\Microchip Solutions\ZigBee2006Res\microchip\ZigBeeStack\zMAC_MRF24J40.c
                  __pa_90   0x0065ce    program     static F:\Microchip Solutions\ZigBee2006Res\microchip\ZigBeeStack\zZDO.C
                  __pa_90   0x0037d4    program     static F:\Microchip Solutions\ZigBee2006Res\microchip\ZigBeeStack\zNWK.c
                  __pa_91   0x00aa98    program     static F:\Microchip Solutions\ZigBee2006Res\microchip\ZigBeeStack\zMAC_MRF24J40.c
                  __pa_91   0x0037e0    program     static F:\Microchip Solutions\ZigBee2006Res\microchip\ZigBeeStack\zNWK.c
                  __pa_91   0x0065d8    program     static F:\Microchip Solutions\ZigBee2006Res\microchip\ZigBeeStack\zZDO.C
                  __pa_91   0x008c78    program     static F:\Microchip Solutions\ZigBee2006Res\microchip\ZigBeeStack\zAPS.c
                  __pa_92   0x0065e2    program     static F:\Microchip Solutions\ZigBee2006Res\microchip\ZigBeeStack\zZDO.C
                  __pa_92   0x0037e6    program     static F:\Microchip Solutions\ZigBee2006Res\microchip\ZigBeeStack\zNWK.c
                  __pa_92   0x008c88    program     static F:\Microchip Solutions\ZigBee2006Res\microchip\ZigBeeStack\zAPS.c
                  __pa_92   0x00aaac    program     static F:\Microchip Solutions\ZigBee2006Res\microchip\ZigBeeStack\zMAC_MRF24J40.c
                  __pa_93   0x008c94    program     static F:\Microchip Solutions\ZigBee2006Res\microchip\ZigBeeStack\zAPS.c
                  __pa_93   0x0037f2    program     static F:\Microchip Solutions\ZigBee2006Res\microchip\ZigBeeStack\zNWK.c
                  __pa_93   0x0065e8    program     static F:\Microchip Solutions\ZigBee2006Res\microchip\ZigBeeStack\zZDO.C
                  __pa_93   0x00aac6    program     static F:\Microchip Solutions\ZigBee2006Res\microchip\ZigBeeStack\zMAC_MRF24J40.c
                  __pa_94   0x0065f0    program     static F:\Microchip Solutions\ZigBee2006Res\microchip\ZigBeeStack\zZDO.C
                  __pa_94   0x008c9a    program     static F:\Microchip Solutions\ZigBee2006Res\microchip\ZigBeeStack\zAPS.c
                  __pa_94   0x0037fe    program     static F:\Microchip Solutions\ZigBee2006Res\microchip\ZigBeeStack\zNWK.c
                  __pa_94   0x00aada    program     static F:\Microchip Solutions\ZigBee2006Res\microchip\ZigBeeStack\zMAC_MRF24J40.c
                  __pa_95   0x00aae0    program     static F:\Microchip Solutions\ZigBee2006Res\microchip\ZigBeeStack\zMAC_MRF24J40.c
                  __pa_95   0x008cb0    program     static F:\Microchip Solutions\ZigBee2006Res\microchip\ZigBeeStack\zAPS.c
                  __pa_95   0x0065fc    program     static F:\Microchip Solutions\ZigBee2006Res\microchip\ZigBeeStack\zZDO.C
                  __pa_95   0x003808    program     static F:\Microchip Solutions\ZigBee2006Res\microchip\ZigBeeStack\zNWK.c
                  __pa_96   0x008cca    program     static F:\Microchip Solutions\ZigBee2006Res\microchip\ZigBeeStack\zAPS.c
                  __pa_96   0x00aae6    program     static F:\Microchip Solutions\ZigBee2006Res\microchip\ZigBeeStack\zMAC_MRF24J40.c
                  __pa_96   0x006608    program     static F:\Microchip Solutions\ZigBee2006Res\microchip\ZigBeeStack\zZDO.C
                  __pa_96   0x003814    program     static F:\Microchip Solutions\ZigBee2006Res\microchip\ZigBeeStack\zNWK.c
                  __pa_97   0x008cd8    program     static F:\Microchip Solutions\ZigBee2006Res\microchip\ZigBeeStack\zAPS.c
                  __pa_97   0x006614    program     static F:\Microchip Solutions\ZigBee2006Res\microchip\ZigBeeStack\zZDO.C
                  __pa_97   0x00381e    program     static F:\Microchip Solutions\ZigBee2006Res\microchip\ZigBeeStack\zNWK.c
                  __pa_98   0x003826    program     static F:\Microchip Solutions\ZigBee2006Res\microchip\ZigBeeStack\zNWK.c
                  __pa_98   0x008cea    program     static F:\Microchip Solutions\ZigBee2006Res\microchip\ZigBeeStack\zAPS.c
                  __pa_98   0x006620    program     static F:\Microchip Solutions\ZigBee2006Res\microchip\ZigBeeStack\zZDO.C
                  __pa_99   0x008cee    program     static F:\Microchip Solutions\ZigBee2006Res\microchip\ZigBeeStack\zAPS.c
                  __pa_99   0x006628    program     static F:\Microchip Solutions\ZigBee2006Res\microchip\ZigBeeStack\zZDO.C
                  __pa_99   0x00382e    program     static F:\Microchip Solutions\ZigBee2006Res\microchip\ZigBeeStack\zNWK.c
               __string_0   0x00cb57    program     static F:\Microchip Solutions\ZigBee2006Res\DemoPIC18Coordinator\Coordinator.c
               __string_1   0x00cb30    program     static F:\Microchip Solutions\ZigBee2006Res\DemoPIC18Coordinator\Coordinator.c
              __string_10   0x00ca0b    program     static F:\Microchip Solutions\ZigBee2006Res\DemoPIC18Coordinator\Coordinator.c
              __string_11   0x00c9ed    program     static F:\Microchip Solutions\ZigBee2006Res\DemoPIC18Coordinator\Coordinator.c
              __string_12   0x00c9cc    program     static F:\Microchip Solutions\ZigBee2006Res\DemoPIC18Coordinator\Coordinator.c
              __string_13   0x00c9c4    program     static F:\Microchip Solutions\ZigBee2006Res\DemoPIC18Coordinator\Coordinator.c
              __string_14   0x00c9b1    program     static F:\Microchip Solutions\ZigBee2006Res\DemoPIC18Coordinator\Coordinator.c
              __string_15   0x00c9a1    program     static F:\Microchip Solutions\ZigBee2006Res\DemoPIC18Coordinator\Coordinator.c
              __string_16   0x00c984    program     static F:\Microchip Solutions\ZigBee2006Res\DemoPIC18Coordinator\Coordinator.c
              __string_17   0x00c95e    program     static F:\Microchip Solutions\ZigBee2006Res\DemoPIC18Coordinator\Coordinator.c
              __string_18   0x00c93f    program     static F:\Microchip Solutions\ZigBee2006Res\DemoPIC18Coordinator\Coordinator.c
              __string_19   0x00c921    program     static F:\Microchip Solutions\ZigBee2006Res\DemoPIC18Coordinator\Coordinator.c
               __string_2   0x00caf2    program     static F:\Microchip Solutions\ZigBee2006Res\DemoPIC18Coordinator\Coordinator.c
              __string_20   0x00c91a    program     static F:\Microchip Solutions\ZigBee2006Res\DemoPIC18Coordinator\Coordinator.c
              __string_21   0x00c906    program     static F:\Microchip Solutions\ZigBee2006Res\DemoPIC18Coordinator\Coordinator.c
              __string_22   0x00c8e8    program     static F:\Microchip Solutions\ZigBee2006Res\DemoPIC18Coordinator\Coordinator.c
              __string_23   0x00c8c1    program     static F:\Microchip Solutions\ZigBee2006Res\DemoPIC18Coordinator\Coordinator.c
              __string_24   0x00c89d    program     static F:\Microchip Solutions\ZigBee2006Res\DemoPIC18Coordinator\Coordinator.c
              __string_25   0x00c883    program     static F:\Microchip Solutions\ZigBee2006Res\DemoPIC18Coordinator\Coordinator.c
              __string_26   0x00c86b    program     static F:\Microchip Solutions\ZigBee2006Res\DemoPIC18Coordinator\Coordinator.c
              __string_27   0x00c868    program     static F:\Microchip Solutions\ZigBee2006Res\DemoPIC18Coordinator\Coordinator.c
              __string_28   0x00c850    program     static F:\Microchip Solutions\ZigBee2006Res\DemoPIC18Coordinator\Coordinator.c
              __string_29   0x00c848    program     static F:\Microchip Solutions\ZigBee2006Res\DemoPIC18Coordinator\Coordinator.c
               __string_3   0x00cad9    program     static F:\Microchip Solutions\ZigBee2006Res\DemoPIC18Coordinator\Coordinator.c
              __string_30   0x00c839    program     static F:\Microchip Solutions\ZigBee2006Res\DemoPIC18Coordinator\Coordinator.c
              __string_31   0x00c828    program     static F:\Microchip Solutions\ZigBee2006Res\DemoPIC18Coordinator\Coordinator.c
              __string_32   0x00c80b    program     static F:\Microchip Solutions\ZigBee2006Res\DemoPIC18Coordinator\Coordinator.c
              __string_33   0x00c7ee    program     static F:\Microchip Solutions\ZigBee2006Res\DemoPIC18Coordinator\Coordinator.c
              __string_34   0x00c7cd    program     static F:\Microchip Solutions\ZigBee2006Res\DemoPIC18Coordinator\Coordinator.c
              __string_35   0x00c7b5    program     static F:\Microchip Solutions\ZigBee2006Res\DemoPIC18Coordinator\Coordinator.c
              __string_36   0x00c792    program     static F:\Microchip Solutions\ZigBee2006Res\DemoPIC18Coordinator\Coordinator.c
              __string_37   0x00c767    program     static F:\Microchip Solutions\ZigBee2006Res\DemoPIC18Coordinator\Coordinator.c
              __string_38   0x00c72c    program     static F:\Microchip Solutions\ZigBee2006Res\DemoPIC18Coordinator\Coordinator.c
              __string_39   0x00c6fa    program     static F:\Microchip Solutions\ZigBee2006Res\DemoPIC18Coordinator\Coordinator.c
               __string_4   0x00cabd    program     static F:\Microchip Solutions\ZigBee2006Res\DemoPIC18Coordinator\Coordinator.c
              __string_40   0x00c6c7    program     static F:\Microchip Solutions\ZigBee2006Res\DemoPIC18Coordinator\Coordinator.c
              __string_41   0x00c68a    program     static F:\Microchip Solutions\ZigBee2006Res\DemoPIC18Coordinator\Coordinator.c
              __string_42   0x00c65c    program     static F:\Microchip Solutions\ZigBee2006Res\DemoPIC18Coordinator\Coordinator.c
              __string_43   0x00c62d    program     static F:\Microchip Solutions\ZigBee2006Res\DemoPIC18Coordinator\Coordinator.c
              __string_44   0x00c5d3    program     static F:\Microchip Solutions\ZigBee2006Res\DemoPIC18Coordinator\Coordinator.c
              __string_45   0x00c5b3    program     static F:\Microchip Solutions\ZigBee2006Res\DemoPIC18Coordinator\Coordinator.c
              __string_46   0x00c574    program     static F:\Microchip Solutions\ZigBee2006Res\DemoPIC18Coordinator\Coordinator.c
              __string_47   0x00c56a    program     static F:\Microchip Solutions\ZigBee2006Res\DemoPIC18Coordinator\Coordinator.c
              __string_48   0x00c55f    program     static F:\Microchip Solutions\ZigBee2006Res\DemoPIC18Coordinator\Coordinator.c
              __string_49   0x00c55b    program     static F:\Microchip Solutions\ZigBee2006Res\DemoPIC18Coordinator\Coordinator.c
               __string_5   0x00caa1    program     static F:\Microchip Solutions\ZigBee2006Res\DemoPIC18Coordinator\Coordinator.c
              __string_50   0x00c557    program     static F:\Microchip Solutions\ZigBee2006Res\DemoPIC18Coordinator\Coordinator.c
              __string_51   0x00c553    program     static F:\Microchip Solutions\ZigBee2006Res\DemoPIC18Coordinator\Coordinator.c
              __string_52   0x00c54f    program     static F:\Microchip Solutions\ZigBee2006Res\DemoPIC18Coordinator\Coordinator.c
              __string_53   0x00c548    program     static F:\Microchip Solutions\ZigBee2006Res\DemoPIC18Coordinator\Coordinator.c
              __string_54   0x00c541    program     static F:\Microchip Solutions\ZigBee2006Res\DemoPIC18Coordinator\Coordinator.c
              __string_55   0x00c53a    program     static F:\Microchip Solutions\ZigBee2006Res\DemoPIC18Coordinator\Coordinator.c
              __string_56   0x00c4f8    program     static F:\Microchip Solutions\ZigBee2006Res\DemoPIC18Coordinator\Coordinator.c
              __string_57   0x00c4e0    program     static F:\Microchip Solutions\ZigBee2006Res\DemoPIC18Coordinator\Coordinator.c
               __string_6   0x00ca9c    program     static F:\Microchip Solutions\ZigBee2006Res\DemoPIC18Coordinator\Coordinator.c
               __string_7   0x00ca83    program     static F:\Microchip Solutions\ZigBee2006Res\DemoPIC18Coordinator\Coordinator.c
               __string_8   0x00ca58    program     static F:\Microchip Solutions\ZigBee2006Res\DemoPIC18Coordinator\Coordinator.c
               __string_9   0x00ca43    program     static F:\Microchip Solutions\ZigBee2006Res\DemoPIC18Coordinator\Coordinator.c
               __tmplbl_0   0x00d210    program     static                          
               __tmplbl_0   0x00cff8    program     static                          
               __tmplbl_1   0x00cff0    program     static                          
               __tmplbl_1   0x00d20a    program     static                          
             __tmplbl_103   0x007c98    program     static                          
             __tmplbl_104   0x0048e0    program     static                          
             __tmplbl_104   0x007c98    program     static                          
             __tmplbl_105   0x007c98    program     static                          
             __tmplbl_106   0x007c88    program     static                          
             __tmplbl_107   0x007c00    program     static                          
             __tmplbl_108   0x0048da    program     static                          
             __tmplbl_108   0x007bec    program     static                          
             __tmplbl_109   0x007bdc    program     static                          
             __tmplbl_110   0x007bcc    program     static                          
             __tmplbl_112   0x007c98    program     static                          
             __tmplbl_113   0x007c98    program     static                          
             __tmplbl_119   0x007c9a    program     static                          
             __tmplbl_130   0x00532a    program     static                          
             __tmplbl_134   0x0088f4    program     static                          
             __tmplbl_135   0x0088f4    program     static                          
             __tmplbl_136   0x0088f4    program     static                          
             __tmplbl_136   0x00532a    program     static                          
             __tmplbl_137   0x005328    program     static                          
             __tmplbl_138   0x00532a    program     static                          
             __tmplbl_139   0x005328    program     static                          
             __tmplbl_140   0x005328    program     static                          
             __tmplbl_141   0x005328    program     static                          
             __tmplbl_142   0x00532a    program     static                          
             __tmplbl_143   0x00530a    program     static                          
             __tmplbl_144   0x0052ec    program     static                          
             __tmplbl_145   0x00514a    program     static                          
             __tmplbl_146   0x005328    program     static                          
             __tmplbl_152   0x00532a    program     static                          
             __tmplbl_177   0x0033ea    program     static                          
             __tmplbl_180   0x002162    program     static                          
             __tmplbl_188   0x002162    program     static                          
             __tmplbl_189   0x001fb8    program     static                          
             __tmplbl_190   0x00235e    program     static                          
             __tmplbl_191   0x00235e    program     static                          
             __tmplbl_192   0x006152    program     static                          
             __tmplbl_193   0x006152    program     static                          
             __tmplbl_194   0x006152    program     static                          
             __tmplbl_196   0x002352    program     static                          
             __tmplbl_197   0x002352    program     static                          
             __tmplbl_197   0x006152    program     static                          
               __tmplbl_2   0x00cfe8    program     static                          
               __tmplbl_2   0x00d208    program     static                          
               __tmplbl_2   0x00c106    program     static                          
              __tmplbl_20   0x00a7d0    program     static                          
             __tmplbl_200   0x001fb0    program     static                          
             __tmplbl_201   0x00235e    program     static                          
             __tmplbl_202   0x002292    program     static                          
             __tmplbl_202   0x006152    program     static                          
             __tmplbl_203   0x006152    program     static                          
             __tmplbl_203   0x002162    program     static                          
             __tmplbl_204   0x001d9e    program     static                          
             __tmplbl_205   0x002236    program     static                          
             __tmplbl_206   0x00220e    program     static                          
             __tmplbl_207   0x002204    program     static                          
             __tmplbl_208   0x0020dc    program     static                          
             __tmplbl_209   0x0020ae    program     static                          
              __tmplbl_21   0x00a7d0    program     static                          
             __tmplbl_210   0x006ac8    program     static                          
             __tmplbl_210   0x0020a0    program     static                          
             __tmplbl_211   0x002096    program     static                          
             __tmplbl_212   0x00204c    program     static                          
             __tmplbl_213   0x002018    program     static                          
             __tmplbl_214   0x00200a    program     static                          
             __tmplbl_215   0x001e0c    program     static                          
             __tmplbl_216   0x001df6    program     static                          
             __tmplbl_217   0x001da2    program     static                          
             __tmplbl_218   0x001d78    program     static                          
             __tmplbl_219   0x001ab8    program     static                          
             __tmplbl_220   0x001a0c    program     static                          
             __tmplbl_221   0x0019e8    program     static                          
             __tmplbl_222   0x0018d4    program     static                          
             __tmplbl_223   0x00186c    program     static                          
             __tmplbl_224   0x002362    program     static                          
             __tmplbl_225   0x00235e    program     static                          
             __tmplbl_226   0x002162    program     static                          
             __tmplbl_227   0x002364    program     static                          
             __tmplbl_229   0x0019e2    program     static                          
             __tmplbl_233   0x0019e2    program     static                          
             __tmplbl_237   0x0019e2    program     static                          
              __tmplbl_24   0x00b3e4    program     static                          
              __tmplbl_24   0x009986    program     static                          
             __tmplbl_240   0x002162    program     static                          
             __tmplbl_242   0x0019e2    program     static                          
             __tmplbl_243   0x002162    program     static                          
             __tmplbl_247   0x0019e2    program     static                          
             __tmplbl_248   0x0019e2    program     static                          
             __tmplbl_249   0x0019e2    program     static                          
              __tmplbl_25   0x00b3e4    program     static                          
             __tmplbl_250   0x0019e2    program     static                          
             __tmplbl_251   0x0019e2    program     static                          
             __tmplbl_252   0x002162    program     static                          
             __tmplbl_253   0x00235e    program     static                          
             __tmplbl_254   0x001864    program     static                          
             __tmplbl_255   0x001864    program     static                          
             __tmplbl_256   0x001860    program     static                          
             __tmplbl_257   0x0019e2    program     static                          
             __tmplbl_258   0x0019e2    program     static                          
             __tmplbl_259   0x0019e2    program     static                          
              __tmplbl_26   0x00b3e4    program     static                          
             __tmplbl_260   0x0019e2    program     static                          
             __tmplbl_261   0x002200    program     static                          
             __tmplbl_262   0x002364    program     static                          
             __tmplbl_268   0x002162    program     static                          
             __tmplbl_269   0x002162    program     static                          
             __tmplbl_270   0x002200    program     static                          
             __tmplbl_271   0x00235e    program     static                          
             __tmplbl_272   0x00235e    program     static                          
             __tmplbl_273   0x001f48    program     static                          
             __tmplbl_276   0x002162    program     static                          
             __tmplbl_279   0x002162    program     static                          
              __tmplbl_28   0x00a05e    program     static                          
             __tmplbl_280   0x00235a    program     static                          
             __tmplbl_281   0x002298    program     static                          
             __tmplbl_282   0x002364    program     static                          
             __tmplbl_287   0x00235e    program     static                          
             __tmplbl_288   0x002364    program     static                          
             __tmplbl_292   0x002362    program     static                          
             __tmplbl_293   0x002364    program     static                          
             __tmplbl_295   0x002364    program     static                          
               __tmplbl_3   0x00c0fc    program     static                          
               __tmplbl_3   0x00cfe0    program     static                          
             __tmplbl_308   0x0033ea    program     static                          
              __tmplbl_31   0x00a2b0    program     static                          
             __tmplbl_311   0x0033ea    program     static                          
             __tmplbl_312   0x0033ea    program     static                          
             __tmplbl_313   0x0033ea    program     static                          
             __tmplbl_314   0x0033ea    program     static                          
             __tmplbl_315   0x0033ea    program     static                          
             __tmplbl_316   0x0033ea    program     static                          
             __tmplbl_317   0x0033ea    program     static                          
             __tmplbl_319   0x0033ea    program     static                          
              __tmplbl_33   0x00a046    program     static                          
              __tmplbl_33   0x00b3e2    program     static                          
             __tmplbl_331   0x003e3c    program     static                          
             __tmplbl_332   0x003e4c    program     static                          
             __tmplbl_333   0x003c46    program     static                          
              __tmplbl_34   0x00a046    program     static                          
              __tmplbl_35   0x00a05e    program     static                          
              __tmplbl_39   0x00a4e8    program     static                          
               __tmplbl_4   0x00cfd8    program     static                          
               __tmplbl_4   0x00c0f4    program     static                          
              __tmplbl_45   0x00a046    program     static                          
              __tmplbl_46   0x00a54e    program     static                          
              __tmplbl_47   0x00a54e    program     static                          
              __tmplbl_48   0x00a54e    program     static                          
              __tmplbl_49   0x00a54e    program     static                          
               __tmplbl_5   0x00c31a    program     static                          
               __tmplbl_5   0x00d04e    program     static                          
              __tmplbl_50   0x00a550    program     static                          
              __tmplbl_51   0x00a51a    program     static                          
              __tmplbl_52   0x00a458    program     static                          
              __tmplbl_53   0x00a404    program     static                          
              __tmplbl_54   0x00a370    program     static                          
              __tmplbl_55   0x00a31a    program     static                          
              __tmplbl_56   0x00a2b8    program     static                          
              __tmplbl_58   0x00a54e    program     static                          
               __tmplbl_6   0x00d046    program     static                          
               __tmplbl_6   0x00c304    program     static                          
              __tmplbl_63   0x00a550    program     static                          
              __tmplbl_68   0x00a550    program     static                          
              __tmplbl_69   0x00a54e    program     static                          
               __tmplbl_7   0x00d03e    program     static                          
               __tmplbl_7   0x00c4ba    program     static                          
              __tmplbl_70   0x00a54e    program     static                          
              __tmplbl_72   0x00a550    program     static                          
              __tmplbl_74   0x00a550    program     static                          
              __tmplbl_75   0x00a2ac    program     static                          
              __tmplbl_78   0x00a550    program     static                          
              __tmplbl_79   0x00a550    program     static                          
               __tmplbl_8   0x00d036    program     static                          
              __tmplbl_80   0x00a550    program     static                          
              __tmplbl_82   0x00a550    program     static                          
              __tmplbl_87   0x0088f4    program     static                          
               __tmplbl_9   0x00d02e    program     static                          
              __tmplbl_91   0x007648    program     static                          
              __tmplbl_92   0x007644    program     static                          
              __tmplbl_94   0x007648    program     static                          
            __zero_memory   0x00e272    program     extern C:\MCC18\src\traditional\proc\p18F4620.asm
                _do_cinit   0x00e09a    program     extern C:\MCC18\src\traditional\startup\c018i.c
                   _entry   0x000000    program     extern C:\MCC18\src\traditional\startup\c018i.c
                 _startup   0x00e292    program     extern C:\MCC18\src\traditional\startup\c018i.c
            apsAddressMap   0x00d75f    program     extern F:\Microchip Solutions\ZigBee2006Res\microchip\ZigBeeStack\zNVM.c
 apsAddressMapValidityKey   0x00d75d    program     extern F:\Microchip Solutions\ZigBee2006Res\microchip\ZigBeeStack\zNVM.c
          apsBindingTable   0x00d47a    program     extern F:\Microchip Solutions\ZigBee2006Res\microchip\ZigBeeStack\zNVM.c
     apsGroupAddressTable   0x00d518    program     extern F:\Microchip Solutions\ZigBee2006Res\microchip\ZigBeeStack\zNVM.c
bindingTableSourceNodeMap   0x00d514    program     extern F:\Microchip Solutions\ZigBee2006Res\microchip\ZigBeeStack\zNVM.c
     bindingTableUsageMap   0x00d510    program     extern F:\Microchip Solutions\ZigBee2006Res\microchip\ZigBeeStack\zNVM.c
       bindingValidityKey   0x00d478    program     extern F:\Microchip Solutions\ZigBee2006Res\microchip\ZigBeeStack\zNVM.c
                compare_l   0x00e288    program     static C:\MCC18\src\traditional\proc\p18F4620.asm
                 config1H   0x300001    program     extern F:\Microchip Solutions\ZigBee2006Res\DemoPIC18Coordinator\Coordinator.c
                 config2H   0x300003    program     extern F:\Microchip Solutions\ZigBee2006Res\DemoPIC18Coordinator\Coordinator.c
                 config2L   0x300002    program     extern F:\Microchip Solutions\ZigBee2006Res\DemoPIC18Coordinator\Coordinator.c
                 config3H   0x300005    program     extern F:\Microchip Solutions\ZigBee2006Res\DemoPIC18Coordinator\Coordinator.c
                 config4L   0x300006    program     extern F:\Microchip Solutions\ZigBee2006Res\DemoPIC18Coordinator\Coordinator.c
                copy_loop   0x00e10c    program     static                          
            copy_one_byte   0x00e112    program     static                          
                     done   0x00e136    program     static                          
             done_copying   0x00e120    program     static                          
                   filler   0x00d438    program     extern F:\Microchip Solutions\ZigBee2006Res\microchip\ZigBeeStack\zNVM.c
                  filler2   0x00d7af    program     extern F:\Microchip Solutions\ZigBee2006Res\microchip\ZigBeeStack\zNVM.c
        handleActiveEPReq   0x00598e    program     extern F:\Microchip Solutions\ZigBee2006Res\microchip\ZigBeeStack\zZDO.C
       handleMatchDescReq   0x005a10    program     extern F:\Microchip Solutions\ZigBee2006Res\microchip\ZigBeeStack\zZDO.C
                  jAisNeg   0x00db9c    program     static C:\MCC18\src\traditional\math\compFP.asm
             jBothNotZero   0x00db3e    program     static C:\MCC18\src\traditional\math\compFP.asm
                      jEQ   0x00db5a    program     static C:\MCC18\src\traditional\math\compFP.asm
                     jEnd   0x00df48    program     static C:\MCC18\src\traditional\stdclib\mcpyp2r.asm
                     jEnd   0x00de5a    program     static C:\MCC18\src\traditional\stdclib\memcmp.asm
                     jEnd   0x00def2    program     static C:\MCC18\src\traditional\stdclib\memcpy.asm
                     jEnd   0x00deac    program     static C:\MCC18\src\traditional\stdclib\mcmpp2r.asm
                    jExch   0x00db66    program     static C:\MCC18\src\traditional\math\compFP.asm
                   jExpEQ   0x00dbac    program     static C:\MCC18\src\traditional\math\compFP.asm
                   jFinal   0x00db90    program     static C:\MCC18\src\traditional\math\compFP.asm
                jI2F32Beg   0x00dab8    program     static C:\MCC18\src\traditional\math\cast32FP.asm
                    jLoop   0x00de3e    program     static C:\MCC18\src\traditional\stdclib\memcmp.asm
                    jLoop   0x00de8e    program     static C:\MCC18\src\traditional\stdclib\mcmpp2r.asm
                    jLoop   0x00ded6    program     static C:\MCC18\src\traditional\stdclib\memcpy.asm
                    jLoop   0x00df2a    program     static C:\MCC18\src\traditional\stdclib\mcpyp2r.asm
                      jNE   0x00db5e    program     static C:\MCC18\src\traditional\math\compFP.asm
                  jNoExch   0x00db86    program     static C:\MCC18\src\traditional\math\compFP.asm
                  jPkLoop   0x00dc10    program     static C:\MCC18\src\traditional\math\packFP.asm
             jPkRoundDone   0x00dc5a    program     static C:\MCC18\src\traditional\math\packFP.asm
               jPkRoundIt   0x00dc42    program     static C:\MCC18\src\traditional\math\packFP.asm
             jPkShiftDone   0x00dc2c    program     static C:\MCC18\src\traditional\math\packFP.asm
           jReturnPosInf0   0x00dbe6    program     static C:\MCC18\src\traditional\math\packFP.asm
                  jRotate   0x00dbb8    program     static C:\MCC18\src\traditional\math\compFP.asm
                   jShift   0x00dba2    program     static C:\MCC18\src\traditional\math\compFP.asm
                 jSignsEQ   0x00db42    program     static C:\MCC18\src\traditional\math\compFP.asm
                  jUnpkA1   0x00dc84    program     static C:\MCC18\src\traditional\math\UnpackFP.asm
                  jUnpkA2   0x00dc9c    program     static C:\MCC18\src\traditional\math\UnpackFP.asm
                 jUnpkANZ   0x00dc92    program     static C:\MCC18\src\traditional\math\UnpackFP.asm
                  jUnpkB1   0x00dcb4    program     static C:\MCC18\src\traditional\math\UnpackFP.asm
                  jUnpkB2   0x00dccc    program     static C:\MCC18\src\traditional\math\UnpackFP.asm
                 jUnpkBNZ   0x00dcc2    program     static C:\MCC18\src\traditional\math\UnpackFP.asm
                 jUnpkNaN   0x00dca6    program     static C:\MCC18\src\traditional\math\UnpackFP.asm
               jZero1and2   0x00dbea    program     static C:\MCC18\src\traditional\math\packFP.asm
                     loop   0x00e2a2    program     static                          
                   loop_h   0x00e280    program     static C:\MCC18\src\traditional\proc\p18F4620.asm
                   loop_l   0x00e28a    program     static C:\MCC18\src\traditional\proc\p18F4620.asm
              macLongAddr   0x00d430    program     extern F:\Microchip Solutions\ZigBee2006Res\microchip\ZigBeeStack\zNVM.c
                     main   0x00aaec    program     extern F:\Microchip Solutions\ZigBee2006Res\DemoPIC18Coordinator\Coordinator.c
                   memcmp   0x00de1e    program     extern C:\MCC18\src\traditional\stdclib\memcmp.asm
            memcmppgm2ram   0x00de70    program     extern C:\MCC18\src\traditional\stdclib\mcmpp2r.asm
                   memcpy   0x00deae    program     extern C:\MCC18\src\traditional\stdclib\memcpy.asm
            memcpypgm2ram   0x00df04    program     extern C:\MCC18\src\traditional\stdclib\mcpyp2r.asm
            neighborTable   0x00d575    program     extern F:\Microchip Solutions\ZigBee2006Res\microchip\ZigBeeStack\zNVM.c
        neighborTableInfo   0x00d568    program     extern F:\Microchip Solutions\ZigBee2006Res\microchip\ZigBeeStack\zNVM.c
             routingTable   0x00d70d    program     extern F:\Microchip Solutions\ZigBee2006Res\microchip\ZigBeeStack\zNVM.c
                     test   0x00e0b4    program     static                          
                timeToAdd   0x00e236    program     extern F:\Microchip Solutions\ZigBee2006Res\microchip\ZigBeeStack\zMAC_MRF24J40.c
               zero_block   0x00e280    program     static C:\MCC18\src\traditional\proc\p18F4620.asm
                   ADCON0   0x000fc2       data     extern C:\MCC18\src\traditional\proc\p18F4620.asm
               ADCON0bits   0x000fc2       data     extern C:\MCC18\src\traditional\proc\p18F4620.asm
                   ADCON1   0x000fc1       data     extern C:\MCC18\src\traditional\proc\p18F4620.asm
               ADCON1bits   0x000fc1       data     extern C:\MCC18\src\traditional\proc\p18F4620.asm
                   ADCON2   0x000fc0       data     extern C:\MCC18\src\traditional\proc\p18F4620.asm
               ADCON2bits   0x000fc0       data     extern C:\MCC18\src\traditional\proc\p18F4620.asm
                    ADRES   0x000fc3       data     extern C:\MCC18\src\traditional\proc\p18F4620.asm
                   ADRESH   0x000fc4       data     extern C:\MCC18\src\traditional\proc\p18F4620.asm
                   ADRESL   0x000fc3       data     extern C:\MCC18\src\traditional\proc\p18F4620.asm
               APSCounter   0x000d83       data     extern F:\Microchip Solutions\ZigBee2006Res\microchip\ZigBeeStack\zAPS.c
                  BAUDCON   0x000fb8       data     extern C:\MCC18\src\traditional\proc\p18F4620.asm
              BAUDCONbits   0x000fb8       data     extern C:\MCC18\src\traditional\proc\p18F4620.asm
                  BAUDCTL   0x000fb8       data     extern C:\MCC18\src\traditional\proc\p18F4620.asm
              BAUDCTLbits   0x000fb8       data     extern C:\MCC18\src\traditional\proc\p18F4620.asm
                      BSR   0x000fe0       data     extern C:\MCC18\src\traditional\proc\p18F4620.asm
                  CCP1CON   0x000fbd       data     extern C:\MCC18\src\traditional\proc\p18F4620.asm
              CCP1CONbits   0x000fbd       data     extern C:\MCC18\src\traditional\proc\p18F4620.asm
                  CCP2CON   0x000fba       data     extern C:\MCC18\src\traditional\proc\p18F4620.asm
              CCP2CONbits   0x000fba       data     extern C:\MCC18\src\traditional\proc\p18F4620.asm
                    CCPR1   0x000fbe       data     extern C:\MCC18\src\traditional\proc\p18F4620.asm
                   CCPR1H   0x000fbf       data     extern C:\MCC18\src\traditional\proc\p18F4620.asm
                   CCPR1L   0x000fbe       data     extern C:\MCC18\src\traditional\proc\p18F4620.asm
                    CCPR2   0x000fbb       data     extern C:\MCC18\src\traditional\proc\p18F4620.asm
                   CCPR2H   0x000fbc       data     extern C:\MCC18\src\traditional\proc\p18F4620.asm
                   CCPR2L   0x000fbb       data     extern C:\MCC18\src\traditional\proc\p18F4620.asm
                    CMCON   0x000fb4       data     extern C:\MCC18\src\traditional\proc\p18F4620.asm
                CMCONbits   0x000fb4       data     extern C:\MCC18\src\traditional\proc\p18F4620.asm
                   CVRCON   0x000fb5       data     extern C:\MCC18\src\traditional\proc\p18F4620.asm
               CVRCONbits   0x000fb5       data     extern C:\MCC18\src\traditional\proc\p18F4620.asm
          CurrentRxPacket   0x000e80       data     extern F:\Microchip Solutions\ZigBee2006Res\microchip\ZigBeeStack\ZigbeeTasks.c
                     DDRA   0x000f92       data     extern C:\MCC18\src\traditional\proc\p18F4620.asm
                 DDRAbits   0x000f92       data     extern C:\MCC18\src\traditional\proc\p18F4620.asm
                     DDRB   0x000f93       data     extern C:\MCC18\src\traditional\proc\p18F4620.asm
                 DDRBbits   0x000f93       data     extern C:\MCC18\src\traditional\proc\p18F4620.asm
                     DDRC   0x000f94       data     extern C:\MCC18\src\traditional\proc\p18F4620.asm
                 DDRCbits   0x000f94       data     extern C:\MCC18\src\traditional\proc\p18F4620.asm
                     DDRD   0x000f95       data     extern C:\MCC18\src\traditional\proc\p18F4620.asm
                 DDRDbits   0x000f95       data     extern C:\MCC18\src\traditional\proc\p18F4620.asm
                     DDRE   0x000f96       data     extern C:\MCC18\src\traditional\proc\p18F4620.asm
                 DDREbits   0x000f96       data     extern C:\MCC18\src\traditional\proc\p18F4620.asm
                    DEBUG   0x000fd4       data     extern C:\MCC18\src\traditional\proc\p18F4620.asm
                  ECCP1AS   0x000fb6       data     extern C:\MCC18\src\traditional\proc\p18F4620.asm
              ECCP1ASbits   0x000fb6       data     extern C:\MCC18\src\traditional\proc\p18F4620.asm
                    EEADR   0x000fa9       data     extern C:\MCC18\src\traditional\proc\p18F4620.asm
                   EEADRH   0x000faa       data     extern C:\MCC18\src\traditional\proc\p18F4620.asm
                   EECON1   0x000fa6       data     extern C:\MCC18\src\traditional\proc\p18F4620.asm
               EECON1bits   0x000fa6       data     extern C:\MCC18\src\traditional\proc\p18F4620.asm
                   EECON2   0x000fa7       data     extern C:\MCC18\src\traditional\proc\p18F4620.asm
                   EEDATA   0x000fa8       data     extern C:\MCC18\src\traditional\proc\p18F4620.asm
                FIRST_RUN   0x000080       data     extern F:\Microchip Solutions\ZigBee2006Res\DemoPIC18Coordinator\Coordinator.c
                     FSR0   0x000fe9       data     extern C:\MCC18\src\traditional\proc\p18F4620.asm
                    FSR0H   0x000fea       data     extern C:\MCC18\src\traditional\proc\p18F4620.asm
                    FSR0L   0x000fe9       data     extern C:\MCC18\src\traditional\proc\p18F4620.asm
                     FSR1   0x000fe1       data     extern C:\MCC18\src\traditional\proc\p18F4620.asm
                    FSR1H   0x000fe2       data     extern C:\MCC18\src\traditional\proc\p18F4620.asm
                    FSR1L   0x000fe1       data     extern C:\MCC18\src\traditional\proc\p18F4620.asm
                     FSR2   0x000fd9       data     extern C:\MCC18\src\traditional\proc\p18F4620.asm
                    FSR2H   0x000fda       data     extern C:\MCC18\src\traditional\proc\p18F4620.asm
                    FSR2L   0x000fd9       data     extern C:\MCC18\src\traditional\proc\p18F4620.asm
                GROUP_ID4   0x000088       data     extern F:\Microchip Solutions\ZigBee2006Res\DemoPIC18Coordinator\Coordinator.c
                GROUP_ID5   0x000089       data     extern F:\Microchip Solutions\ZigBee2006Res\DemoPIC18Coordinator\Coordinator.c
                  HLVDCON   0x000fd2       data     extern C:\MCC18\src\traditional\proc\p18F4620.asm
              HLVDCONbits   0x000fd2       data     extern C:\MCC18\src\traditional\proc\p18F4620.asm
                    INDF0   0x000fef       data     extern C:\MCC18\src\traditional\proc\p18F4620.asm
                    INDF1   0x000fe7       data     extern C:\MCC18\src\traditional\proc\p18F4620.asm
                    INDF2   0x000fdf       data     extern C:\MCC18\src\traditional\proc\p18F4620.asm
                   INTCON   0x000ff2       data     extern C:\MCC18\src\traditional\proc\p18F4620.asm
                  INTCON2   0x000ff1       data     extern C:\MCC18\src\traditional\proc\p18F4620.asm
              INTCON2bits   0x000ff1       data     extern C:\MCC18\src\traditional\proc\p18F4620.asm
                  INTCON3   0x000ff0       data     extern C:\MCC18\src\traditional\proc\p18F4620.asm
              INTCON3bits   0x000ff0       data     extern C:\MCC18\src\traditional\proc\p18F4620.asm
               INTCONbits   0x000ff2       data     extern C:\MCC18\src\traditional\proc\p18F4620.asm
                     IPR1   0x000f9f       data     extern C:\MCC18\src\traditional\proc\p18F4620.asm
                 IPR1bits   0x000f9f       data     extern C:\MCC18\src\traditional\proc\p18F4620.asm
                     IPR2   0x000fa2       data     extern C:\MCC18\src\traditional\proc\p18F4620.asm
                 IPR2bits   0x000fa2       data     extern C:\MCC18\src\traditional\proc\p18F4620.asm
                IntStatus   0x000deb       data     extern F:\Microchip Solutions\ZigBee2006Res\microchip\ZigBeeStack\zPHY_MRF24J40.c
                     LATA   0x000f89       data     extern C:\MCC18\src\traditional\proc\p18F4620.asm
                 LATAbits   0x000f89       data     extern C:\MCC18\src\traditional\proc\p18F4620.asm
                     LATB   0x000f8a       data     extern C:\MCC18\src\traditional\proc\p18F4620.asm
                 LATBbits   0x000f8a       data     extern C:\MCC18\src\traditional\proc\p18F4620.asm
                     LATC   0x000f8b       data     extern C:\MCC18\src\traditional\proc\p18F4620.asm
                 LATCbits   0x000f8b       data     extern C:\MCC18\src\traditional\proc\p18F4620.asm
                     LATD   0x000f8c       data     extern C:\MCC18\src\traditional\proc\p18F4620.asm
                 LATDbits   0x000f8c       data     extern C:\MCC18\src\traditional\proc\p18F4620.asm
                     LATE   0x000f8d       data     extern C:\MCC18\src\traditional\proc\p18F4620.asm
                 LATEbits   0x000f8d       data     extern C:\MCC18\src\traditional\proc\p18F4620.asm
                   LVDCON   0x000fd2       data     extern C:\MCC18\src\traditional\proc\p18F4620.asm
               LVDCONbits   0x000fd2       data     extern C:\MCC18\src\traditional\proc\p18F4620.asm
           MSGPacketCount   0x000cea       data     extern F:\Microchip Solutions\ZigBee2006Res\DemoPIC18Coordinator\Coordinator.c
                      NIB   0x000b78       data     extern F:\Microchip Solutions\ZigBee2006Res\microchip\ZigBeeStack\zNWK.c
                   OSCCON   0x000fd3       data     extern C:\MCC18\src\traditional\proc\p18F4620.asm
               OSCCONbits   0x000fd3       data     extern C:\MCC18\src\traditional\proc\p18F4620.asm
                  OSCTUNE   0x000f9b       data     extern C:\MCC18\src\traditional\proc\p18F4620.asm
              OSCTUNEbits   0x000f9b       data     extern C:\MCC18\src\traditional\proc\p18F4620.asm
       PB_LEFT_press_time   0x000cee       data     extern F:\Microchip Solutions\ZigBee2006Res\DemoPIC18Coordinator\Coordinator.c
          PB_LEFT_pressed   0x00008a       data     extern F:\Microchip Solutions\ZigBee2006Res\DemoPIC18Coordinator\Coordinator.c
      PB_RIGHT_press_time   0x000cf2       data     extern F:\Microchip Solutions\ZigBee2006Res\DemoPIC18Coordinator\Coordinator.c
         PB_RIGHT_pressed   0x00008b       data     extern F:\Microchip Solutions\ZigBee2006Res\DemoPIC18Coordinator\Coordinator.c
                       PC   0x000ff9       data     extern C:\MCC18\src\traditional\proc\p18F4620.asm
                      PCL   0x000ff9       data     extern C:\MCC18\src\traditional\proc\p18F4620.asm
                   PCLATH   0x000ffa       data     extern C:\MCC18\src\traditional\proc\p18F4620.asm
                   PCLATU   0x000ffb       data     extern C:\MCC18\src\traditional\proc\p18F4620.asm
          PHYTasksPending   0x000df5       data     extern F:\Microchip Solutions\ZigBee2006Res\microchip\ZigBeeStack\zPHY_MRF24J40.c
                     PIE1   0x000f9d       data     extern C:\MCC18\src\traditional\proc\p18F4620.asm
                 PIE1bits   0x000f9d       data     extern C:\MCC18\src\traditional\proc\p18F4620.asm
                     PIE2   0x000fa0       data     extern C:\MCC18\src\traditional\proc\p18F4620.asm
                 PIE2bits   0x000fa0       data     extern C:\MCC18\src\traditional\proc\p18F4620.asm
                     PIR1   0x000f9e       data     extern C:\MCC18\src\traditional\proc\p18F4620.asm
                 PIR1bits   0x000f9e       data     extern C:\MCC18\src\traditional\proc\p18F4620.asm
                     PIR2   0x000fa1       data     extern C:\MCC18\src\traditional\proc\p18F4620.asm
                 PIR2bits   0x000fa1       data     extern C:\MCC18\src\traditional\proc\p18F4620.asm
                   PLUSW0   0x000feb       data     extern C:\MCC18\src\traditional\proc\p18F4620.asm
                   PLUSW1   0x000fe3       data     extern C:\MCC18\src\traditional\proc\p18F4620.asm
                   PLUSW2   0x000fdb       data     extern C:\MCC18\src\traditional\proc\p18F4620.asm
                    PORTA   0x000f80       data     extern C:\MCC18\src\traditional\proc\p18F4620.asm
                PORTAbits   0x000f80       data     extern C:\MCC18\src\traditional\proc\p18F4620.asm
                    PORTB   0x000f81       data     extern C:\MCC18\src\traditional\proc\p18F4620.asm
                PORTBbits   0x000f81       data     extern C:\MCC18\src\traditional\proc\p18F4620.asm
                    PORTC   0x000f82       data     extern C:\MCC18\src\traditional\proc\p18F4620.asm
                PORTCbits   0x000f82       data     extern C:\MCC18\src\traditional\proc\p18F4620.asm
                    PORTD   0x000f83       data     extern C:\MCC18\src\traditional\proc\p18F4620.asm
                PORTDbits   0x000f83       data     extern C:\MCC18\src\traditional\proc\p18F4620.asm
                    PORTE   0x000f84       data     extern C:\MCC18\src\traditional\proc\p18F4620.asm
                PORTEbits   0x000f84       data     extern C:\MCC18\src\traditional\proc\p18F4620.asm
                 POSTDEC0   0x000fed       data     extern C:\MCC18\src\traditional\proc\p18F4620.asm
                 POSTDEC1   0x000fe5       data     extern C:\MCC18\src\traditional\proc\p18F4620.asm
                 POSTDEC2   0x000fdd       data     extern C:\MCC18\src\traditional\proc\p18F4620.asm
                 POSTINC0   0x000fee       data     extern C:\MCC18\src\traditional\proc\p18F4620.asm
                 POSTINC1   0x000fe6       data     extern C:\MCC18\src\traditional\proc\p18F4620.asm
                 POSTINC2   0x000fde       data     extern C:\MCC18\src\traditional\proc\p18F4620.asm
                      PR2   0x000fcb       data     extern C:\MCC18\src\traditional\proc\p18F4620.asm
                  PREINC0   0x000fec       data     extern C:\MCC18\src\traditional\proc\p18F4620.asm
                  PREINC1   0x000fe4       data     extern C:\MCC18\src\traditional\proc\p18F4620.asm
                  PREINC2   0x000fdc       data     extern C:\MCC18\src\traditional\proc\p18F4620.asm
                     PROD   0x000ff3       data     extern C:\MCC18\src\traditional\proc\p18F4620.asm
                    PRODH   0x000ff4       data     extern C:\MCC18\src\traditional\proc\p18F4620.asm
                    PRODL   0x000ff3       data     extern C:\MCC18\src\traditional\proc\p18F4620.asm
                  PWM1CON   0x000fb7       data     extern C:\MCC18\src\traditional\proc\p18F4620.asm
              PWM1CONbits   0x000fb7       data     extern C:\MCC18\src\traditional\proc\p18F4620.asm
                     RCON   0x000fd0       data     extern C:\MCC18\src\traditional\proc\p18F4620.asm
                 RCONbits   0x000fd0       data     extern C:\MCC18\src\traditional\proc\p18F4620.asm
                    RCREG   0x000fae       data     extern C:\MCC18\src\traditional\proc\p18F4620.asm
                    RCSTA   0x000fab       data     extern C:\MCC18\src\traditional\proc\p18F4620.asm
                RCSTAbits   0x000fab       data     extern C:\MCC18\src\traditional\proc\p18F4620.asm
                    RX_On   0x000084       data     extern F:\Microchip Solutions\ZigBee2006Res\DemoPIC18Coordinator\Coordinator.c
                 RxBuffer   0x000a00       data     extern F:\Microchip Solutions\ZigBee2006Res\microchip\ZigBeeStack\ZigbeeTasks.c
                   RxData   0x000df6       data     extern F:\Microchip Solutions\ZigBee2006Res\microchip\ZigBeeStack\zPHY_MRF24J40.c
                   RxRead   0x000ea4       data     extern F:\Microchip Solutions\ZigBee2006Res\microchip\ZigBeeStack\ZigbeeTasks.c
                  RxWrite   0x000ea5       data     extern F:\Microchip Solutions\ZigBee2006Res\microchip\ZigBeeStack\ZigbeeTasks.c
                     SIGN   0x000000       data     extern C:\MCC18\src\traditional\math\cmath18.asm
                    SPBRG   0x000faf       data     extern C:\MCC18\src\traditional\proc\p18F4620.asm
                   SPBRGH   0x000fb0       data     extern C:\MCC18\src\traditional\proc\p18F4620.asm
                   SSPADD   0x000fc8       data     extern C:\MCC18\src\traditional\proc\p18F4620.asm
                   SSPBUF   0x000fc9       data     extern C:\MCC18\src\traditional\proc\p18F4620.asm
                  SSPCON1   0x000fc6       data     extern C:\MCC18\src\traditional\proc\p18F4620.asm
              SSPCON1bits   0x000fc6       data     extern C:\MCC18\src\traditional\proc\p18F4620.asm
                  SSPCON2   0x000fc5       data     extern C:\MCC18\src\traditional\proc\p18F4620.asm
              SSPCON2bits   0x000fc5       data     extern C:\MCC18\src\traditional\proc\p18F4620.asm
                  SSPSTAT   0x000fc7       data     extern C:\MCC18\src\traditional\proc\p18F4620.asm
              SSPSTATbits   0x000fc7       data     extern C:\MCC18\src\traditional\proc\p18F4620.asm
                   STATUS   0x000fd8       data     extern C:\MCC18\src\traditional\proc\p18F4620.asm
               STATUSbits   0x000fd8       data     extern C:\MCC18\src\traditional\proc\p18F4620.asm
                   STKPTR   0x000ffc       data     extern C:\MCC18\src\traditional\proc\p18F4620.asm
               STKPTRbits   0x000ffc       data     extern C:\MCC18\src\traditional\proc\p18F4620.asm
        SendingEDBRequest   0x000bfe       data     extern F:\Microchip Solutions\ZigBee2006Res\microchip\ZigBeeStack\zAPS.c
          SentBindRequest   0x000bff       data     extern F:\Microchip Solutions\ZigBee2006Res\microchip\ZigBeeStack\zAPS.c
                    T0CON   0x000fd5       data     extern C:\MCC18\src\traditional\proc\p18F4620.asm
                T0CONbits   0x000fd5       data     extern C:\MCC18\src\traditional\proc\p18F4620.asm
                    T1CON   0x000fcd       data     extern C:\MCC18\src\traditional\proc\p18F4620.asm
                T1CONbits   0x000fcd       data     extern C:\MCC18\src\traditional\proc\p18F4620.asm
                    T2CON   0x000fca       data     extern C:\MCC18\src\traditional\proc\p18F4620.asm
                T2CONbits   0x000fca       data     extern C:\MCC18\src\traditional\proc\p18F4620.asm
                    T3CON   0x000fb1       data     extern C:\MCC18\src\traditional\proc\p18F4620.asm
                T3CONbits   0x000fb1       data     extern C:\MCC18\src\traditional\proc\p18F4620.asm
                   TABLAT   0x000ff5       data     extern C:\MCC18\src\traditional\proc\p18F4620.asm
                   TBLPTR   0x000ff6       data     extern C:\MCC18\src\traditional\proc\p18F4620.asm
                  TBLPTRH   0x000ff7       data     extern C:\MCC18\src\traditional\proc\p18F4620.asm
                  TBLPTRL   0x000ff6       data     extern C:\MCC18\src\traditional\proc\p18F4620.asm
                  TBLPTRU   0x000ff8       data     extern C:\MCC18\src\traditional\proc\p18F4620.asm
                    TMR0H   0x000fd7       data     extern C:\MCC18\src\traditional\proc\p18F4620.asm
                    TMR0L   0x000fd6       data     extern C:\MCC18\src\traditional\proc\p18F4620.asm
                    TMR1H   0x000fcf       data     extern C:\MCC18\src\traditional\proc\p18F4620.asm
                    TMR1L   0x000fce       data     extern C:\MCC18\src\traditional\proc\p18F4620.asm
                     TMR2   0x000fcc       data     extern C:\MCC18\src\traditional\proc\p18F4620.asm
                    TMR3H   0x000fb3       data     extern C:\MCC18\src\traditional\proc\p18F4620.asm
                    TMR3L   0x000fb2       data     extern C:\MCC18\src\traditional\proc\p18F4620.asm
                      TOS   0x000ffd       data     extern C:\MCC18\src\traditional\proc\p18F4620.asm
                     TOSH   0x000ffe       data     extern C:\MCC18\src\traditional\proc\p18F4620.asm
                     TOSL   0x000ffd       data     extern C:\MCC18\src\traditional\proc\p18F4620.asm
                     TOSU   0x000fff       data     extern C:\MCC18\src\traditional\proc\p18F4620.asm
                    TRISA   0x000f92       data     extern C:\MCC18\src\traditional\proc\p18F4620.asm
                TRISAbits   0x000f92       data     extern C:\MCC18\src\traditional\proc\p18F4620.asm
                    TRISB   0x000f93       data     extern C:\MCC18\src\traditional\proc\p18F4620.asm
                TRISBbits   0x000f93       data     extern C:\MCC18\src\traditional\proc\p18F4620.asm
                    TRISC   0x000f94       data     extern C:\MCC18\src\traditional\proc\p18F4620.asm
                TRISCbits   0x000f94       data     extern C:\MCC18\src\traditional\proc\p18F4620.asm
                    TRISD   0x000f95       data     extern C:\MCC18\src\traditional\proc\p18F4620.asm
                TRISDbits   0x000f95       data     extern C:\MCC18\src\traditional\proc\p18F4620.asm
                    TRISE   0x000f96       data     extern C:\MCC18\src\traditional\proc\p18F4620.asm
                TRISEbits   0x000f96       data     extern C:\MCC18\src\traditional\proc\p18F4620.asm
          TRXCurrentState   0x000df7       data     extern F:\Microchip Solutions\ZigBee2006Res\microchip\ZigBeeStack\zPHY_MRF24J40.c
                    TXREG   0x000fad       data     extern C:\MCC18\src\traditional\proc\p18F4620.asm
                    TXSTA   0x000fac       data     extern C:\MCC18\src\traditional\proc\p18F4620.asm
                TXSTAbits   0x000fac       data     extern C:\MCC18\src\traditional\proc\p18F4620.asm
                 TxBuffer   0x000e00       data     extern F:\Microchip Solutions\ZigBee2006Res\microchip\ZigBeeStack\ZigbeeTasks.c
                   TxData   0x000ea6       data     extern F:\Microchip Solutions\ZigBee2006Res\microchip\ZigBeeStack\ZigbeeTasks.c
                 TxHeader   0x000ea7       data     extern F:\Microchip Solutions\ZigBee2006Res\microchip\ZigBeeStack\ZigbeeTasks.c
                   TxStat   0x000df8       data     extern F:\Microchip Solutions\ZigBee2006Res\microchip\ZigBeeStack\zPHY_MRF24J40.c
                        W   0x000fe8       data     extern C:\MCC18\src\traditional\proc\p18F4620.asm
                   WDTCON   0x000fd1       data     extern C:\MCC18\src\traditional\proc\p18F4620.asm
               WDTCONbits   0x000fd1       data     extern C:\MCC18\src\traditional\proc\p18F4620.asm
                     WREG   0x000fe8       data     extern C:\MCC18\src\traditional\proc\p18F4620.asm
               ZDOCounter   0x000eb2       data     extern F:\Microchip Solutions\ZigBee2006Res\microchip\ZigBeeStack\zZDO.C
             ZigBeeStatus   0x000ea8       data     extern F:\Microchip Solutions\ZigBee2006Res\microchip\ZigBeeStack\ZigbeeTasks.c
                 __AARGB0   0x000009       data     extern C:\MCC18\src\traditional\math\aarg.asm
                 __AARGB1   0x000008       data     extern C:\MCC18\src\traditional\math\aarg.asm
                 __AARGB2   0x000007       data     extern C:\MCC18\src\traditional\math\aarg.asm
                 __AARGB3   0x000006       data     extern C:\MCC18\src\traditional\math\aarg.asm
                 __AARGB4   0x000005       data     extern C:\MCC18\src\traditional\math\aarg.asm
                 __AARGB5   0x000004       data     extern C:\MCC18\src\traditional\math\aarg.asm
                 __AARGB6   0x000003       data     extern C:\MCC18\src\traditional\math\aarg.asm
                 __AARGB7   0x000002       data     extern C:\MCC18\src\traditional\math\aarg.asm
                   __AEXP   0x00000a       data     extern C:\MCC18\src\traditional\math\aarg.asm
                 __BARGB0   0x00000e       data     extern C:\MCC18\src\traditional\math\barg.asm
                 __BARGB1   0x00000d       data     extern C:\MCC18\src\traditional\math\barg.asm
                 __BARGB2   0x00000c       data     extern C:\MCC18\src\traditional\math\barg.asm
                 __BARGB3   0x00000b       data     extern C:\MCC18\src\traditional\math\barg.asm
                   __BEXP   0x00000f       data     extern C:\MCC18\src\traditional\math\barg.asm
                __FPFLAGS   0x000001       data     extern C:\MCC18\src\traditional\math\cmath18.asm
            __FPFLAGSbits   0x000001       data     extern C:\MCC18\src\traditional\math\cmath18.asm
                  __REMB0   0x000005       data     extern C:\MCC18\src\traditional\math\aarg.asm
                  __REMB1   0x000004       data     extern C:\MCC18\src\traditional\math\aarg.asm
                  __REMB2   0x000003       data     extern C:\MCC18\src\traditional\math\aarg.asm
                  __REMB3   0x000002       data     extern C:\MCC18\src\traditional\math\aarg.asm
                   __TEMP   0x000013       data     extern C:\MCC18\src\traditional\math\temparg.asm
                 __TEMPB0   0x000013       data     extern C:\MCC18\src\traditional\math\temparg.asm
                 __TEMPB1   0x000012       data     extern C:\MCC18\src\traditional\math\temparg.asm
                 __TEMPB2   0x000011       data     extern C:\MCC18\src\traditional\math\temparg.asm
                 __TEMPB3   0x000010       data     extern C:\MCC18\src\traditional\math\temparg.asm
                  __tmp_0   0x000014       data     static F:\Microchip Solutions\ZigBee2006Res\microchip\Common\sralloc.c
                  __tmp_0   0x000014       data     static F:\Microchip Solutions\ZigBee2006Res\microchip\ZigBeeStack\zAPS.c
                  __tmp_0   0x000014       data     static F:\Microchip Solutions\ZigBee2006Res\DemoPIC18Coordinator\Coordinator.c
                  __tmp_0   0x000014       data     static F:\Microchip Solutions\ZigBee2006Res\microchip\ZigBeeStack\zNWK.c
                  __tmp_0   0x000014       data     static F:\Microchip Solutions\ZigBee2006Res\microchip\ZigBeeStack\zMAC_MRF24J40.c
                  __tmp_0   0x000014       data     static F:\Microchip Solutions\ZigBee2006Res\microchip\ZigBeeStack\zPHY_MRF24J40.c
                  __tmp_0   0x000014       data     static F:\Microchip Solutions\ZigBee2006Res\microchip\ZigBeeStack\zNVM.c
                  __tmp_0   0x000014       data     static F:\Microchip Solutions\ZigBee2006Res\microchip\ZigBeeStack\zZDO.C
                  __tmp_1   0x000024       data     static F:\Microchip Solutions\ZigBee2006Res\microchip\ZigBeeStack\zPHY_MRF24J40.c
            _uDynamicHeap   0x000100       data     extern F:\Microchip Solutions\ZigBee2006Res\microchip\Common\sralloc.c
                   apsACK   0x000081       data     extern F:\Microchip Solutions\ZigBee2006Res\DemoPIC18Coordinator\Coordinator.c
           apsChannelMask   0x000d84       data     extern F:\Microchip Solutions\ZigBee2006Res\microchip\ZigBeeStack\zAPS.c
   apsConfirmationHandles   0x000db5       data     extern F:\Microchip Solutions\ZigBee2006Res\microchip\ZigBeeStack\zAPS.c
        apsDuplicateTable   0x000c00       data     extern F:\Microchip Solutions\ZigBee2006Res\microchip\ZigBeeStack\zAPS.c
                apsStatus   0x000d88       data     extern F:\Microchip Solutions\ZigBee2006Res\microchip\ZigBeeStack\zAPS.c
     associationReqParams   0x000d00       data     extern F:\Microchip Solutions\ZigBee2006Res\microchip\ZigBeeStack\zMAC_MRF24J40.c
                curr_byte   0x000eec       data     static C:\MCC18\src\traditional\startup\c018i.c
               curr_entry   0x000eee       data     static C:\MCC18\src\traditional\startup\c018i.c
        currentAPSAddress   0x000cd9       data     extern F:\Microchip Solutions\ZigBee2006Res\microchip\ZigBeeStack\zNVM.c
       currentAPSAddress1   0x000de1       data     extern F:\Microchip Solutions\ZigBee2006Res\microchip\ZigBeeStack\zAPS.c
     currentBindingRecord   0x000ca8       data     extern F:\Microchip Solutions\ZigBee2006Res\microchip\ZigBeeStack\zNVM.c
currentGroupAddressRecord   0x000dd7       data     extern F:\Microchip Solutions\ZigBee2006Res\microchip\ZigBeeStack\zAPS.c
    currentNeighborRecord   0x000cb2       data     extern F:\Microchip Solutions\ZigBee2006Res\microchip\ZigBeeStack\zNVM.c
 currentNeighborTableInfo   0x000cc3       data     extern F:\Microchip Solutions\ZigBee2006Res\microchip\ZigBeeStack\zNVM.c
            currentPacket   0x000d03       data     extern F:\Microchip Solutions\ZigBee2006Res\microchip\ZigBeeStack\zMAC_MRF24J40.c
         currentPrimitive   0x000ce3       data     extern F:\Microchip Solutions\ZigBee2006Res\DemoPIC18Coordinator\Coordinator.c
      currentRoutingEntry   0x000cd2       data     extern F:\Microchip Solutions\ZigBee2006Res\microchip\ZigBeeStack\zNVM.c
                    dAddr   0x000eb3       data     extern F:\Microchip Solutions\ZigBee2006Res\microchip\ZigBeeStack\zZDO.C
                 data_ptr   0x000ef0       data     static C:\MCC18\src\traditional\startup\c018i.c
       destinationAddress   0x000ce4       data     extern F:\Microchip Solutions\ZigBee2006Res\DemoPIC18Coordinator\Coordinator.c
        discoveredAddress   0x000ce7       data     extern F:\Microchip Solutions\ZigBee2006Res\DemoPIC18Coordinator\Coordinator.c
       doingRejoinCommand   0x000bfc       data     extern F:\Microchip Solutions\ZigBee2006Res\microchip\ZigBeeStack\zNWK.c
              gettingAcks   0x000085       data     extern F:\Microchip Solutions\ZigBee2006Res\DemoPIC18Coordinator\Coordinator.c
          group_state_ID4   0x000087       data     extern F:\Microchip Solutions\ZigBee2006Res\DemoPIC18Coordinator\Coordinator.c
          group_state_ID5   0x000086       data     extern F:\Microchip Solutions\ZigBee2006Res\DemoPIC18Coordinator\Coordinator.c
                        i   0x000cec       data     extern F:\Microchip Solutions\ZigBee2006Res\DemoPIC18Coordinator\Coordinator.c
       macIndirectBuffers   0x000d13       data     extern F:\Microchip Solutions\ZigBee2006Res\microchip\ZigBeeStack\zMAC_MRF24J40.c
                   macPIB   0x000d43       data     extern F:\Microchip Solutions\ZigBee2006Res\microchip\ZigBeeStack\zMAC_MRF24J40.c
                macStatus   0x000d5d       data     extern F:\Microchip Solutions\ZigBee2006Res\microchip\ZigBeeStack\zMAC_MRF24J40.c
          macTasksPending   0x000d5e       data     extern F:\Microchip Solutions\ZigBee2006Res\microchip\ZigBeeStack\zMAC_MRF24J40.c
            matchCluster1   0x000ee5       data     extern F:\Microchip Solutions\ZigBee2006Res\microchip\ZigBeeStack\zZDO.C
            matchCluster2   0x000ee7       data     extern F:\Microchip Solutions\ZigBee2006Res\microchip\ZigBeeStack\zZDO.C
                     menu   0x000082       data     extern F:\Microchip Solutions\ZigBee2006Res\DemoPIC18Coordinator\Coordinator.c
            myStatusFlags   0x000ce6       data     static F:\Microchip Solutions\ZigBee2006Res\DemoPIC18Coordinator\Coordinator.c
   nwkConfirmationHandles   0x000b18       data     extern F:\Microchip Solutions\ZigBee2006Res\microchip\ZigBeeStack\zNWK.c
        nwkIEEEDstAddress   0x000bea       data     static F:\Microchip Solutions\ZigBee2006Res\microchip\ZigBeeStack\zNWK.c
        nwkIEEESrcAddress   0x000bf2       data     static F:\Microchip Solutions\ZigBee2006Res\microchip\ZigBeeStack\zNWK.c
                nwkStatus   0x000b79       data     extern F:\Microchip Solutions\ZigBee2006Res\microchip\ZigBeeStack\zNWK.c
             oldShortAddr   0x000bfa       data     static F:\Microchip Solutions\ZigBee2006Res\microchip\ZigBeeStack\zNWK.c
      pBindInProgressInfo   0x000eaa       data     extern F:\Microchip Solutions\ZigBee2006Res\microchip\ZigBeeStack\zZDO.C
    pCurrentBindingRecord   0x000cae       data     extern F:\Microchip Solutions\ZigBee2006Res\microchip\ZigBeeStack\zNVM.c
pCurrentGroupAddressRecord   0x000cb0       data     extern F:\Microchip Solutions\ZigBee2006Res\microchip\ZigBeeStack\zNVM.c
   pCurrentNeighborRecord   0x000cd0       data     extern F:\Microchip Solutions\ZigBee2006Res\microchip\ZigBeeStack\zNVM.c
     pCurrentRoutingEntry   0x000cd7       data     extern F:\Microchip Solutions\ZigBee2006Res\microchip\ZigBeeStack\zNVM.c
     pFirstEndBindRequest   0x000eac       data     static F:\Microchip Solutions\ZigBee2006Res\microchip\ZigBeeStack\zZDO.C
    pSecondEndBindRequest   0x000eae       data     static F:\Microchip Solutions\ZigBee2006Res\microchip\ZigBeeStack\zZDO.C
                   params   0x000e82       data     extern F:\Microchip Solutions\ZigBee2006Res\microchip\ZigBeeStack\ZigbeeTasks.c
   pendingAckFrameControl   0x000dec       data     extern F:\Microchip Solutions\ZigBee2006Res\microchip\ZigBeeStack\zPHY_MRF24J40.c
                 phyError   0x000dee       data     extern F:\Microchip Solutions\ZigBee2006Res\microchip\ZigBeeStack\zPHY_MRF24J40.c
                   phyPIB   0x000def       data     extern F:\Microchip Solutions\ZigBee2006Res\microchip\ZigBeeStack\zPHY_MRF24J40.c
                     prom   0x000ee9       data     static C:\MCC18\src\traditional\startup\c018i.c
         rejoinIndication   0x000b00       data     extern F:\Microchip Solutions\ZigBee2006Res\microchip\ZigBeeStack\zNWK.c
           routeDiscovery   0x000ce9       data     extern F:\Microchip Solutions\ZigBee2006Res\DemoPIC18Coordinator\Coordinator.c
routeDiscoveryTablePointer   0x000be2       data     extern F:\Microchip Solutions\ZigBee2006Res\microchip\ZigBeeStack\zNWK.c
             routeDstInfo   0x000bd3       data     extern F:\Microchip Solutions\ZigBee2006Res\microchip\ZigBeeStack\zNWK.c
                savedBits   0x000df9       data     extern F:\Microchip Solutions\ZigBee2006Res\microchip\ZigBeeStack\zPHY_MRF24J40.c
               scanParams   0x000d5f       data     extern F:\Microchip Solutions\ZigBee2006Res\microchip\ZigBeeStack\zMAC_MRF24J40.c
           sequenceNumber   0x000eb0       data     extern F:\Microchip Solutions\ZigBee2006Res\microchip\ZigBeeStack\zZDO.C
         simpleDescriptor   0x000eb5       data     extern F:\Microchip Solutions\ZigBee2006Res\microchip\ZigBeeStack\zZDO.C
                    temp2   0x000ced       data     extern F:\Microchip Solutions\ZigBee2006Res\DemoPIC18Coordinator\Coordinator.c
          tempLongAddress   0x000d7b       data     extern F:\Microchip Solutions\ZigBee2006Res\microchip\ZigBeeStack\zMAC_MRF24J40.c
          tick2Difference   0x000cfa       data     extern F:\Microchip Solutions\ZigBee2006Res\DemoPIC18Coordinator\Coordinator.c
           tickDifference   0x000cf6       data     extern F:\Microchip Solutions\ZigBee2006Res\DemoPIC18Coordinator\Coordinator.c
          timerExtension1   0x000cfe       data     extern F:\Microchip Solutions\ZigBee2006Res\microchip\ZigBeeStack\SymbolTime.c
          timerExtension2   0x000cff       data     extern F:\Microchip Solutions\ZigBee2006Res\microchip\ZigBeeStack\SymbolTime.c
            updatepayload   0x000bfd       data     extern F:\Microchip Solutions\ZigBee2006Res\microchip\ZigBeeStack\zNWK.c
                zdoStatus   0x000eb1       data     extern F:\Microchip Solutions\ZigBee2006Res\microchip\ZigBeeStack\zZDO.C



                              Symbols - Sorted by Address
                     Name    Address   Location    Storage File                     
                ---------  ---------  ---------  --------- ---------                
                   _entry   0x000000    program     extern C:\MCC18\src\traditional\startup\c018i.c
       ___return_lbl00000   0x000004    program     static                          
               HighVector   0x000008    program     extern F:\Microchip Solutions\ZigBee2006Res\microchip\ZigBeeStack\zPHY_MRF24J40.c
       ___return_lbl00093   0x00000c    program     static                          
                LowVector   0x000018    program     extern F:\Microchip Solutions\ZigBee2006Res\microchip\ZigBeeStack\zPHY_MRF24J40.c
       ___return_lbl00094   0x00001c    program     static                          
    NWKHasBackgroundTasks   0x000058    program     extern F:\Microchip Solutions\ZigBee2006Res\microchip\ZigBeeStack\zNWK.c
                  NWKInit   0x000068    program     extern F:\Microchip Solutions\ZigBee2006Res\microchip\ZigBeeStack\zNWK.c
                 NWKTasks   0x0000ea    program     extern F:\Microchip Solutions\ZigBee2006Res\microchip\ZigBeeStack\zNWK.c
             __tmplbl_256   0x001860    program     static                          
             __tmplbl_255   0x001864    program     static                          
             __tmplbl_254   0x001864    program     static                          
             __tmplbl_223   0x00186c    program     static                          
             __tmplbl_222   0x0018d4    program     static                          
             __tmplbl_260   0x0019e2    program     static                          
             __tmplbl_259   0x0019e2    program     static                          
             __tmplbl_258   0x0019e2    program     static                          
             __tmplbl_257   0x0019e2    program     static                          
             __tmplbl_251   0x0019e2    program     static                          
             __tmplbl_250   0x0019e2    program     static                          
             __tmplbl_249   0x0019e2    program     static                          
             __tmplbl_248   0x0019e2    program     static                          
             __tmplbl_229   0x0019e2    program     static                          
             __tmplbl_233   0x0019e2    program     static                          
             __tmplbl_237   0x0019e2    program     static                          
             __tmplbl_242   0x0019e2    program     static                          
             __tmplbl_247   0x0019e2    program     static                          
             __tmplbl_221   0x0019e8    program     static                          
             __tmplbl_220   0x001a0c    program     static                          
             __tmplbl_219   0x001ab8    program     static                          
             __tmplbl_218   0x001d78    program     static                          
             __tmplbl_204   0x001d9e    program     static                          
             __tmplbl_217   0x001da2    program     static                          
             __tmplbl_216   0x001df6    program     static                          
             __tmplbl_215   0x001e0c    program     static                          
             __tmplbl_273   0x001f48    program     static                          
             __tmplbl_200   0x001fb0    program     static                          
             __tmplbl_189   0x001fb8    program     static                          
             __tmplbl_214   0x00200a    program     static                          
             __tmplbl_213   0x002018    program     static                          
             __tmplbl_212   0x00204c    program     static                          
             __tmplbl_211   0x002096    program     static                          
             __tmplbl_210   0x0020a0    program     static                          
             __tmplbl_209   0x0020ae    program     static                          
             __tmplbl_208   0x0020dc    program     static                          
             __tmplbl_188   0x002162    program     static                          
             __tmplbl_226   0x002162    program     static                          
             __tmplbl_180   0x002162    program     static                          
             __tmplbl_240   0x002162    program     static                          
             __tmplbl_243   0x002162    program     static                          
             __tmplbl_203   0x002162    program     static                          
             __tmplbl_252   0x002162    program     static                          
             __tmplbl_279   0x002162    program     static                          
             __tmplbl_276   0x002162    program     static                          
             __tmplbl_269   0x002162    program     static                          
             __tmplbl_268   0x002162    program     static                          
             __tmplbl_270   0x002200    program     static                          
             __tmplbl_261   0x002200    program     static                          
             __tmplbl_207   0x002204    program     static                          
             __tmplbl_206   0x00220e    program     static                          
             __tmplbl_205   0x002236    program     static                          
             __tmplbl_202   0x002292    program     static                          
             __tmplbl_281   0x002298    program     static                          
             __tmplbl_196   0x002352    program     static                          
             __tmplbl_197   0x002352    program     static                          
             __tmplbl_280   0x00235a    program     static                          
             __tmplbl_190   0x00235e    program     static                          
             __tmplbl_225   0x00235e    program     static                          
             __tmplbl_191   0x00235e    program     static                          
             __tmplbl_272   0x00235e    program     static                          
             __tmplbl_201   0x00235e    program     static                          
             __tmplbl_271   0x00235e    program     static                          
             __tmplbl_287   0x00235e    program     static                          
             __tmplbl_253   0x00235e    program     static                          
             __tmplbl_292   0x002362    program     static                          
             __tmplbl_224   0x002362    program     static                          
             __tmplbl_288   0x002364    program     static                          
             __tmplbl_282   0x002364    program     static                          
             __tmplbl_262   0x002364    program     static                          
             __tmplbl_227   0x002364    program     static                          
             __tmplbl_295   0x002364    program     static                          
             __tmplbl_293   0x002364    program     static                          
             AddChildNode   0x002378    program     extern F:\Microchip Solutions\ZigBee2006Res\microchip\ZigBeeStack\zNWK.c
          CanAddChildNode   0x002458    program     extern F:\Microchip Solutions\ZigBee2006Res\microchip\ZigBeeStack\zNWK.c
       CanAddNeighborNode   0x0024ca    program     extern F:\Microchip Solutions\ZigBee2006Res\microchip\ZigBeeStack\zNWK.c
             CreateNewBTR   0x0024fa    program     extern F:\Microchip Solutions\ZigBee2006Res\microchip\ZigBeeStack\zNWK.c
         CreateRouteReply   0x0025b2    program     extern F:\Microchip Solutions\ZigBee2006Res\microchip\ZigBeeStack\zNWK.c
CreateRoutingTableEntries   0x002656    program     extern F:\Microchip Solutions\ZigBee2006Res\microchip\ZigBeeStack\zNWK.c
              GetCSkipVal   0x002754    program     extern F:\Microchip Solutions\ZigBee2006Res\microchip\ZigBeeStack\zNWK.c
               GetNextHop   0x0027b4    program     extern F:\Microchip Solutions\ZigBee2006Res\microchip\ZigBeeStack\zNWK.c
        GetRoutingAddress   0x002828    program     extern F:\Microchip Solutions\ZigBee2006Res\microchip\ZigBeeStack\zNWK.c
      HaveRoutingCapacity   0x0028e4    program     extern F:\Microchip Solutions\ZigBee2006Res\microchip\ZigBeeStack\zNWK.c
   InitiateRouteDiscovery   0x0029b2    program     extern F:\Microchip Solutions\ZigBee2006Res\microchip\ZigBeeStack\zNWK.c
             IsDescendant   0x002dc6    program     extern F:\Microchip Solutions\ZigBee2006Res\microchip\ZigBeeStack\zNWK.c
MarkNeighborAsPasssiveACKed   0x002e50    program     extern F:\Microchip Solutions\ZigBee2006Res\microchip\ZigBeeStack\zNWK.c
         NLME_GET_nwkBCSN   0x002e9a    program     extern F:\Microchip Solutions\ZigBee2006Res\microchip\ZigBeeStack\zNWK.c
    NWKClearNeighborTable   0x002ea8    program     extern F:\Microchip Solutions\ZigBee2006Res\microchip\ZigBeeStack\zNWK.c
     NWKClearRoutingTable   0x002ef0    program     extern F:\Microchip Solutions\ZigBee2006Res\microchip\ZigBeeStack\zNWK.c
                   NWKGet   0x002f24    program     extern F:\Microchip Solutions\ZigBee2006Res\microchip\ZigBeeStack\zNWK.c
  NWKLookupNodeByLongAddr   0x002f40    program     extern F:\Microchip Solutions\ZigBee2006Res\microchip\ZigBeeStack\zNWK.c
NWKLookupNodeByShortAddrVal   0x002f7a    program     extern F:\Microchip Solutions\ZigBee2006Res\microchip\ZigBeeStack\zNWK.c
NWKLookupNodeByShortAddrValAndPANID   0x002fb2    program     extern F:\Microchip Solutions\ZigBee2006Res\microchip\ZigBeeStack\zNWK.c
   NWKThisIsMyLongAddress   0x003002    program     extern F:\Microchip Solutions\ZigBee2006Res\microchip\ZigBeeStack\zNWK.c
     NWKTidyNeighborTable   0x003052    program     extern F:\Microchip Solutions\ZigBee2006Res\microchip\ZigBeeStack\zNWK.c
Prepare_MCPS_DATA_request   0x0030a6    program     extern F:\Microchip Solutions\ZigBee2006Res\microchip\ZigBeeStack\zNWK.c
 RemoveNeighborTableEntry   0x00311c    program     extern F:\Microchip Solutions\ZigBee2006Res\microchip\ZigBeeStack\zNWK.c
      RequestedPANIDFound   0x003156    program     extern F:\Microchip Solutions\ZigBee2006Res\microchip\ZigBeeStack\zNWK.c
           RouteAlongTree   0x00319a    program     extern F:\Microchip Solutions\ZigBee2006Res\microchip\ZigBeeStack\zNWK.c
         SetBeaconPayload   0x00321a    program     extern F:\Microchip Solutions\ZigBee2006Res\microchip\ZigBeeStack\zNWK.c
VariableAndTableInitialization   0x003270    program     extern F:\Microchip Solutions\ZigBee2006Res\microchip\ZigBeeStack\zNWK.c
                   __pa_0   0x003332    program     static F:\Microchip Solutions\ZigBee2006Res\microchip\ZigBeeStack\zNWK.c
                   __pa_1   0x003338    program     static F:\Microchip Solutions\ZigBee2006Res\microchip\ZigBeeStack\zNWK.c
                   __pa_2   0x00333e    program     static F:\Microchip Solutions\ZigBee2006Res\microchip\ZigBeeStack\zNWK.c
                   __pa_3   0x003346    program     static F:\Microchip Solutions\ZigBee2006Res\microchip\ZigBeeStack\zNWK.c
                   __pa_4   0x00334c    program     static F:\Microchip Solutions\ZigBee2006Res\microchip\ZigBeeStack\zNWK.c
                   __pa_5   0x003354    program     static F:\Microchip Solutions\ZigBee2006Res\microchip\ZigBeeStack\zNWK.c
                   __pa_6   0x003364    program     static F:\Microchip Solutions\ZigBee2006Res\microchip\ZigBeeStack\zNWK.c
                   __pa_7   0x00336c    program     static F:\Microchip Solutions\ZigBee2006Res\microchip\ZigBeeStack\zNWK.c
                   __pa_8   0x003390    program     static F:\Microchip Solutions\ZigBee2006Res\microchip\ZigBeeStack\zNWK.c
                   __pa_9   0x0033b4    program     static F:\Microchip Solutions\ZigBee2006Res\microchip\ZigBeeStack\zNWK.c
                  __pa_10   0x0033c0    program     static F:\Microchip Solutions\ZigBee2006Res\microchip\ZigBeeStack\zNWK.c
                  __pa_11   0x0033cc    program     static F:\Microchip Solutions\ZigBee2006Res\microchip\ZigBeeStack\zNWK.c
                  __pa_12   0x0033e2    program     static F:\Microchip Solutions\ZigBee2006Res\microchip\ZigBeeStack\zNWK.c
                  __pa_13   0x0033ea    program     static F:\Microchip Solutions\ZigBee2006Res\microchip\ZigBeeStack\zNWK.c
             __tmplbl_177   0x0033ea    program     static                          
             __tmplbl_319   0x0033ea    program     static                          
             __tmplbl_317   0x0033ea    program     static                          
             __tmplbl_316   0x0033ea    program     static                          
             __tmplbl_315   0x0033ea    program     static                          
             __tmplbl_314   0x0033ea    program     static                          
             __tmplbl_313   0x0033ea    program     static                          
             __tmplbl_312   0x0033ea    program     static                          
             __tmplbl_308   0x0033ea    program     static                          
             __tmplbl_311   0x0033ea    program     static                          
                  __pa_14   0x0033f6    program     static F:\Microchip Solutions\ZigBee2006Res\microchip\ZigBeeStack\zNWK.c
                  __pa_15   0x0033fe    program     static F:\Microchip Solutions\ZigBee2006Res\microchip\ZigBeeStack\zNWK.c
                  __pa_16   0x003406    program     static F:\Microchip Solutions\ZigBee2006Res\microchip\ZigBeeStack\zNWK.c
                  __pa_17   0x003434    program     static F:\Microchip Solutions\ZigBee2006Res\microchip\ZigBeeStack\zNWK.c
                  __pa_18   0x00343a    program     static F:\Microchip Solutions\ZigBee2006Res\microchip\ZigBeeStack\zNWK.c
                  __pa_19   0x00344a    program     static F:\Microchip Solutions\ZigBee2006Res\microchip\ZigBeeStack\zNWK.c
                  __pa_20   0x003460    program     static F:\Microchip Solutions\ZigBee2006Res\microchip\ZigBeeStack\zNWK.c
                  __pa_21   0x003470    program     static F:\Microchip Solutions\ZigBee2006Res\microchip\ZigBeeStack\zNWK.c
                  __pa_22   0x003476    program     static F:\Microchip Solutions\ZigBee2006Res\microchip\ZigBeeStack\zNWK.c
                  __pa_23   0x003488    program     static F:\Microchip Solutions\ZigBee2006Res\microchip\ZigBeeStack\zNWK.c
                  __pa_24   0x003492    program     static F:\Microchip Solutions\ZigBee2006Res\microchip\ZigBeeStack\zNWK.c
                  __pa_25   0x00349e    program     static F:\Microchip Solutions\ZigBee2006Res\microchip\ZigBeeStack\zNWK.c
                  __pa_26   0x0034ae    program     static F:\Microchip Solutions\ZigBee2006Res\microchip\ZigBeeStack\zNWK.c
                  __pa_27   0x0034c0    program     static F:\Microchip Solutions\ZigBee2006Res\microchip\ZigBeeStack\zNWK.c
                  __pa_28   0x0034c6    program     static F:\Microchip Solutions\ZigBee2006Res\microchip\ZigBeeStack\zNWK.c
                  __pa_29   0x0034d4    program     static F:\Microchip Solutions\ZigBee2006Res\microchip\ZigBeeStack\zNWK.c
                  __pa_30   0x0034de    program     static F:\Microchip Solutions\ZigBee2006Res\microchip\ZigBeeStack\zNWK.c
                  __pa_31   0x0034ea    program     static F:\Microchip Solutions\ZigBee2006Res\microchip\ZigBeeStack\zNWK.c
                  __pa_32   0x0034f4    program     static F:\Microchip Solutions\ZigBee2006Res\microchip\ZigBeeStack\zNWK.c
                  __pa_33   0x0034fc    program     static F:\Microchip Solutions\ZigBee2006Res\microchip\ZigBeeStack\zNWK.c
                  __pa_34   0x00350e    program     static F:\Microchip Solutions\ZigBee2006Res\microchip\ZigBeeStack\zNWK.c
                  __pa_35   0x003516    program     static F:\Microchip Solutions\ZigBee2006Res\microchip\ZigBeeStack\zNWK.c
                  __pa_36   0x003526    program     static F:\Microchip Solutions\ZigBee2006Res\microchip\ZigBeeStack\zNWK.c
                  __pa_37   0x00352e    program     static F:\Microchip Solutions\ZigBee2006Res\microchip\ZigBeeStack\zNWK.c
                  __pa_38   0x003536    program     static F:\Microchip Solutions\ZigBee2006Res\microchip\ZigBeeStack\zNWK.c
                  __pa_39   0x003542    program     static F:\Microchip Solutions\ZigBee2006Res\microchip\ZigBeeStack\zNWK.c
                  __pa_40   0x00354e    program     static F:\Microchip Solutions\ZigBee2006Res\microchip\ZigBeeStack\zNWK.c
                  __pa_41   0x003558    program     static F:\Microchip Solutions\ZigBee2006Res\microchip\ZigBeeStack\zNWK.c
                  __pa_42   0x003560    program     static F:\Microchip Solutions\ZigBee2006Res\microchip\ZigBeeStack\zNWK.c
                  __pa_43   0x00356e    program     static F:\Microchip Solutions\ZigBee2006Res\microchip\ZigBeeStack\zNWK.c
                  __pa_44   0x003576    program     static F:\Microchip Solutions\ZigBee2006Res\microchip\ZigBeeStack\zNWK.c
                  __pa_45   0x00357e    program     static F:\Microchip Solutions\ZigBee2006Res\microchip\ZigBeeStack\zNWK.c
                  __pa_46   0x00358e    program     static F:\Microchip Solutions\ZigBee2006Res\microchip\ZigBeeStack\zNWK.c
                  __pa_47   0x00359a    program     static F:\Microchip Solutions\ZigBee2006Res\microchip\ZigBeeStack\zNWK.c
                  __pa_48   0x0035a2    program     static F:\Microchip Solutions\ZigBee2006Res\microchip\ZigBeeStack\zNWK.c
                  __pa_49   0x0035b2    program     static F:\Microchip Solutions\ZigBee2006Res\microchip\ZigBeeStack\zNWK.c
                  __pa_50   0x0035c0    program     static F:\Microchip Solutions\ZigBee2006Res\microchip\ZigBeeStack\zNWK.c
                  __pa_51   0x0035ce    program     static F:\Microchip Solutions\ZigBee2006Res\microchip\ZigBeeStack\zNWK.c
                  __pa_52   0x0035dc    program     static F:\Microchip Solutions\ZigBee2006Res\microchip\ZigBeeStack\zNWK.c
                  __pa_53   0x0035ea    program     static F:\Microchip Solutions\ZigBee2006Res\microchip\ZigBeeStack\zNWK.c
                  __pa_54   0x003608    program     static F:\Microchip Solutions\ZigBee2006Res\microchip\ZigBeeStack\zNWK.c
                  __pa_55   0x003610    program     static F:\Microchip Solutions\ZigBee2006Res\microchip\ZigBeeStack\zNWK.c
                  __pa_56   0x003620    program     static F:\Microchip Solutions\ZigBee2006Res\microchip\ZigBeeStack\zNWK.c
                  __pa_57   0x00362a    program     static F:\Microchip Solutions\ZigBee2006Res\microchip\ZigBeeStack\zNWK.c
                  __pa_58   0x003634    program     static F:\Microchip Solutions\ZigBee2006Res\microchip\ZigBeeStack\zNWK.c
                  __pa_59   0x00363a    program     static F:\Microchip Solutions\ZigBee2006Res\microchip\ZigBeeStack\zNWK.c
                  __pa_60   0x00364c    program     static F:\Microchip Solutions\ZigBee2006Res\microchip\ZigBeeStack\zNWK.c
                  __pa_61   0x00365a    program     static F:\Microchip Solutions\ZigBee2006Res\microchip\ZigBeeStack\zNWK.c
                  __pa_62   0x003668    program     static F:\Microchip Solutions\ZigBee2006Res\microchip\ZigBeeStack\zNWK.c
                  __pa_63   0x003676    program     static F:\Microchip Solutions\ZigBee2006Res\microchip\ZigBeeStack\zNWK.c
                  __pa_64   0x003684    program     static F:\Microchip Solutions\ZigBee2006Res\microchip\ZigBeeStack\zNWK.c
                  __pa_65   0x00368e    program     static F:\Microchip Solutions\ZigBee2006Res\microchip\ZigBeeStack\zNWK.c
                  __pa_66   0x00369e    program     static F:\Microchip Solutions\ZigBee2006Res\microchip\ZigBeeStack\zNWK.c
                  __pa_67   0x0036ae    program     static F:\Microchip Solutions\ZigBee2006Res\microchip\ZigBeeStack\zNWK.c
                  __pa_68   0x0036b8    program     static F:\Microchip Solutions\ZigBee2006Res\microchip\ZigBeeStack\zNWK.c
                  __pa_69   0x0036c0    program     static F:\Microchip Solutions\ZigBee2006Res\microchip\ZigBeeStack\zNWK.c
                  __pa_70   0x0036c8    program     static F:\Microchip Solutions\ZigBee2006Res\microchip\ZigBeeStack\zNWK.c
                  __pa_71   0x0036da    program     static F:\Microchip Solutions\ZigBee2006Res\microchip\ZigBeeStack\zNWK.c
                  __pa_72   0x0036e2    program     static F:\Microchip Solutions\ZigBee2006Res\microchip\ZigBeeStack\zNWK.c
                  __pa_73   0x0036f8    program     static F:\Microchip Solutions\ZigBee2006Res\microchip\ZigBeeStack\zNWK.c
                  __pa_74   0x003708    program     static F:\Microchip Solutions\ZigBee2006Res\microchip\ZigBeeStack\zNWK.c
                  __pa_75   0x003718    program     static F:\Microchip Solutions\ZigBee2006Res\microchip\ZigBeeStack\zNWK.c
                  __pa_76   0x003726    program     static F:\Microchip Solutions\ZigBee2006Res\microchip\ZigBeeStack\zNWK.c
                  __pa_77   0x003734    program     static F:\Microchip Solutions\ZigBee2006Res\microchip\ZigBeeStack\zNWK.c
                  __pa_78   0x003740    program     static F:\Microchip Solutions\ZigBee2006Res\microchip\ZigBeeStack\zNWK.c
                  __pa_79   0x00374a    program     static F:\Microchip Solutions\ZigBee2006Res\microchip\ZigBeeStack\zNWK.c
                  __pa_80   0x003754    program     static F:\Microchip Solutions\ZigBee2006Res\microchip\ZigBeeStack\zNWK.c
                  __pa_81   0x00375e    program     static F:\Microchip Solutions\ZigBee2006Res\microchip\ZigBeeStack\zNWK.c
                  __pa_82   0x003768    program     static F:\Microchip Solutions\ZigBee2006Res\microchip\ZigBeeStack\zNWK.c
                  __pa_83   0x003770    program     static F:\Microchip Solutions\ZigBee2006Res\microchip\ZigBeeStack\zNWK.c
                  __pa_84   0x003784    program     static F:\Microchip Solutions\ZigBee2006Res\microchip\ZigBeeStack\zNWK.c
                  __pa_85   0x003798    program     static F:\Microchip Solutions\ZigBee2006Res\microchip\ZigBeeStack\zNWK.c
                  __pa_86   0x0037ac    program     static F:\Microchip Solutions\ZigBee2006Res\microchip\ZigBeeStack\zNWK.c
                  __pa_87   0x0037c0    program     static F:\Microchip Solutions\ZigBee2006Res\microchip\ZigBeeStack\zNWK.c
                  __pa_88   0x0037c8    program     static F:\Microchip Solutions\ZigBee2006Res\microchip\ZigBeeStack\zNWK.c
                  __pa_89   0x0037ce    program     static F:\Microchip Solutions\ZigBee2006Res\microchip\ZigBeeStack\zNWK.c
                  __pa_90   0x0037d4    program     static F:\Microchip Solutions\ZigBee2006Res\microchip\ZigBeeStack\zNWK.c
                  __pa_91   0x0037e0    program     static F:\Microchip Solutions\ZigBee2006Res\microchip\ZigBeeStack\zNWK.c
                  __pa_92   0x0037e6    program     static F:\Microchip Solutions\ZigBee2006Res\microchip\ZigBeeStack\zNWK.c
                  __pa_93   0x0037f2    program     static F:\Microchip Solutions\ZigBee2006Res\microchip\ZigBeeStack\zNWK.c
                  __pa_94   0x0037fe    program     static F:\Microchip Solutions\ZigBee2006Res\microchip\ZigBeeStack\zNWK.c
                  __pa_95   0x003808    program     static F:\Microchip Solutions\ZigBee2006Res\microchip\ZigBeeStack\zNWK.c
                  __pa_96   0x003814    program     static F:\Microchip Solutions\ZigBee2006Res\microchip\ZigBeeStack\zNWK.c
                  __pa_97   0x00381e    program     static F:\Microchip Solutions\ZigBee2006Res\microchip\ZigBeeStack\zNWK.c
                  __pa_98   0x003826    program     static F:\Microchip Solutions\ZigBee2006Res\microchip\ZigBeeStack\zNWK.c
                  __pa_99   0x00382e    program     static F:\Microchip Solutions\ZigBee2006Res\microchip\ZigBeeStack\zNWK.c
                 __pa_100   0x003836    program     static F:\Microchip Solutions\ZigBee2006Res\microchip\ZigBeeStack\zNWK.c
                 __pa_101   0x003846    program     static F:\Microchip Solutions\ZigBee2006Res\microchip\ZigBeeStack\zNWK.c
                 __pa_102   0x003850    program     static F:\Microchip Solutions\ZigBee2006Res\microchip\ZigBeeStack\zNWK.c
                 __pa_103   0x003860    program     static F:\Microchip Solutions\ZigBee2006Res\microchip\ZigBeeStack\zNWK.c
                 __pa_104   0x003870    program     static F:\Microchip Solutions\ZigBee2006Res\microchip\ZigBeeStack\zNWK.c
                 __pa_105   0x003880    program     static F:\Microchip Solutions\ZigBee2006Res\microchip\ZigBeeStack\zNWK.c
                 __pa_106   0x003890    program     static F:\Microchip Solutions\ZigBee2006Res\microchip\ZigBeeStack\zNWK.c
                 __pa_107   0x003898    program     static F:\Microchip Solutions\ZigBee2006Res\microchip\ZigBeeStack\zNWK.c
                 __pa_108   0x0038a0    program     static F:\Microchip Solutions\ZigBee2006Res\microchip\ZigBeeStack\zNWK.c
                 __pa_109   0x0038ae    program     static F:\Microchip Solutions\ZigBee2006Res\microchip\ZigBeeStack\zNWK.c
                 __pa_110   0x0038b6    program     static F:\Microchip Solutions\ZigBee2006Res\microchip\ZigBeeStack\zNWK.c
                 __pa_111   0x0038c4    program     static F:\Microchip Solutions\ZigBee2006Res\microchip\ZigBeeStack\zNWK.c
                 __pa_112   0x0038cc    program     static F:\Microchip Solutions\ZigBee2006Res\microchip\ZigBeeStack\zNWK.c
                 __pa_113   0x0038da    program     static F:\Microchip Solutions\ZigBee2006Res\microchip\ZigBeeStack\zNWK.c
                 __pa_114   0x0038e8    program     static F:\Microchip Solutions\ZigBee2006Res\microchip\ZigBeeStack\zNWK.c
                 __pa_115   0x0038f6    program     static F:\Microchip Solutions\ZigBee2006Res\microchip\ZigBeeStack\zNWK.c
                 __pa_116   0x003904    program     static F:\Microchip Solutions\ZigBee2006Res\microchip\ZigBeeStack\zNWK.c
                 __pa_117   0x00390e    program     static F:\Microchip Solutions\ZigBee2006Res\microchip\ZigBeeStack\zNWK.c
                 __pa_118   0x003918    program     static F:\Microchip Solutions\ZigBee2006Res\microchip\ZigBeeStack\zNWK.c
                 __pa_119   0x003922    program     static F:\Microchip Solutions\ZigBee2006Res\microchip\ZigBeeStack\zNWK.c
                 __pa_120   0x00392c    program     static F:\Microchip Solutions\ZigBee2006Res\microchip\ZigBeeStack\zNWK.c
                 __pa_121   0x003934    program     static F:\Microchip Solutions\ZigBee2006Res\microchip\ZigBeeStack\zNWK.c
                 __pa_122   0x00393c    program     static F:\Microchip Solutions\ZigBee2006Res\microchip\ZigBeeStack\zNWK.c
                 __pa_123   0x003944    program     static F:\Microchip Solutions\ZigBee2006Res\microchip\ZigBeeStack\zNWK.c
                 __pa_124   0x00394c    program     static F:\Microchip Solutions\ZigBee2006Res\microchip\ZigBeeStack\zNWK.c
                 __pa_125   0x00395a    program     static F:\Microchip Solutions\ZigBee2006Res\microchip\ZigBeeStack\zNWK.c
                 __pa_126   0x003970    program     static F:\Microchip Solutions\ZigBee2006Res\microchip\ZigBeeStack\zNWK.c
                 __pa_127   0x003976    program     static F:\Microchip Solutions\ZigBee2006Res\microchip\ZigBeeStack\zNWK.c
                 __pa_128   0x00397c    program     static F:\Microchip Solutions\ZigBee2006Res\microchip\ZigBeeStack\zNWK.c
                 __pa_129   0x003986    program     static F:\Microchip Solutions\ZigBee2006Res\microchip\ZigBeeStack\zNWK.c
                 __pa_130   0x00398c    program     static F:\Microchip Solutions\ZigBee2006Res\microchip\ZigBeeStack\zNWK.c
                 __pa_131   0x003996    program     static F:\Microchip Solutions\ZigBee2006Res\microchip\ZigBeeStack\zNWK.c
                 __pa_132   0x00399e    program     static F:\Microchip Solutions\ZigBee2006Res\microchip\ZigBeeStack\zNWK.c
                 __pa_133   0x0039a6    program     static F:\Microchip Solutions\ZigBee2006Res\microchip\ZigBeeStack\zNWK.c
                 __pa_134   0x0039b6    program     static F:\Microchip Solutions\ZigBee2006Res\microchip\ZigBeeStack\zNWK.c
                 __pa_135   0x0039bc    program     static F:\Microchip Solutions\ZigBee2006Res\microchip\ZigBeeStack\zNWK.c
                 __pa_136   0x0039c2    program     static F:\Microchip Solutions\ZigBee2006Res\microchip\ZigBeeStack\zNWK.c
                 __pa_137   0x0039c8    program     static F:\Microchip Solutions\ZigBee2006Res\microchip\ZigBeeStack\zNWK.c
                 __pa_138   0x0039d2    program     static F:\Microchip Solutions\ZigBee2006Res\microchip\ZigBeeStack\zNWK.c
                 __pa_139   0x0039dc    program     static F:\Microchip Solutions\ZigBee2006Res\microchip\ZigBeeStack\zNWK.c
                 __pa_140   0x0039e8    program     static F:\Microchip Solutions\ZigBee2006Res\microchip\ZigBeeStack\zNWK.c
                 __pa_141   0x0039fa    program     static F:\Microchip Solutions\ZigBee2006Res\microchip\ZigBeeStack\zNWK.c
                 __pa_142   0x003a02    program     static F:\Microchip Solutions\ZigBee2006Res\microchip\ZigBeeStack\zNWK.c
                 __pa_143   0x003a08    program     static F:\Microchip Solutions\ZigBee2006Res\microchip\ZigBeeStack\zNWK.c
                 __pa_144   0x003a28    program     static F:\Microchip Solutions\ZigBee2006Res\microchip\ZigBeeStack\zNWK.c
                 __pa_145   0x003a2e    program     static F:\Microchip Solutions\ZigBee2006Res\microchip\ZigBeeStack\zNWK.c
                 __pa_146   0x003a34    program     static F:\Microchip Solutions\ZigBee2006Res\microchip\ZigBeeStack\zNWK.c
                 __pa_147   0x003a46    program     static F:\Microchip Solutions\ZigBee2006Res\microchip\ZigBeeStack\zNWK.c
                 __pa_148   0x003a4c    program     static F:\Microchip Solutions\ZigBee2006Res\microchip\ZigBeeStack\zNWK.c
                 __pa_149   0x003a58    program     static F:\Microchip Solutions\ZigBee2006Res\microchip\ZigBeeStack\zNWK.c
                 __pa_150   0x003a60    program     static F:\Microchip Solutions\ZigBee2006Res\microchip\ZigBeeStack\zNWK.c
                 __pa_151   0x003a68    program     static F:\Microchip Solutions\ZigBee2006Res\microchip\ZigBeeStack\zNWK.c
                 __pa_152   0x003a74    program     static F:\Microchip Solutions\ZigBee2006Res\microchip\ZigBeeStack\zNWK.c
                 __pa_153   0x003a7c    program     static F:\Microchip Solutions\ZigBee2006Res\microchip\ZigBeeStack\zNWK.c
                 __pa_154   0x003a84    program     static F:\Microchip Solutions\ZigBee2006Res\microchip\ZigBeeStack\zNWK.c
                 __pa_155   0x003a8c    program     static F:\Microchip Solutions\ZigBee2006Res\microchip\ZigBeeStack\zNWK.c
                 __pa_156   0x003a94    program     static F:\Microchip Solutions\ZigBee2006Res\microchip\ZigBeeStack\zNWK.c
                 __pa_157   0x003a9c    program     static F:\Microchip Solutions\ZigBee2006Res\microchip\ZigBeeStack\zNWK.c
                 __pa_158   0x003ab6    program     static F:\Microchip Solutions\ZigBee2006Res\microchip\ZigBeeStack\zNWK.c
                 __pa_159   0x003ace    program     static F:\Microchip Solutions\ZigBee2006Res\microchip\ZigBeeStack\zNWK.c
                 __pa_160   0x003ad6    program     static F:\Microchip Solutions\ZigBee2006Res\microchip\ZigBeeStack\zNWK.c
                 __pa_161   0x003ae0    program     static F:\Microchip Solutions\ZigBee2006Res\microchip\ZigBeeStack\zNWK.c
                 __pa_162   0x003aea    program     static F:\Microchip Solutions\ZigBee2006Res\microchip\ZigBeeStack\zNWK.c
                 __pa_163   0x003af2    program     static F:\Microchip Solutions\ZigBee2006Res\microchip\ZigBeeStack\zNWK.c
                 __pa_164   0x003b00    program     static F:\Microchip Solutions\ZigBee2006Res\microchip\ZigBeeStack\zNWK.c
                 __pa_165   0x003b06    program     static F:\Microchip Solutions\ZigBee2006Res\microchip\ZigBeeStack\zNWK.c
                 __pa_166   0x003b12    program     static F:\Microchip Solutions\ZigBee2006Res\microchip\ZigBeeStack\zNWK.c
                 __pa_167   0x003b18    program     static F:\Microchip Solutions\ZigBee2006Res\microchip\ZigBeeStack\zNWK.c
                 __pa_168   0x003b24    program     static F:\Microchip Solutions\ZigBee2006Res\microchip\ZigBeeStack\zNWK.c
                 __pa_169   0x003b2c    program     static F:\Microchip Solutions\ZigBee2006Res\microchip\ZigBeeStack\zNWK.c
                 __pa_170   0x003b32    program     static F:\Microchip Solutions\ZigBee2006Res\microchip\ZigBeeStack\zNWK.c
                 __pa_171   0x003b3a    program     static F:\Microchip Solutions\ZigBee2006Res\microchip\ZigBeeStack\zNWK.c
                 __pa_172   0x003b46    program     static F:\Microchip Solutions\ZigBee2006Res\microchip\ZigBeeStack\zNWK.c
                 __pa_173   0x003b4e    program     static F:\Microchip Solutions\ZigBee2006Res\microchip\ZigBeeStack\zNWK.c
                 __pa_174   0x003b58    program     static F:\Microchip Solutions\ZigBee2006Res\microchip\ZigBeeStack\zNWK.c
                 __pa_175   0x003b68    program     static F:\Microchip Solutions\ZigBee2006Res\microchip\ZigBeeStack\zNWK.c
                 __pa_176   0x003b6e    program     static F:\Microchip Solutions\ZigBee2006Res\microchip\ZigBeeStack\zNWK.c
                 __pa_177   0x003b80    program     static F:\Microchip Solutions\ZigBee2006Res\microchip\ZigBeeStack\zNWK.c
                 __pa_178   0x003b90    program     static F:\Microchip Solutions\ZigBee2006Res\microchip\ZigBeeStack\zNWK.c
                 __pa_179   0x003b9a    program     static F:\Microchip Solutions\ZigBee2006Res\microchip\ZigBeeStack\zNWK.c
                 __pa_180   0x003ba0    program     static F:\Microchip Solutions\ZigBee2006Res\microchip\ZigBeeStack\zNWK.c
                 __pa_181   0x003bac    program     static F:\Microchip Solutions\ZigBee2006Res\microchip\ZigBeeStack\zNWK.c
                 __pa_182   0x003bb6    program     static F:\Microchip Solutions\ZigBee2006Res\microchip\ZigBeeStack\zNWK.c
                 __pa_183   0x003bc0    program     static F:\Microchip Solutions\ZigBee2006Res\microchip\ZigBeeStack\zNWK.c
                 __pa_184   0x003bcc    program     static F:\Microchip Solutions\ZigBee2006Res\microchip\ZigBeeStack\zNWK.c
                 __pa_185   0x003bd4    program     static F:\Microchip Solutions\ZigBee2006Res\microchip\ZigBeeStack\zNWK.c
                 __pa_186   0x003bdc    program     static F:\Microchip Solutions\ZigBee2006Res\microchip\ZigBeeStack\zNWK.c
                 __pa_187   0x003be4    program     static F:\Microchip Solutions\ZigBee2006Res\microchip\ZigBeeStack\zNWK.c
                 __pa_188   0x003bee    program     static F:\Microchip Solutions\ZigBee2006Res\microchip\ZigBeeStack\zNWK.c
                 __pa_189   0x003bf8    program     static F:\Microchip Solutions\ZigBee2006Res\microchip\ZigBeeStack\zNWK.c
                 __pa_190   0x003c08    program     static F:\Microchip Solutions\ZigBee2006Res\microchip\ZigBeeStack\zNWK.c
                 __pa_191   0x003c10    program     static F:\Microchip Solutions\ZigBee2006Res\microchip\ZigBeeStack\zNWK.c
                 __pa_192   0x003c1e    program     static F:\Microchip Solutions\ZigBee2006Res\microchip\ZigBeeStack\zNWK.c
                 __pa_193   0x003c2c    program     static F:\Microchip Solutions\ZigBee2006Res\microchip\ZigBeeStack\zNWK.c
                 __pa_194   0x003c36    program     static F:\Microchip Solutions\ZigBee2006Res\microchip\ZigBeeStack\zNWK.c
                 __pa_195   0x003c46    program     static F:\Microchip Solutions\ZigBee2006Res\microchip\ZigBeeStack\zNWK.c
             __tmplbl_333   0x003c46    program     static                          
                 __pa_196   0x003c54    program     static F:\Microchip Solutions\ZigBee2006Res\microchip\ZigBeeStack\zNWK.c
                 __pa_197   0x003c5a    program     static F:\Microchip Solutions\ZigBee2006Res\microchip\ZigBeeStack\zNWK.c
                 __pa_198   0x003c64    program     static F:\Microchip Solutions\ZigBee2006Res\microchip\ZigBeeStack\zNWK.c
                 __pa_199   0x003c70    program     static F:\Microchip Solutions\ZigBee2006Res\microchip\ZigBeeStack\zNWK.c
                 __pa_200   0x003c7e    program     static F:\Microchip Solutions\ZigBee2006Res\microchip\ZigBeeStack\zNWK.c
                 __pa_201   0x003c8a    program     static F:\Microchip Solutions\ZigBee2006Res\microchip\ZigBeeStack\zNWK.c
                 __pa_202   0x003c94    program     static F:\Microchip Solutions\ZigBee2006Res\microchip\ZigBeeStack\zNWK.c
                 __pa_203   0x003ca2    program     static F:\Microchip Solutions\ZigBee2006Res\microchip\ZigBeeStack\zNWK.c
                 __pa_204   0x003cae    program     static F:\Microchip Solutions\ZigBee2006Res\microchip\ZigBeeStack\zNWK.c
                 __pa_205   0x003cb4    program     static F:\Microchip Solutions\ZigBee2006Res\microchip\ZigBeeStack\zNWK.c
                 __pa_206   0x003cc0    program     static F:\Microchip Solutions\ZigBee2006Res\microchip\ZigBeeStack\zNWK.c
                 __pa_207   0x003cce    program     static F:\Microchip Solutions\ZigBee2006Res\microchip\ZigBeeStack\zNWK.c
                 __pa_208   0x003cd4    program     static F:\Microchip Solutions\ZigBee2006Res\microchip\ZigBeeStack\zNWK.c
                 __pa_209   0x003ce2    program     static F:\Microchip Solutions\ZigBee2006Res\microchip\ZigBeeStack\zNWK.c
                 __pa_210   0x003cf0    program     static F:\Microchip Solutions\ZigBee2006Res\microchip\ZigBeeStack\zNWK.c
                 __pa_211   0x003cfe    program     static F:\Microchip Solutions\ZigBee2006Res\microchip\ZigBeeStack\zNWK.c
                 __pa_212   0x003d06    program     static F:\Microchip Solutions\ZigBee2006Res\microchip\ZigBeeStack\zNWK.c
                 __pa_213   0x003d10    program     static F:\Microchip Solutions\ZigBee2006Res\microchip\ZigBeeStack\zNWK.c
                 __pa_214   0x003d1a    program     static F:\Microchip Solutions\ZigBee2006Res\microchip\ZigBeeStack\zNWK.c
                 __pa_215   0x003d24    program     static F:\Microchip Solutions\ZigBee2006Res\microchip\ZigBeeStack\zNWK.c
                 __pa_216   0x003d2e    program     static F:\Microchip Solutions\ZigBee2006Res\microchip\ZigBeeStack\zNWK.c
                 __pa_217   0x003d36    program     static F:\Microchip Solutions\ZigBee2006Res\microchip\ZigBeeStack\zNWK.c
                 __pa_218   0x003d3e    program     static F:\Microchip Solutions\ZigBee2006Res\microchip\ZigBeeStack\zNWK.c
                 __pa_219   0x003d48    program     static F:\Microchip Solutions\ZigBee2006Res\microchip\ZigBeeStack\zNWK.c
                 __pa_220   0x003d52    program     static F:\Microchip Solutions\ZigBee2006Res\microchip\ZigBeeStack\zNWK.c
                 __pa_221   0x003d5a    program     static F:\Microchip Solutions\ZigBee2006Res\microchip\ZigBeeStack\zNWK.c
                 __pa_222   0x003d62    program     static F:\Microchip Solutions\ZigBee2006Res\microchip\ZigBeeStack\zNWK.c
                 __pa_223   0x003d68    program     static F:\Microchip Solutions\ZigBee2006Res\microchip\ZigBeeStack\zNWK.c
                 __pa_224   0x003d6e    program     static F:\Microchip Solutions\ZigBee2006Res\microchip\ZigBeeStack\zNWK.c
                 __pa_225   0x003d76    program     static F:\Microchip Solutions\ZigBee2006Res\microchip\ZigBeeStack\zNWK.c
                 __pa_226   0x003d7e    program     static F:\Microchip Solutions\ZigBee2006Res\microchip\ZigBeeStack\zNWK.c
                 __pa_227   0x003d86    program     static F:\Microchip Solutions\ZigBee2006Res\microchip\ZigBeeStack\zNWK.c
                 __pa_228   0x003d90    program     static F:\Microchip Solutions\ZigBee2006Res\microchip\ZigBeeStack\zNWK.c
                 __pa_229   0x003dac    program     static F:\Microchip Solutions\ZigBee2006Res\microchip\ZigBeeStack\zNWK.c
                 __pa_230   0x003dbe    program     static F:\Microchip Solutions\ZigBee2006Res\microchip\ZigBeeStack\zNWK.c
                 __pa_231   0x003dc4    program     static F:\Microchip Solutions\ZigBee2006Res\microchip\ZigBeeStack\zNWK.c
                 __pa_232   0x003dce    program     static F:\Microchip Solutions\ZigBee2006Res\microchip\ZigBeeStack\zNWK.c
                 __pa_233   0x003dd4    program     static F:\Microchip Solutions\ZigBee2006Res\microchip\ZigBeeStack\zNWK.c
                 __pa_234   0x003ddc    program     static F:\Microchip Solutions\ZigBee2006Res\microchip\ZigBeeStack\zNWK.c
                 __pa_235   0x003de4    program     static F:\Microchip Solutions\ZigBee2006Res\microchip\ZigBeeStack\zNWK.c
                 __pa_236   0x003dea    program     static F:\Microchip Solutions\ZigBee2006Res\microchip\ZigBeeStack\zNWK.c
                 __pa_237   0x003df2    program     static F:\Microchip Solutions\ZigBee2006Res\microchip\ZigBeeStack\zNWK.c
                 __pa_238   0x003dfc    program     static F:\Microchip Solutions\ZigBee2006Res\microchip\ZigBeeStack\zNWK.c
                 __pa_239   0x003e02    program     static F:\Microchip Solutions\ZigBee2006Res\microchip\ZigBeeStack\zNWK.c
                 __pa_240   0x003e0a    program     static F:\Microchip Solutions\ZigBee2006Res\microchip\ZigBeeStack\zNWK.c
                 __pa_241   0x003e1a    program     static F:\Microchip Solutions\ZigBee2006Res\microchip\ZigBeeStack\zNWK.c
                 __pa_242   0x003e22    program     static F:\Microchip Solutions\ZigBee2006Res\microchip\ZigBeeStack\zNWK.c
                 __pa_243   0x003e28    program     static F:\Microchip Solutions\ZigBee2006Res\microchip\ZigBeeStack\zNWK.c
                 __pa_244   0x003e32    program     static F:\Microchip Solutions\ZigBee2006Res\microchip\ZigBeeStack\zNWK.c
                 __pa_245   0x003e3c    program     static F:\Microchip Solutions\ZigBee2006Res\microchip\ZigBeeStack\zNWK.c
             __tmplbl_331   0x003e3c    program     static                          
             __tmplbl_332   0x003e4c    program     static                          
                 __pa_246   0x003e4c    program     static F:\Microchip Solutions\ZigBee2006Res\microchip\ZigBeeStack\zNWK.c
                 __pa_247   0x003e5c    program     static F:\Microchip Solutions\ZigBee2006Res\microchip\ZigBeeStack\zNWK.c
                 __pa_248   0x003e64    program     static F:\Microchip Solutions\ZigBee2006Res\microchip\ZigBeeStack\zNWK.c
                 __pa_249   0x003e6a    program     static F:\Microchip Solutions\ZigBee2006Res\microchip\ZigBeeStack\zNWK.c
                 __pa_250   0x003e74    program     static F:\Microchip Solutions\ZigBee2006Res\microchip\ZigBeeStack\zNWK.c
                 __pa_251   0x003e7e    program     static F:\Microchip Solutions\ZigBee2006Res\microchip\ZigBeeStack\zNWK.c
                 __pa_252   0x003e88    program     static F:\Microchip Solutions\ZigBee2006Res\microchip\ZigBeeStack\zNWK.c
                 __pa_253   0x003e92    program     static F:\Microchip Solutions\ZigBee2006Res\microchip\ZigBeeStack\zNWK.c
                 __pa_254   0x003e9a    program     static F:\Microchip Solutions\ZigBee2006Res\microchip\ZigBeeStack\zNWK.c
                 __pa_255   0x003ea0    program     static F:\Microchip Solutions\ZigBee2006Res\microchip\ZigBeeStack\zNWK.c
                 __pa_256   0x003ea6    program     static F:\Microchip Solutions\ZigBee2006Res\microchip\ZigBeeStack\zNWK.c
                 __pa_257   0x003eae    program     static F:\Microchip Solutions\ZigBee2006Res\microchip\ZigBeeStack\zNWK.c
                 __pa_258   0x003eb6    program     static F:\Microchip Solutions\ZigBee2006Res\microchip\ZigBeeStack\zNWK.c
                 __pa_259   0x003ebe    program     static F:\Microchip Solutions\ZigBee2006Res\microchip\ZigBeeStack\zNWK.c
                 __pa_260   0x003eca    program     static F:\Microchip Solutions\ZigBee2006Res\microchip\ZigBeeStack\zNWK.c
                 __pa_261   0x003ed0    program     static F:\Microchip Solutions\ZigBee2006Res\microchip\ZigBeeStack\zNWK.c
                 __pa_262   0x003ed8    program     static F:\Microchip Solutions\ZigBee2006Res\microchip\ZigBeeStack\zNWK.c
                 __pa_263   0x003ee2    program     static F:\Microchip Solutions\ZigBee2006Res\microchip\ZigBeeStack\zNWK.c
                 __pa_264   0x003eec    program     static F:\Microchip Solutions\ZigBee2006Res\microchip\ZigBeeStack\zNWK.c
                 __pa_265   0x003ef6    program     static F:\Microchip Solutions\ZigBee2006Res\microchip\ZigBeeStack\zNWK.c
                 __pa_266   0x003f02    program     static F:\Microchip Solutions\ZigBee2006Res\microchip\ZigBeeStack\zNWK.c
                 __pa_267   0x003f08    program     static F:\Microchip Solutions\ZigBee2006Res\microchip\ZigBeeStack\zNWK.c
                 __pa_268   0x003f0e    program     static F:\Microchip Solutions\ZigBee2006Res\microchip\ZigBeeStack\zNWK.c
                 __pa_269   0x003f16    program     static F:\Microchip Solutions\ZigBee2006Res\microchip\ZigBeeStack\zNWK.c
                 __pa_270   0x003f20    program     static F:\Microchip Solutions\ZigBee2006Res\microchip\ZigBeeStack\zNWK.c
                 __pa_271   0x003f2a    program     static F:\Microchip Solutions\ZigBee2006Res\microchip\ZigBeeStack\zNWK.c
                 __pa_272   0x003f32    program     static F:\Microchip Solutions\ZigBee2006Res\microchip\ZigBeeStack\zNWK.c
                 __pa_273   0x003f3a    program     static F:\Microchip Solutions\ZigBee2006Res\microchip\ZigBeeStack\zNWK.c
                 __pa_274   0x003f44    program     static F:\Microchip Solutions\ZigBee2006Res\microchip\ZigBeeStack\zNWK.c
                 __pa_275   0x003f4e    program     static F:\Microchip Solutions\ZigBee2006Res\microchip\ZigBeeStack\zNWK.c
                 __pa_276   0x003f54    program     static F:\Microchip Solutions\ZigBee2006Res\microchip\ZigBeeStack\zNWK.c
                 __pa_277   0x003f5a    program     static F:\Microchip Solutions\ZigBee2006Res\microchip\ZigBeeStack\zNWK.c
                 __pa_278   0x003f62    program     static F:\Microchip Solutions\ZigBee2006Res\microchip\ZigBeeStack\zNWK.c
                 __pa_279   0x003f68    program     static F:\Microchip Solutions\ZigBee2006Res\microchip\ZigBeeStack\zNWK.c
                 __pa_280   0x003f72    program     static F:\Microchip Solutions\ZigBee2006Res\microchip\ZigBeeStack\zNWK.c
                 __pa_281   0x003f7a    program     static F:\Microchip Solutions\ZigBee2006Res\microchip\ZigBeeStack\zNWK.c
                 __pa_282   0x003f80    program     static F:\Microchip Solutions\ZigBee2006Res\microchip\ZigBeeStack\zNWK.c
                 __pa_283   0x003f86    program     static F:\Microchip Solutions\ZigBee2006Res\microchip\ZigBeeStack\zNWK.c
                 __pa_284   0x003f8c    program     static F:\Microchip Solutions\ZigBee2006Res\microchip\ZigBeeStack\zNWK.c
                 __pa_285   0x003f92    program     static F:\Microchip Solutions\ZigBee2006Res\microchip\ZigBeeStack\zNWK.c
    ZDOHasBackgroundTasks   0x003f9a    program     extern F:\Microchip Solutions\ZigBee2006Res\microchip\ZigBeeStack\zZDO.C
                  ZDOInit   0x003fa6    program     extern F:\Microchip Solutions\ZigBee2006Res\microchip\ZigBeeStack\zZDO.C
                 ZDOTasks   0x003fba    program     extern F:\Microchip Solutions\ZigBee2006Res\microchip\ZigBeeStack\zZDO.C
             __tmplbl_108   0x0048da    program     static                          
             __tmplbl_104   0x0048e0    program     static                          
             __tmplbl_145   0x00514a    program     static                          
             __tmplbl_144   0x0052ec    program     static                          
             __tmplbl_143   0x00530a    program     static                          
             __tmplbl_140   0x005328    program     static                          
             __tmplbl_137   0x005328    program     static                          
             __tmplbl_141   0x005328    program     static                          
             __tmplbl_146   0x005328    program     static                          
             __tmplbl_139   0x005328    program     static                          
             __tmplbl_142   0x00532a    program     static                          
             __tmplbl_138   0x00532a    program     static                          
             __tmplbl_130   0x00532a    program     static                          
             __tmplbl_136   0x00532a    program     static                          
             __tmplbl_152   0x00532a    program     static                          
   FinishAddressResponses   0x00533e    program     extern F:\Microchip Solutions\ZigBee2006Res\microchip\ZigBeeStack\zZDO.C
        IsThisMyShortAddr   0x005458    program     extern F:\Microchip Solutions\ZigBee2006Res\microchip\ZigBeeStack\zZDO.C
GetOneEndDeviceBindRequest   0x0054bc    program     extern F:\Microchip Solutions\ZigBee2006Res\microchip\ZigBeeStack\zZDO.C
     ProcessEndDeviceBind   0x0056ae    program     extern F:\Microchip Solutions\ZigBee2006Res\microchip\ZigBeeStack\zZDO.C
 Send_END_DEVICE_BIND_rsp   0x005890    program     extern F:\Microchip Solutions\ZigBee2006Res\microchip\ZigBeeStack\zZDO.C
   PrepareMessageResponse   0x00594a    program     extern F:\Microchip Solutions\ZigBee2006Res\microchip\ZigBeeStack\zZDO.C
        handleActiveEPReq   0x00598e    program     extern F:\Microchip Solutions\ZigBee2006Res\microchip\ZigBeeStack\zZDO.C
       handleMatchDescReq   0x005a10    program     extern F:\Microchip Solutions\ZigBee2006Res\microchip\ZigBeeStack\zZDO.C
     ProcessBindAndUnbind   0x005cb8    program     extern F:\Microchip Solutions\ZigBee2006Res\microchip\ZigBeeStack\zZDO.C
   SendBindAddressRequest   0x005fca    program     extern F:\Microchip Solutions\ZigBee2006Res\microchip\ZigBeeStack\zZDO.C
         SendUpBindResult   0x006044    program     extern F:\Microchip Solutions\ZigBee2006Res\microchip\ZigBeeStack\zZDO.C
                   __pa_0   0x00609a    program     static F:\Microchip Solutions\ZigBee2006Res\microchip\ZigBeeStack\zZDO.C
                   __pa_1   0x0060a0    program     static F:\Microchip Solutions\ZigBee2006Res\microchip\ZigBeeStack\zZDO.C
                   __pa_2   0x0060a6    program     static F:\Microchip Solutions\ZigBee2006Res\microchip\ZigBeeStack\zZDO.C
                   __pa_3   0x0060ac    program     static F:\Microchip Solutions\ZigBee2006Res\microchip\ZigBeeStack\zZDO.C
                   __pa_4   0x0060b8    program     static F:\Microchip Solutions\ZigBee2006Res\microchip\ZigBeeStack\zZDO.C
                   __pa_5   0x0060c6    program     static F:\Microchip Solutions\ZigBee2006Res\microchip\ZigBeeStack\zZDO.C
                   __pa_6   0x0060d4    program     static F:\Microchip Solutions\ZigBee2006Res\microchip\ZigBeeStack\zZDO.C
                   __pa_7   0x0060de    program     static F:\Microchip Solutions\ZigBee2006Res\microchip\ZigBeeStack\zZDO.C
                   __pa_8   0x0060e4    program     static F:\Microchip Solutions\ZigBee2006Res\microchip\ZigBeeStack\zZDO.C
                   __pa_9   0x0060f0    program     static F:\Microchip Solutions\ZigBee2006Res\microchip\ZigBeeStack\zZDO.C
                  __pa_10   0x0060fa    program     static F:\Microchip Solutions\ZigBee2006Res\microchip\ZigBeeStack\zZDO.C
                  __pa_11   0x00610c    program     static F:\Microchip Solutions\ZigBee2006Res\microchip\ZigBeeStack\zZDO.C
                  __pa_12   0x006112    program     static F:\Microchip Solutions\ZigBee2006Res\microchip\ZigBeeStack\zZDO.C
                  __pa_13   0x006140    program     static F:\Microchip Solutions\ZigBee2006Res\microchip\ZigBeeStack\zZDO.C
                  __pa_14   0x00614c    program     static F:\Microchip Solutions\ZigBee2006Res\microchip\ZigBeeStack\zZDO.C
             __tmplbl_192   0x006152    program     static                          
             __tmplbl_193   0x006152    program     static                          
             __tmplbl_194   0x006152    program     static                          
             __tmplbl_197   0x006152    program     static                          
             __tmplbl_203   0x006152    program     static                          
             __tmplbl_202   0x006152    program     static                          
                  __pa_15   0x006152    program     static F:\Microchip Solutions\ZigBee2006Res\microchip\ZigBeeStack\zZDO.C
                  __pa_16   0x00615e    program     static F:\Microchip Solutions\ZigBee2006Res\microchip\ZigBeeStack\zZDO.C
                  __pa_17   0x006168    program     static F:\Microchip Solutions\ZigBee2006Res\microchip\ZigBeeStack\zZDO.C
                  __pa_18   0x006172    program     static F:\Microchip Solutions\ZigBee2006Res\microchip\ZigBeeStack\zZDO.C
                  __pa_19   0x00617c    program     static F:\Microchip Solutions\ZigBee2006Res\microchip\ZigBeeStack\zZDO.C
                  __pa_20   0x006184    program     static F:\Microchip Solutions\ZigBee2006Res\microchip\ZigBeeStack\zZDO.C
                  __pa_21   0x006190    program     static F:\Microchip Solutions\ZigBee2006Res\microchip\ZigBeeStack\zZDO.C
                  __pa_22   0x00619a    program     static F:\Microchip Solutions\ZigBee2006Res\microchip\ZigBeeStack\zZDO.C
                  __pa_23   0x0061a0    program     static F:\Microchip Solutions\ZigBee2006Res\microchip\ZigBeeStack\zZDO.C
                  __pa_24   0x0061e2    program     static F:\Microchip Solutions\ZigBee2006Res\microchip\ZigBeeStack\zZDO.C
                  __pa_25   0x0061ea    program     static F:\Microchip Solutions\ZigBee2006Res\microchip\ZigBeeStack\zZDO.C
                  __pa_26   0x006210    program     static F:\Microchip Solutions\ZigBee2006Res\microchip\ZigBeeStack\zZDO.C
                  __pa_27   0x006220    program     static F:\Microchip Solutions\ZigBee2006Res\microchip\ZigBeeStack\zZDO.C
                  __pa_28   0x006238    program     static F:\Microchip Solutions\ZigBee2006Res\microchip\ZigBeeStack\zZDO.C
                  __pa_29   0x00625a    program     static F:\Microchip Solutions\ZigBee2006Res\microchip\ZigBeeStack\zZDO.C
                  __pa_30   0x006260    program     static F:\Microchip Solutions\ZigBee2006Res\microchip\ZigBeeStack\zZDO.C
                  __pa_31   0x00626a    program     static F:\Microchip Solutions\ZigBee2006Res\microchip\ZigBeeStack\zZDO.C
                  __pa_32   0x006272    program     static F:\Microchip Solutions\ZigBee2006Res\microchip\ZigBeeStack\zZDO.C
                  __pa_33   0x00627c    program     static F:\Microchip Solutions\ZigBee2006Res\microchip\ZigBeeStack\zZDO.C
                  __pa_34   0x006292    program     static F:\Microchip Solutions\ZigBee2006Res\microchip\ZigBeeStack\zZDO.C
                  __pa_35   0x0062be    program     static F:\Microchip Solutions\ZigBee2006Res\microchip\ZigBeeStack\zZDO.C
                  __pa_36   0x0062d2    program     static F:\Microchip Solutions\ZigBee2006Res\microchip\ZigBeeStack\zZDO.C
                  __pa_37   0x0062d8    program     static F:\Microchip Solutions\ZigBee2006Res\microchip\ZigBeeStack\zZDO.C
                  __pa_38   0x0062e0    program     static F:\Microchip Solutions\ZigBee2006Res\microchip\ZigBeeStack\zZDO.C
                  __pa_39   0x0062e6    program     static F:\Microchip Solutions\ZigBee2006Res\microchip\ZigBeeStack\zZDO.C
                  __pa_40   0x0062f2    program     static F:\Microchip Solutions\ZigBee2006Res\microchip\ZigBeeStack\zZDO.C
                  __pa_41   0x006300    program     static F:\Microchip Solutions\ZigBee2006Res\microchip\ZigBeeStack\zZDO.C
                  __pa_42   0x00632c    program     static F:\Microchip Solutions\ZigBee2006Res\microchip\ZigBeeStack\zZDO.C
                  __pa_43   0x00633e    program     static F:\Microchip Solutions\ZigBee2006Res\microchip\ZigBeeStack\zZDO.C
                  __pa_44   0x006344    program     static F:\Microchip Solutions\ZigBee2006Res\microchip\ZigBeeStack\zZDO.C
                  __pa_45   0x00634a    program     static F:\Microchip Solutions\ZigBee2006Res\microchip\ZigBeeStack\zZDO.C
                  __pa_46   0x006350    program     static F:\Microchip Solutions\ZigBee2006Res\microchip\ZigBeeStack\zZDO.C
                  __pa_47   0x006374    program     static F:\Microchip Solutions\ZigBee2006Res\microchip\ZigBeeStack\zZDO.C
                  __pa_48   0x006380    program     static F:\Microchip Solutions\ZigBee2006Res\microchip\ZigBeeStack\zZDO.C
                  __pa_49   0x006386    program     static F:\Microchip Solutions\ZigBee2006Res\microchip\ZigBeeStack\zZDO.C
                  __pa_50   0x0063a8    program     static F:\Microchip Solutions\ZigBee2006Res\microchip\ZigBeeStack\zZDO.C
                  __pa_51   0x0063b4    program     static F:\Microchip Solutions\ZigBee2006Res\microchip\ZigBeeStack\zZDO.C
                  __pa_52   0x0063ba    program     static F:\Microchip Solutions\ZigBee2006Res\microchip\ZigBeeStack\zZDO.C
                  __pa_53   0x0063d8    program     static F:\Microchip Solutions\ZigBee2006Res\microchip\ZigBeeStack\zZDO.C
                  __pa_54   0x0063ec    program     static F:\Microchip Solutions\ZigBee2006Res\microchip\ZigBeeStack\zZDO.C
                  __pa_55   0x0063fa    program     static F:\Microchip Solutions\ZigBee2006Res\microchip\ZigBeeStack\zZDO.C
                  __pa_56   0x006408    program     static F:\Microchip Solutions\ZigBee2006Res\microchip\ZigBeeStack\zZDO.C
                  __pa_57   0x00640e    program     static F:\Microchip Solutions\ZigBee2006Res\microchip\ZigBeeStack\zZDO.C
                  __pa_58   0x00641e    program     static F:\Microchip Solutions\ZigBee2006Res\microchip\ZigBeeStack\zZDO.C
                  __pa_59   0x00642e    program     static F:\Microchip Solutions\ZigBee2006Res\microchip\ZigBeeStack\zZDO.C
                  __pa_60   0x006444    program     static F:\Microchip Solutions\ZigBee2006Res\microchip\ZigBeeStack\zZDO.C
                  __pa_61   0x00644e    program     static F:\Microchip Solutions\ZigBee2006Res\microchip\ZigBeeStack\zZDO.C
                  __pa_62   0x006454    program     static F:\Microchip Solutions\ZigBee2006Res\microchip\ZigBeeStack\zZDO.C
                  __pa_63   0x006460    program     static F:\Microchip Solutions\ZigBee2006Res\microchip\ZigBeeStack\zZDO.C
                  __pa_64   0x006468    program     static F:\Microchip Solutions\ZigBee2006Res\microchip\ZigBeeStack\zZDO.C
                  __pa_65   0x00646e    program     static F:\Microchip Solutions\ZigBee2006Res\microchip\ZigBeeStack\zZDO.C
                  __pa_66   0x006484    program     static F:\Microchip Solutions\ZigBee2006Res\microchip\ZigBeeStack\zZDO.C
                  __pa_67   0x006494    program     static F:\Microchip Solutions\ZigBee2006Res\microchip\ZigBeeStack\zZDO.C
                  __pa_68   0x0064a0    program     static F:\Microchip Solutions\ZigBee2006Res\microchip\ZigBeeStack\zZDO.C
                  __pa_69   0x0064ae    program     static F:\Microchip Solutions\ZigBee2006Res\microchip\ZigBeeStack\zZDO.C
                  __pa_70   0x0064b6    program     static F:\Microchip Solutions\ZigBee2006Res\microchip\ZigBeeStack\zZDO.C
                  __pa_71   0x0064be    program     static F:\Microchip Solutions\ZigBee2006Res\microchip\ZigBeeStack\zZDO.C
                  __pa_72   0x0064cc    program     static F:\Microchip Solutions\ZigBee2006Res\microchip\ZigBeeStack\zZDO.C
                  __pa_73   0x0064da    program     static F:\Microchip Solutions\ZigBee2006Res\microchip\ZigBeeStack\zZDO.C
                  __pa_74   0x0064e0    program     static F:\Microchip Solutions\ZigBee2006Res\microchip\ZigBeeStack\zZDO.C
                  __pa_75   0x0064e8    program     static F:\Microchip Solutions\ZigBee2006Res\microchip\ZigBeeStack\zZDO.C
                  __pa_76   0x0064f6    program     static F:\Microchip Solutions\ZigBee2006Res\microchip\ZigBeeStack\zZDO.C
                  __pa_77   0x0064fe    program     static F:\Microchip Solutions\ZigBee2006Res\microchip\ZigBeeStack\zZDO.C
                  __pa_78   0x00650c    program     static F:\Microchip Solutions\ZigBee2006Res\microchip\ZigBeeStack\zZDO.C
                  __pa_79   0x00651c    program     static F:\Microchip Solutions\ZigBee2006Res\microchip\ZigBeeStack\zZDO.C
                  __pa_80   0x00652c    program     static F:\Microchip Solutions\ZigBee2006Res\microchip\ZigBeeStack\zZDO.C
                  __pa_81   0x00653a    program     static F:\Microchip Solutions\ZigBee2006Res\microchip\ZigBeeStack\zZDO.C
                  __pa_82   0x006546    program     static F:\Microchip Solutions\ZigBee2006Res\microchip\ZigBeeStack\zZDO.C
                  __pa_83   0x006558    program     static F:\Microchip Solutions\ZigBee2006Res\microchip\ZigBeeStack\zZDO.C
                  __pa_84   0x00656a    program     static F:\Microchip Solutions\ZigBee2006Res\microchip\ZigBeeStack\zZDO.C
                  __pa_85   0x006574    program     static F:\Microchip Solutions\ZigBee2006Res\microchip\ZigBeeStack\zZDO.C
                  __pa_86   0x006586    program     static F:\Microchip Solutions\ZigBee2006Res\microchip\ZigBeeStack\zZDO.C
                  __pa_87   0x006598    program     static F:\Microchip Solutions\ZigBee2006Res\microchip\ZigBeeStack\zZDO.C
                  __pa_88   0x0065aa    program     static F:\Microchip Solutions\ZigBee2006Res\microchip\ZigBeeStack\zZDO.C
                  __pa_89   0x0065bc    program     static F:\Microchip Solutions\ZigBee2006Res\microchip\ZigBeeStack\zZDO.C
                  __pa_90   0x0065ce    program     static F:\Microchip Solutions\ZigBee2006Res\microchip\ZigBeeStack\zZDO.C
                  __pa_91   0x0065d8    program     static F:\Microchip Solutions\ZigBee2006Res\microchip\ZigBeeStack\zZDO.C
                  __pa_92   0x0065e2    program     static F:\Microchip Solutions\ZigBee2006Res\microchip\ZigBeeStack\zZDO.C
                  __pa_93   0x0065e8    program     static F:\Microchip Solutions\ZigBee2006Res\microchip\ZigBeeStack\zZDO.C
                  __pa_94   0x0065f0    program     static F:\Microchip Solutions\ZigBee2006Res\microchip\ZigBeeStack\zZDO.C
                  __pa_95   0x0065fc    program     static F:\Microchip Solutions\ZigBee2006Res\microchip\ZigBeeStack\zZDO.C
                  __pa_96   0x006608    program     static F:\Microchip Solutions\ZigBee2006Res\microchip\ZigBeeStack\zZDO.C
                  __pa_97   0x006614    program     static F:\Microchip Solutions\ZigBee2006Res\microchip\ZigBeeStack\zZDO.C
                  __pa_98   0x006620    program     static F:\Microchip Solutions\ZigBee2006Res\microchip\ZigBeeStack\zZDO.C
                  __pa_99   0x006628    program     static F:\Microchip Solutions\ZigBee2006Res\microchip\ZigBeeStack\zZDO.C
                 __pa_100   0x006634    program     static F:\Microchip Solutions\ZigBee2006Res\microchip\ZigBeeStack\zZDO.C
                 __pa_101   0x006644    program     static F:\Microchip Solutions\ZigBee2006Res\microchip\ZigBeeStack\zZDO.C
                 __pa_102   0x00664e    program     static F:\Microchip Solutions\ZigBee2006Res\microchip\ZigBeeStack\zZDO.C
                 __pa_103   0x006656    program     static F:\Microchip Solutions\ZigBee2006Res\microchip\ZigBeeStack\zZDO.C
                 __pa_104   0x00665e    program     static F:\Microchip Solutions\ZigBee2006Res\microchip\ZigBeeStack\zZDO.C
                 __pa_105   0x006666    program     static F:\Microchip Solutions\ZigBee2006Res\microchip\ZigBeeStack\zZDO.C
                 __pa_106   0x00666e    program     static F:\Microchip Solutions\ZigBee2006Res\microchip\ZigBeeStack\zZDO.C
                 __pa_107   0x006676    program     static F:\Microchip Solutions\ZigBee2006Res\microchip\ZigBeeStack\zZDO.C
                 __pa_108   0x006684    program     static F:\Microchip Solutions\ZigBee2006Res\microchip\ZigBeeStack\zZDO.C
                 __pa_109   0x006692    program     static F:\Microchip Solutions\ZigBee2006Res\microchip\ZigBeeStack\zZDO.C
                 __pa_110   0x0066a0    program     static F:\Microchip Solutions\ZigBee2006Res\microchip\ZigBeeStack\zZDO.C
                 __pa_111   0x0066ae    program     static F:\Microchip Solutions\ZigBee2006Res\microchip\ZigBeeStack\zZDO.C
                 __pa_112   0x0066b6    program     static F:\Microchip Solutions\ZigBee2006Res\microchip\ZigBeeStack\zZDO.C
                 __pa_113   0x0066c4    program     static F:\Microchip Solutions\ZigBee2006Res\microchip\ZigBeeStack\zZDO.C
                 __pa_114   0x0066d2    program     static F:\Microchip Solutions\ZigBee2006Res\microchip\ZigBeeStack\zZDO.C
                 __pa_115   0x0066e0    program     static F:\Microchip Solutions\ZigBee2006Res\microchip\ZigBeeStack\zZDO.C
                 __pa_116   0x0066ee    program     static F:\Microchip Solutions\ZigBee2006Res\microchip\ZigBeeStack\zZDO.C
                 __pa_117   0x0066f6    program     static F:\Microchip Solutions\ZigBee2006Res\microchip\ZigBeeStack\zZDO.C
                 __pa_118   0x0066fe    program     static F:\Microchip Solutions\ZigBee2006Res\microchip\ZigBeeStack\zZDO.C
                 __pa_119   0x006708    program     static F:\Microchip Solutions\ZigBee2006Res\microchip\ZigBeeStack\zZDO.C
                 __pa_120   0x006712    program     static F:\Microchip Solutions\ZigBee2006Res\microchip\ZigBeeStack\zZDO.C
                 __pa_121   0x00671c    program     static F:\Microchip Solutions\ZigBee2006Res\microchip\ZigBeeStack\zZDO.C
                 __pa_122   0x006724    program     static F:\Microchip Solutions\ZigBee2006Res\microchip\ZigBeeStack\zZDO.C
                 __pa_123   0x00672c    program     static F:\Microchip Solutions\ZigBee2006Res\microchip\ZigBeeStack\zZDO.C
                 __pa_124   0x006736    program     static F:\Microchip Solutions\ZigBee2006Res\microchip\ZigBeeStack\zZDO.C
                 __pa_125   0x006740    program     static F:\Microchip Solutions\ZigBee2006Res\microchip\ZigBeeStack\zZDO.C
                 __pa_126   0x006748    program     static F:\Microchip Solutions\ZigBee2006Res\microchip\ZigBeeStack\zZDO.C
                 __pa_127   0x006756    program     static F:\Microchip Solutions\ZigBee2006Res\microchip\ZigBeeStack\zZDO.C
                 __pa_128   0x00675c    program     static F:\Microchip Solutions\ZigBee2006Res\microchip\ZigBeeStack\zZDO.C
                 __pa_129   0x006764    program     static F:\Microchip Solutions\ZigBee2006Res\microchip\ZigBeeStack\zZDO.C
                 __pa_130   0x00676a    program     static F:\Microchip Solutions\ZigBee2006Res\microchip\ZigBeeStack\zZDO.C
                 __pa_131   0x006770    program     static F:\Microchip Solutions\ZigBee2006Res\microchip\ZigBeeStack\zZDO.C
                 __pa_132   0x006776    program     static F:\Microchip Solutions\ZigBee2006Res\microchip\ZigBeeStack\zZDO.C
                 __pa_133   0x00677c    program     static F:\Microchip Solutions\ZigBee2006Res\microchip\ZigBeeStack\zZDO.C
                 __pa_134   0x006792    program     static F:\Microchip Solutions\ZigBee2006Res\microchip\ZigBeeStack\zZDO.C
                 __pa_135   0x00679c    program     static F:\Microchip Solutions\ZigBee2006Res\microchip\ZigBeeStack\zZDO.C
                 __pa_136   0x0067bc    program     static F:\Microchip Solutions\ZigBee2006Res\microchip\ZigBeeStack\zZDO.C
                 __pa_137   0x0067d6    program     static F:\Microchip Solutions\ZigBee2006Res\microchip\ZigBeeStack\zZDO.C
                 __pa_138   0x0067e2    program     static F:\Microchip Solutions\ZigBee2006Res\microchip\ZigBeeStack\zZDO.C
                 __pa_139   0x0067ec    program     static F:\Microchip Solutions\ZigBee2006Res\microchip\ZigBeeStack\zZDO.C
                 __pa_140   0x006804    program     static F:\Microchip Solutions\ZigBee2006Res\microchip\ZigBeeStack\zZDO.C
                 __pa_141   0x006812    program     static F:\Microchip Solutions\ZigBee2006Res\microchip\ZigBeeStack\zZDO.C
                 __pa_142   0x006818    program     static F:\Microchip Solutions\ZigBee2006Res\microchip\ZigBeeStack\zZDO.C
                 __pa_143   0x006824    program     static F:\Microchip Solutions\ZigBee2006Res\microchip\ZigBeeStack\zZDO.C
                 __pa_144   0x00682e    program     static F:\Microchip Solutions\ZigBee2006Res\microchip\ZigBeeStack\zZDO.C
                 __pa_145   0x006832    program     static F:\Microchip Solutions\ZigBee2006Res\microchip\ZigBeeStack\zZDO.C
                 __pa_146   0x00683c    program     static F:\Microchip Solutions\ZigBee2006Res\microchip\ZigBeeStack\zZDO.C
                 __pa_147   0x006842    program     static F:\Microchip Solutions\ZigBee2006Res\microchip\ZigBeeStack\zZDO.C
                 __pa_148   0x006848    program     static F:\Microchip Solutions\ZigBee2006Res\microchip\ZigBeeStack\zZDO.C
                 __pa_149   0x00685a    program     static F:\Microchip Solutions\ZigBee2006Res\microchip\ZigBeeStack\zZDO.C
                 __pa_150   0x006864    program     static F:\Microchip Solutions\ZigBee2006Res\microchip\ZigBeeStack\zZDO.C
                 __pa_151   0x00686e    program     static F:\Microchip Solutions\ZigBee2006Res\microchip\ZigBeeStack\zZDO.C
                 __pa_152   0x006874    program     static F:\Microchip Solutions\ZigBee2006Res\microchip\ZigBeeStack\zZDO.C
                 __pa_153   0x00687e    program     static F:\Microchip Solutions\ZigBee2006Res\microchip\ZigBeeStack\zZDO.C
                 __pa_154   0x00688e    program     static F:\Microchip Solutions\ZigBee2006Res\microchip\ZigBeeStack\zZDO.C
                 __pa_155   0x00689a    program     static F:\Microchip Solutions\ZigBee2006Res\microchip\ZigBeeStack\zZDO.C
                 __pa_156   0x0068a4    program     static F:\Microchip Solutions\ZigBee2006Res\microchip\ZigBeeStack\zZDO.C
                 __pa_157   0x0068ac    program     static F:\Microchip Solutions\ZigBee2006Res\microchip\ZigBeeStack\zZDO.C
                 __pa_158   0x0068b6    program     static F:\Microchip Solutions\ZigBee2006Res\microchip\ZigBeeStack\zZDO.C
                 __pa_159   0x0068c6    program     static F:\Microchip Solutions\ZigBee2006Res\microchip\ZigBeeStack\zZDO.C
                 __pa_160   0x0068ce    program     static F:\Microchip Solutions\ZigBee2006Res\microchip\ZigBeeStack\zZDO.C
                 __pa_161   0x0068e0    program     static F:\Microchip Solutions\ZigBee2006Res\microchip\ZigBeeStack\zZDO.C
                 __pa_162   0x0068ee    program     static F:\Microchip Solutions\ZigBee2006Res\microchip\ZigBeeStack\zZDO.C
                 __pa_163   0x0068fa    program     static F:\Microchip Solutions\ZigBee2006Res\microchip\ZigBeeStack\zZDO.C
                 __pa_164   0x006906    program     static F:\Microchip Solutions\ZigBee2006Res\microchip\ZigBeeStack\zZDO.C
                 __pa_165   0x00690e    program     static F:\Microchip Solutions\ZigBee2006Res\microchip\ZigBeeStack\zZDO.C
                 __pa_166   0x006914    program     static F:\Microchip Solutions\ZigBee2006Res\microchip\ZigBeeStack\zZDO.C
                 __pa_167   0x00691e    program     static F:\Microchip Solutions\ZigBee2006Res\microchip\ZigBeeStack\zZDO.C
                 __pa_168   0x006926    program     static F:\Microchip Solutions\ZigBee2006Res\microchip\ZigBeeStack\zZDO.C
                 __pa_169   0x006932    program     static F:\Microchip Solutions\ZigBee2006Res\microchip\ZigBeeStack\zZDO.C
                 __pa_170   0x00693e    program     static F:\Microchip Solutions\ZigBee2006Res\microchip\ZigBeeStack\zZDO.C
                 __pa_171   0x006944    program     static F:\Microchip Solutions\ZigBee2006Res\microchip\ZigBeeStack\zZDO.C
                 __pa_172   0x00694a    program     static F:\Microchip Solutions\ZigBee2006Res\microchip\ZigBeeStack\zZDO.C
                 __pa_173   0x006958    program     static F:\Microchip Solutions\ZigBee2006Res\microchip\ZigBeeStack\zZDO.C
                 __pa_174   0x006966    program     static F:\Microchip Solutions\ZigBee2006Res\microchip\ZigBeeStack\zZDO.C
                 __pa_175   0x006974    program     static F:\Microchip Solutions\ZigBee2006Res\microchip\ZigBeeStack\zZDO.C
                 __pa_176   0x006982    program     static F:\Microchip Solutions\ZigBee2006Res\microchip\ZigBeeStack\zZDO.C
                 __pa_177   0x00698a    program     static F:\Microchip Solutions\ZigBee2006Res\microchip\ZigBeeStack\zZDO.C
                 __pa_178   0x006992    program     static F:\Microchip Solutions\ZigBee2006Res\microchip\ZigBeeStack\zZDO.C
                 __pa_179   0x00699c    program     static F:\Microchip Solutions\ZigBee2006Res\microchip\ZigBeeStack\zZDO.C
                 __pa_180   0x0069a4    program     static F:\Microchip Solutions\ZigBee2006Res\microchip\ZigBeeStack\zZDO.C
                 __pa_181   0x0069ac    program     static F:\Microchip Solutions\ZigBee2006Res\microchip\ZigBeeStack\zZDO.C
                 __pa_182   0x0069b2    program     static F:\Microchip Solutions\ZigBee2006Res\microchip\ZigBeeStack\zZDO.C
                 __pa_183   0x0069c4    program     static F:\Microchip Solutions\ZigBee2006Res\microchip\ZigBeeStack\zZDO.C
                 __pa_184   0x0069d6    program     static F:\Microchip Solutions\ZigBee2006Res\microchip\ZigBeeStack\zZDO.C
                 __pa_185   0x0069dc    program     static F:\Microchip Solutions\ZigBee2006Res\microchip\ZigBeeStack\zZDO.C
                 __pa_186   0x0069f0    program     static F:\Microchip Solutions\ZigBee2006Res\microchip\ZigBeeStack\zZDO.C
                 __pa_187   0x006a04    program     static F:\Microchip Solutions\ZigBee2006Res\microchip\ZigBeeStack\zZDO.C
                 __pa_188   0x006a0a    program     static F:\Microchip Solutions\ZigBee2006Res\microchip\ZigBeeStack\zZDO.C
                 __pa_189   0x006a10    program     static F:\Microchip Solutions\ZigBee2006Res\microchip\ZigBeeStack\zZDO.C
                 __pa_190   0x006a18    program     static F:\Microchip Solutions\ZigBee2006Res\microchip\ZigBeeStack\zZDO.C
                 __pa_191   0x006a22    program     static F:\Microchip Solutions\ZigBee2006Res\microchip\ZigBeeStack\zZDO.C
                 __pa_192   0x006a2c    program     static F:\Microchip Solutions\ZigBee2006Res\microchip\ZigBeeStack\zZDO.C
                 __pa_193   0x006a3a    program     static F:\Microchip Solutions\ZigBee2006Res\microchip\ZigBeeStack\zZDO.C
                 __pa_194   0x006a48    program     static F:\Microchip Solutions\ZigBee2006Res\microchip\ZigBeeStack\zZDO.C
                 __pa_195   0x006a4e    program     static F:\Microchip Solutions\ZigBee2006Res\microchip\ZigBeeStack\zZDO.C
                 __pa_196   0x006a5e    program     static F:\Microchip Solutions\ZigBee2006Res\microchip\ZigBeeStack\zZDO.C
                 __pa_197   0x006a68    program     static F:\Microchip Solutions\ZigBee2006Res\microchip\ZigBeeStack\zZDO.C
                 __pa_198   0x006a70    program     static F:\Microchip Solutions\ZigBee2006Res\microchip\ZigBeeStack\zZDO.C
                 __pa_199   0x006a78    program     static F:\Microchip Solutions\ZigBee2006Res\microchip\ZigBeeStack\zZDO.C
                 __pa_200   0x006a7e    program     static F:\Microchip Solutions\ZigBee2006Res\microchip\ZigBeeStack\zZDO.C
                 __pa_201   0x006a84    program     static F:\Microchip Solutions\ZigBee2006Res\microchip\ZigBeeStack\zZDO.C
                 __pa_202   0x006a8a    program     static F:\Microchip Solutions\ZigBee2006Res\microchip\ZigBeeStack\zZDO.C
                 __pa_203   0x006a94    program     static F:\Microchip Solutions\ZigBee2006Res\microchip\ZigBeeStack\zZDO.C
                 __pa_204   0x006a9a    program     static F:\Microchip Solutions\ZigBee2006Res\microchip\ZigBeeStack\zZDO.C
                 __pa_205   0x006aa0    program     static F:\Microchip Solutions\ZigBee2006Res\microchip\ZigBeeStack\zZDO.C
                 __pa_206   0x006aae    program     static F:\Microchip Solutions\ZigBee2006Res\microchip\ZigBeeStack\zZDO.C
                 __pa_207   0x006abc    program     static F:\Microchip Solutions\ZigBee2006Res\microchip\ZigBeeStack\zZDO.C
                 __pa_208   0x006ac8    program     static F:\Microchip Solutions\ZigBee2006Res\microchip\ZigBeeStack\zZDO.C
             __tmplbl_210   0x006ac8    program     static                          
                 __pa_209   0x006ad4    program     static F:\Microchip Solutions\ZigBee2006Res\microchip\ZigBeeStack\zZDO.C
                 __pa_210   0x006ade    program     static F:\Microchip Solutions\ZigBee2006Res\microchip\ZigBeeStack\zZDO.C
                 __pa_211   0x006ae8    program     static F:\Microchip Solutions\ZigBee2006Res\microchip\ZigBeeStack\zZDO.C
                 __pa_212   0x006af4    program     static F:\Microchip Solutions\ZigBee2006Res\microchip\ZigBeeStack\zZDO.C
                 __pa_213   0x006b02    program     static F:\Microchip Solutions\ZigBee2006Res\microchip\ZigBeeStack\zZDO.C
                 __pa_214   0x006b0a    program     static F:\Microchip Solutions\ZigBee2006Res\microchip\ZigBeeStack\zZDO.C
                 __pa_215   0x006b14    program     static F:\Microchip Solutions\ZigBee2006Res\microchip\ZigBeeStack\zZDO.C
                 __pa_216   0x006b1c    program     static F:\Microchip Solutions\ZigBee2006Res\microchip\ZigBeeStack\zZDO.C
                 __pa_217   0x006b26    program     static F:\Microchip Solutions\ZigBee2006Res\microchip\ZigBeeStack\zZDO.C
                 __pa_218   0x006b2e    program     static F:\Microchip Solutions\ZigBee2006Res\microchip\ZigBeeStack\zZDO.C
                 __pa_219   0x006b38    program     static F:\Microchip Solutions\ZigBee2006Res\microchip\ZigBeeStack\zZDO.C
                 __pa_220   0x006b42    program     static F:\Microchip Solutions\ZigBee2006Res\microchip\ZigBeeStack\zZDO.C
                 __pa_221   0x006b48    program     static F:\Microchip Solutions\ZigBee2006Res\microchip\ZigBeeStack\zZDO.C
    APSHasBackgroundTasks   0x006b4e    program     extern F:\Microchip Solutions\ZigBee2006Res\microchip\ZigBeeStack\zAPS.c
                  APSInit   0x006b5a    program     extern F:\Microchip Solutions\ZigBee2006Res\microchip\ZigBeeStack\zAPS.c
                 APSTasks   0x006cbe    program     extern F:\Microchip Solutions\ZigBee2006Res\microchip\ZigBeeStack\zAPS.c
              __tmplbl_92   0x007644    program     static                          
              __tmplbl_91   0x007648    program     static                          
              __tmplbl_94   0x007648    program     static                          
             __tmplbl_110   0x007bcc    program     static                          
             __tmplbl_109   0x007bdc    program     static                          
             __tmplbl_108   0x007bec    program     static                          
             __tmplbl_107   0x007c00    program     static                          
             __tmplbl_106   0x007c88    program     static                          
             __tmplbl_105   0x007c98    program     static                          
             __tmplbl_104   0x007c98    program     static                          
             __tmplbl_103   0x007c98    program     static                          
             __tmplbl_112   0x007c98    program     static                          
             __tmplbl_113   0x007c98    program     static                          
             __tmplbl_119   0x007c9a    program     static                          
        APSAddBindingInfo   0x007cae    program     extern F:\Microchip Solutions\ZigBee2006Res\microchip\ZigBeeStack\zAPS.c
  APSClearAPSAddressTable   0x007fac    program     extern F:\Microchip Solutions\ZigBee2006Res\microchip\ZigBeeStack\zAPS.c
                   APSGet   0x007fee    program     extern F:\Microchip Solutions\ZigBee2006Res\microchip\ZigBeeStack\zAPS.c
     APSRemoveBindingInfo   0x00800a    program     extern F:\Microchip Solutions\ZigBee2006Res\microchip\ZigBeeStack\zAPS.c
         LookupAPSAddress   0x00817a    program     extern F:\Microchip Solutions\ZigBee2006Res\microchip\ZigBeeStack\zAPS.c
        APSSaveAPSAddress   0x0081ce    program     extern F:\Microchip Solutions\ZigBee2006Res\microchip\ZigBeeStack\zAPS.c
     LookupAPSLongAddress   0x008256    program     extern F:\Microchip Solutions\ZigBee2006Res\microchip\ZigBeeStack\zAPS.c
  LookupSourceBindingInfo   0x008298    program     extern F:\Microchip Solutions\ZigBee2006Res\microchip\ZigBeeStack\zAPS.c
        RemoveAllBindings   0x00831e    program     extern F:\Microchip Solutions\ZigBee2006Res\microchip\ZigBeeStack\zAPS.c
       APSFromShortToLong   0x008520    program     extern F:\Microchip Solutions\ZigBee2006Res\microchip\ZigBeeStack\zAPS.c
       APSFromLongToShort   0x00857a    program     extern F:\Microchip Solutions\ZigBee2006Res\microchip\ZigBeeStack\zAPS.c
          DuplicatePacket   0x0085a6    program     extern F:\Microchip Solutions\ZigBee2006Res\microchip\ZigBeeStack\zAPS.c
    GetEndPointsFromGroup   0x008644    program     extern F:\Microchip Solutions\ZigBee2006Res\microchip\ZigBeeStack\zAPS.c
            GetEmptyGroup   0x00867a    program     extern F:\Microchip Solutions\ZigBee2006Res\microchip\ZigBeeStack\zAPS.c
                 AddGroup   0x0086a6    program     extern F:\Microchip Solutions\ZigBee2006Res\microchip\ZigBeeStack\zAPS.c
              RemoveGroup   0x008740    program     extern F:\Microchip Solutions\ZigBee2006Res\microchip\ZigBeeStack\zAPS.c
          RemoveAllGroups   0x008812    program     extern F:\Microchip Solutions\ZigBee2006Res\microchip\ZigBeeStack\zAPS.c
                   __pa_0   0x008858    program     static F:\Microchip Solutions\ZigBee2006Res\microchip\ZigBeeStack\zAPS.c
                   __pa_1   0x00885c    program     static F:\Microchip Solutions\ZigBee2006Res\microchip\ZigBeeStack\zAPS.c
                   __pa_2   0x008860    program     static F:\Microchip Solutions\ZigBee2006Res\microchip\ZigBeeStack\zAPS.c
                   __pa_3   0x008864    program     static F:\Microchip Solutions\ZigBee2006Res\microchip\ZigBeeStack\zAPS.c
                   __pa_4   0x008872    program     static F:\Microchip Solutions\ZigBee2006Res\microchip\ZigBeeStack\zAPS.c
                   __pa_5   0x008878    program     static F:\Microchip Solutions\ZigBee2006Res\microchip\ZigBeeStack\zAPS.c
                   __pa_6   0x008882    program     static F:\Microchip Solutions\ZigBee2006Res\microchip\ZigBeeStack\zAPS.c
                   __pa_7   0x00888a    program     static F:\Microchip Solutions\ZigBee2006Res\microchip\ZigBeeStack\zAPS.c
                   __pa_8   0x008894    program     static F:\Microchip Solutions\ZigBee2006Res\microchip\ZigBeeStack\zAPS.c
                   __pa_9   0x0088aa    program     static F:\Microchip Solutions\ZigBee2006Res\microchip\ZigBeeStack\zAPS.c
                  __pa_10   0x0088b6    program     static F:\Microchip Solutions\ZigBee2006Res\microchip\ZigBeeStack\zAPS.c
                  __pa_11   0x0088de    program     static F:\Microchip Solutions\ZigBee2006Res\microchip\ZigBeeStack\zAPS.c
                  __pa_12   0x0088e6    program     static F:\Microchip Solutions\ZigBee2006Res\microchip\ZigBeeStack\zAPS.c
                  __pa_13   0x0088ec    program     static F:\Microchip Solutions\ZigBee2006Res\microchip\ZigBeeStack\zAPS.c
                  __pa_14   0x0088f4    program     static F:\Microchip Solutions\ZigBee2006Res\microchip\ZigBeeStack\zAPS.c
             __tmplbl_134   0x0088f4    program     static                          
             __tmplbl_135   0x0088f4    program     static                          
             __tmplbl_136   0x0088f4    program     static                          
              __tmplbl_87   0x0088f4    program     static                          
                  __pa_15   0x008900    program     static F:\Microchip Solutions\ZigBee2006Res\microchip\ZigBeeStack\zAPS.c
                  __pa_16   0x008912    program     static F:\Microchip Solutions\ZigBee2006Res\microchip\ZigBeeStack\zAPS.c
                  __pa_17   0x008924    program     static F:\Microchip Solutions\ZigBee2006Res\microchip\ZigBeeStack\zAPS.c
                  __pa_18   0x008938    program     static F:\Microchip Solutions\ZigBee2006Res\microchip\ZigBeeStack\zAPS.c
                  __pa_19   0x008950    program     static F:\Microchip Solutions\ZigBee2006Res\microchip\ZigBeeStack\zAPS.c
                  __pa_20   0x008958    program     static F:\Microchip Solutions\ZigBee2006Res\microchip\ZigBeeStack\zAPS.c
                  __pa_21   0x00895e    program     static F:\Microchip Solutions\ZigBee2006Res\microchip\ZigBeeStack\zAPS.c
                  __pa_22   0x00896c    program     static F:\Microchip Solutions\ZigBee2006Res\microchip\ZigBeeStack\zAPS.c
                  __pa_23   0x008974    program     static F:\Microchip Solutions\ZigBee2006Res\microchip\ZigBeeStack\zAPS.c
                  __pa_24   0x008982    program     static F:\Microchip Solutions\ZigBee2006Res\microchip\ZigBeeStack\zAPS.c
                  __pa_25   0x00898a    program     static F:\Microchip Solutions\ZigBee2006Res\microchip\ZigBeeStack\zAPS.c
                  __pa_26   0x008992    program     static F:\Microchip Solutions\ZigBee2006Res\microchip\ZigBeeStack\zAPS.c
                  __pa_27   0x00899a    program     static F:\Microchip Solutions\ZigBee2006Res\microchip\ZigBeeStack\zAPS.c
                  __pa_28   0x0089a0    program     static F:\Microchip Solutions\ZigBee2006Res\microchip\ZigBeeStack\zAPS.c
                  __pa_29   0x0089ae    program     static F:\Microchip Solutions\ZigBee2006Res\microchip\ZigBeeStack\zAPS.c
                  __pa_30   0x0089b6    program     static F:\Microchip Solutions\ZigBee2006Res\microchip\ZigBeeStack\zAPS.c
                  __pa_31   0x0089be    program     static F:\Microchip Solutions\ZigBee2006Res\microchip\ZigBeeStack\zAPS.c
                  __pa_32   0x0089c6    program     static F:\Microchip Solutions\ZigBee2006Res\microchip\ZigBeeStack\zAPS.c
                  __pa_33   0x0089d4    program     static F:\Microchip Solutions\ZigBee2006Res\microchip\ZigBeeStack\zAPS.c
                  __pa_34   0x0089ec    program     static F:\Microchip Solutions\ZigBee2006Res\microchip\ZigBeeStack\zAPS.c
                  __pa_35   0x0089f4    program     static F:\Microchip Solutions\ZigBee2006Res\microchip\ZigBeeStack\zAPS.c
                  __pa_36   0x0089fe    program     static F:\Microchip Solutions\ZigBee2006Res\microchip\ZigBeeStack\zAPS.c
                  __pa_37   0x008a20    program     static F:\Microchip Solutions\ZigBee2006Res\microchip\ZigBeeStack\zAPS.c
                  __pa_38   0x008a3a    program     static F:\Microchip Solutions\ZigBee2006Res\microchip\ZigBeeStack\zAPS.c
                  __pa_39   0x008a40    program     static F:\Microchip Solutions\ZigBee2006Res\microchip\ZigBeeStack\zAPS.c
                  __pa_40   0x008a48    program     static F:\Microchip Solutions\ZigBee2006Res\microchip\ZigBeeStack\zAPS.c
                  __pa_41   0x008a52    program     static F:\Microchip Solutions\ZigBee2006Res\microchip\ZigBeeStack\zAPS.c
                  __pa_42   0x008a64    program     static F:\Microchip Solutions\ZigBee2006Res\microchip\ZigBeeStack\zAPS.c
                  __pa_43   0x008a72    program     static F:\Microchip Solutions\ZigBee2006Res\microchip\ZigBeeStack\zAPS.c
                  __pa_44   0x008a7a    program     static F:\Microchip Solutions\ZigBee2006Res\microchip\ZigBeeStack\zAPS.c
                  __pa_45   0x008a8a    program     static F:\Microchip Solutions\ZigBee2006Res\microchip\ZigBeeStack\zAPS.c
                  __pa_46   0x008a9a    program     static F:\Microchip Solutions\ZigBee2006Res\microchip\ZigBeeStack\zAPS.c
                  __pa_47   0x008aa4    program     static F:\Microchip Solutions\ZigBee2006Res\microchip\ZigBeeStack\zAPS.c
                  __pa_48   0x008aac    program     static F:\Microchip Solutions\ZigBee2006Res\microchip\ZigBeeStack\zAPS.c
                  __pa_49   0x008ab8    program     static F:\Microchip Solutions\ZigBee2006Res\microchip\ZigBeeStack\zAPS.c
                  __pa_50   0x008ac0    program     static F:\Microchip Solutions\ZigBee2006Res\microchip\ZigBeeStack\zAPS.c
                  __pa_51   0x008ad6    program     static F:\Microchip Solutions\ZigBee2006Res\microchip\ZigBeeStack\zAPS.c
                  __pa_52   0x008ae4    program     static F:\Microchip Solutions\ZigBee2006Res\microchip\ZigBeeStack\zAPS.c
                  __pa_53   0x008aec    program     static F:\Microchip Solutions\ZigBee2006Res\microchip\ZigBeeStack\zAPS.c
                  __pa_54   0x008af4    program     static F:\Microchip Solutions\ZigBee2006Res\microchip\ZigBeeStack\zAPS.c
                  __pa_55   0x008afe    program     static F:\Microchip Solutions\ZigBee2006Res\microchip\ZigBeeStack\zAPS.c
                  __pa_56   0x008b02    program     static F:\Microchip Solutions\ZigBee2006Res\microchip\ZigBeeStack\zAPS.c
                  __pa_57   0x008b14    program     static F:\Microchip Solutions\ZigBee2006Res\microchip\ZigBeeStack\zAPS.c
                  __pa_58   0x008b26    program     static F:\Microchip Solutions\ZigBee2006Res\microchip\ZigBeeStack\zAPS.c
                  __pa_59   0x008b32    program     static F:\Microchip Solutions\ZigBee2006Res\microchip\ZigBeeStack\zAPS.c
                  __pa_60   0x008b3e    program     static F:\Microchip Solutions\ZigBee2006Res\microchip\ZigBeeStack\zAPS.c
                  __pa_61   0x008b50    program     static F:\Microchip Solutions\ZigBee2006Res\microchip\ZigBeeStack\zAPS.c
                  __pa_62   0x008b58    program     static F:\Microchip Solutions\ZigBee2006Res\microchip\ZigBeeStack\zAPS.c
                  __pa_63   0x008b60    program     static F:\Microchip Solutions\ZigBee2006Res\microchip\ZigBeeStack\zAPS.c
                  __pa_64   0x008b6c    program     static F:\Microchip Solutions\ZigBee2006Res\microchip\ZigBeeStack\zAPS.c
                  __pa_65   0x008b7c    program     static F:\Microchip Solutions\ZigBee2006Res\microchip\ZigBeeStack\zAPS.c
                  __pa_66   0x008b8c    program     static F:\Microchip Solutions\ZigBee2006Res\microchip\ZigBeeStack\zAPS.c
                  __pa_67   0x008b9c    program     static F:\Microchip Solutions\ZigBee2006Res\microchip\ZigBeeStack\zAPS.c
                  __pa_68   0x008ba2    program     static F:\Microchip Solutions\ZigBee2006Res\microchip\ZigBeeStack\zAPS.c
                  __pa_69   0x008bb0    program     static F:\Microchip Solutions\ZigBee2006Res\microchip\ZigBeeStack\zAPS.c
                  __pa_70   0x008bb8    program     static F:\Microchip Solutions\ZigBee2006Res\microchip\ZigBeeStack\zAPS.c
                  __pa_71   0x008bbe    program     static F:\Microchip Solutions\ZigBee2006Res\microchip\ZigBeeStack\zAPS.c
                  __pa_72   0x008bcc    program     static F:\Microchip Solutions\ZigBee2006Res\microchip\ZigBeeStack\zAPS.c
                  __pa_73   0x008bda    program     static F:\Microchip Solutions\ZigBee2006Res\microchip\ZigBeeStack\zAPS.c
                  __pa_74   0x008be2    program     static F:\Microchip Solutions\ZigBee2006Res\microchip\ZigBeeStack\zAPS.c
                  __pa_75   0x008bec    program     static F:\Microchip Solutions\ZigBee2006Res\microchip\ZigBeeStack\zAPS.c
                  __pa_76   0x008bfa    program     static F:\Microchip Solutions\ZigBee2006Res\microchip\ZigBeeStack\zAPS.c
                  __pa_77   0x008c00    program     static F:\Microchip Solutions\ZigBee2006Res\microchip\ZigBeeStack\zAPS.c
                  __pa_78   0x008c08    program     static F:\Microchip Solutions\ZigBee2006Res\microchip\ZigBeeStack\zAPS.c
                  __pa_79   0x008c12    program     static F:\Microchip Solutions\ZigBee2006Res\microchip\ZigBeeStack\zAPS.c
                  __pa_80   0x008c1a    program     static F:\Microchip Solutions\ZigBee2006Res\microchip\ZigBeeStack\zAPS.c
                  __pa_81   0x008c22    program     static F:\Microchip Solutions\ZigBee2006Res\microchip\ZigBeeStack\zAPS.c
                  __pa_82   0x008c28    program     static F:\Microchip Solutions\ZigBee2006Res\microchip\ZigBeeStack\zAPS.c
                  __pa_83   0x008c30    program     static F:\Microchip Solutions\ZigBee2006Res\microchip\ZigBeeStack\zAPS.c
                  __pa_84   0x008c38    program     static F:\Microchip Solutions\ZigBee2006Res\microchip\ZigBeeStack\zAPS.c
                  __pa_85   0x008c40    program     static F:\Microchip Solutions\ZigBee2006Res\microchip\ZigBeeStack\zAPS.c
                  __pa_86   0x008c46    program     static F:\Microchip Solutions\ZigBee2006Res\microchip\ZigBeeStack\zAPS.c
                  __pa_87   0x008c4c    program     static F:\Microchip Solutions\ZigBee2006Res\microchip\ZigBeeStack\zAPS.c
                  __pa_88   0x008c5c    program     static F:\Microchip Solutions\ZigBee2006Res\microchip\ZigBeeStack\zAPS.c
                  __pa_89   0x008c6c    program     static F:\Microchip Solutions\ZigBee2006Res\microchip\ZigBeeStack\zAPS.c
                  __pa_90   0x008c72    program     static F:\Microchip Solutions\ZigBee2006Res\microchip\ZigBeeStack\zAPS.c
                  __pa_91   0x008c78    program     static F:\Microchip Solutions\ZigBee2006Res\microchip\ZigBeeStack\zAPS.c
                  __pa_92   0x008c88    program     static F:\Microchip Solutions\ZigBee2006Res\microchip\ZigBeeStack\zAPS.c
                  __pa_93   0x008c94    program     static F:\Microchip Solutions\ZigBee2006Res\microchip\ZigBeeStack\zAPS.c
                  __pa_94   0x008c9a    program     static F:\Microchip Solutions\ZigBee2006Res\microchip\ZigBeeStack\zAPS.c
                  __pa_95   0x008cb0    program     static F:\Microchip Solutions\ZigBee2006Res\microchip\ZigBeeStack\zAPS.c
                  __pa_96   0x008cca    program     static F:\Microchip Solutions\ZigBee2006Res\microchip\ZigBeeStack\zAPS.c
                  __pa_97   0x008cd8    program     static F:\Microchip Solutions\ZigBee2006Res\microchip\ZigBeeStack\zAPS.c
                  __pa_98   0x008cea    program     static F:\Microchip Solutions\ZigBee2006Res\microchip\ZigBeeStack\zAPS.c
                  __pa_99   0x008cee    program     static F:\Microchip Solutions\ZigBee2006Res\microchip\ZigBeeStack\zAPS.c
                 __pa_100   0x008cfa    program     static F:\Microchip Solutions\ZigBee2006Res\microchip\ZigBeeStack\zAPS.c
                 __pa_101   0x008d02    program     static F:\Microchip Solutions\ZigBee2006Res\microchip\ZigBeeStack\zAPS.c
                 __pa_102   0x008d08    program     static F:\Microchip Solutions\ZigBee2006Res\microchip\ZigBeeStack\zAPS.c
                 __pa_103   0x008d0e    program     static F:\Microchip Solutions\ZigBee2006Res\microchip\ZigBeeStack\zAPS.c
                 __pa_104   0x008d2c    program     static F:\Microchip Solutions\ZigBee2006Res\microchip\ZigBeeStack\zAPS.c
                 __pa_105   0x008d3c    program     static F:\Microchip Solutions\ZigBee2006Res\microchip\ZigBeeStack\zAPS.c
                 __pa_106   0x008d54    program     static F:\Microchip Solutions\ZigBee2006Res\microchip\ZigBeeStack\zAPS.c
                 __pa_107   0x008d60    program     static F:\Microchip Solutions\ZigBee2006Res\microchip\ZigBeeStack\zAPS.c
                 __pa_108   0x008d6c    program     static F:\Microchip Solutions\ZigBee2006Res\microchip\ZigBeeStack\zAPS.c
                 __pa_109   0x008d74    program     static F:\Microchip Solutions\ZigBee2006Res\microchip\ZigBeeStack\zAPS.c
                 __pa_110   0x008d82    program     static F:\Microchip Solutions\ZigBee2006Res\microchip\ZigBeeStack\zAPS.c
                 __pa_111   0x008d96    program     static F:\Microchip Solutions\ZigBee2006Res\microchip\ZigBeeStack\zAPS.c
                 __pa_112   0x008d9c    program     static F:\Microchip Solutions\ZigBee2006Res\microchip\ZigBeeStack\zAPS.c
                 __pa_113   0x008da8    program     static F:\Microchip Solutions\ZigBee2006Res\microchip\ZigBeeStack\zAPS.c
                 __pa_114   0x008db6    program     static F:\Microchip Solutions\ZigBee2006Res\microchip\ZigBeeStack\zAPS.c
                 __pa_115   0x008dbe    program     static F:\Microchip Solutions\ZigBee2006Res\microchip\ZigBeeStack\zAPS.c
                 __pa_116   0x008dc8    program     static F:\Microchip Solutions\ZigBee2006Res\microchip\ZigBeeStack\zAPS.c
                 __pa_117   0x008dd2    program     static F:\Microchip Solutions\ZigBee2006Res\microchip\ZigBeeStack\zAPS.c
                 __pa_118   0x008dd8    program     static F:\Microchip Solutions\ZigBee2006Res\microchip\ZigBeeStack\zAPS.c
                 __pa_119   0x008de0    program     static F:\Microchip Solutions\ZigBee2006Res\microchip\ZigBeeStack\zAPS.c
                 __pa_120   0x008de8    program     static F:\Microchip Solutions\ZigBee2006Res\microchip\ZigBeeStack\zAPS.c
                 __pa_121   0x008df0    program     static F:\Microchip Solutions\ZigBee2006Res\microchip\ZigBeeStack\zAPS.c
                 __pa_122   0x008df8    program     static F:\Microchip Solutions\ZigBee2006Res\microchip\ZigBeeStack\zAPS.c
                 __pa_123   0x008e06    program     static F:\Microchip Solutions\ZigBee2006Res\microchip\ZigBeeStack\zAPS.c
                 __pa_124   0x008e0c    program     static F:\Microchip Solutions\ZigBee2006Res\microchip\ZigBeeStack\zAPS.c
                 __pa_125   0x008e18    program     static F:\Microchip Solutions\ZigBee2006Res\microchip\ZigBeeStack\zAPS.c
                 __pa_126   0x008e1e    program     static F:\Microchip Solutions\ZigBee2006Res\microchip\ZigBeeStack\zAPS.c
                 __pa_127   0x008e2a    program     static F:\Microchip Solutions\ZigBee2006Res\microchip\ZigBeeStack\zAPS.c
                 __pa_128   0x008e36    program     static F:\Microchip Solutions\ZigBee2006Res\microchip\ZigBeeStack\zAPS.c
                 __pa_129   0x008e42    program     static F:\Microchip Solutions\ZigBee2006Res\microchip\ZigBeeStack\zAPS.c
                 __pa_130   0x008e50    program     static F:\Microchip Solutions\ZigBee2006Res\microchip\ZigBeeStack\zAPS.c
                 __pa_131   0x008e5e    program     static F:\Microchip Solutions\ZigBee2006Res\microchip\ZigBeeStack\zAPS.c
                 __pa_132   0x008e68    program     static F:\Microchip Solutions\ZigBee2006Res\microchip\ZigBeeStack\zAPS.c
                 __pa_133   0x008e70    program     static F:\Microchip Solutions\ZigBee2006Res\microchip\ZigBeeStack\zAPS.c
                 __pa_134   0x008e78    program     static F:\Microchip Solutions\ZigBee2006Res\microchip\ZigBeeStack\zAPS.c
                 __pa_135   0x008e80    program     static F:\Microchip Solutions\ZigBee2006Res\microchip\ZigBeeStack\zAPS.c
                 __pa_136   0x008e88    program     static F:\Microchip Solutions\ZigBee2006Res\microchip\ZigBeeStack\zAPS.c
                 __pa_137   0x008e8e    program     static F:\Microchip Solutions\ZigBee2006Res\microchip\ZigBeeStack\zAPS.c
                 __pa_138   0x008e96    program     static F:\Microchip Solutions\ZigBee2006Res\microchip\ZigBeeStack\zAPS.c
                 __pa_139   0x008e9e    program     static F:\Microchip Solutions\ZigBee2006Res\microchip\ZigBeeStack\zAPS.c
                 __pa_140   0x008ea6    program     static F:\Microchip Solutions\ZigBee2006Res\microchip\ZigBeeStack\zAPS.c
                 __pa_141   0x008eb0    program     static F:\Microchip Solutions\ZigBee2006Res\microchip\ZigBeeStack\zAPS.c
                 __pa_142   0x008eb8    program     static F:\Microchip Solutions\ZigBee2006Res\microchip\ZigBeeStack\zAPS.c
                 __pa_143   0x008ec0    program     static F:\Microchip Solutions\ZigBee2006Res\microchip\ZigBeeStack\zAPS.c
                 __pa_144   0x008ec6    program     static F:\Microchip Solutions\ZigBee2006Res\microchip\ZigBeeStack\zAPS.c
                 __pa_145   0x008ed0    program     static F:\Microchip Solutions\ZigBee2006Res\microchip\ZigBeeStack\zAPS.c
                 __pa_146   0x008ed8    program     static F:\Microchip Solutions\ZigBee2006Res\microchip\ZigBeeStack\zAPS.c
                 __pa_147   0x008ee2    program     static F:\Microchip Solutions\ZigBee2006Res\microchip\ZigBeeStack\zAPS.c
                 __pa_148   0x008eea    program     static F:\Microchip Solutions\ZigBee2006Res\microchip\ZigBeeStack\zAPS.c
                 __pa_149   0x008efe    program     static F:\Microchip Solutions\ZigBee2006Res\microchip\ZigBeeStack\zAPS.c
                 __pa_150   0x008f08    program     static F:\Microchip Solutions\ZigBee2006Res\microchip\ZigBeeStack\zAPS.c
                 __pa_151   0x008f0e    program     static F:\Microchip Solutions\ZigBee2006Res\microchip\ZigBeeStack\zAPS.c
                 __pa_152   0x008f16    program     static F:\Microchip Solutions\ZigBee2006Res\microchip\ZigBeeStack\zAPS.c
                 __pa_153   0x008f1c    program     static F:\Microchip Solutions\ZigBee2006Res\microchip\ZigBeeStack\zAPS.c
                 __pa_154   0x008f24    program     static F:\Microchip Solutions\ZigBee2006Res\microchip\ZigBeeStack\zAPS.c
                 __pa_155   0x008f2c    program     static F:\Microchip Solutions\ZigBee2006Res\microchip\ZigBeeStack\zAPS.c
                 __pa_156   0x008f3e    program     static F:\Microchip Solutions\ZigBee2006Res\microchip\ZigBeeStack\zAPS.c
                 __pa_157   0x008f46    program     static F:\Microchip Solutions\ZigBee2006Res\microchip\ZigBeeStack\zAPS.c
                 __pa_158   0x008f4c    program     static F:\Microchip Solutions\ZigBee2006Res\microchip\ZigBeeStack\zAPS.c
                 __pa_159   0x008f58    program     static F:\Microchip Solutions\ZigBee2006Res\microchip\ZigBeeStack\zAPS.c
                 __pa_160   0x008f64    program     static F:\Microchip Solutions\ZigBee2006Res\microchip\ZigBeeStack\zAPS.c
                 __pa_161   0x008f6c    program     static F:\Microchip Solutions\ZigBee2006Res\microchip\ZigBeeStack\zAPS.c
                 __pa_162   0x008f74    program     static F:\Microchip Solutions\ZigBee2006Res\microchip\ZigBeeStack\zAPS.c
                 __pa_163   0x008f7c    program     static F:\Microchip Solutions\ZigBee2006Res\microchip\ZigBeeStack\zAPS.c
                 __pa_164   0x008f84    program     static F:\Microchip Solutions\ZigBee2006Res\microchip\ZigBeeStack\zAPS.c
                 __pa_165   0x008f8e    program     static F:\Microchip Solutions\ZigBee2006Res\microchip\ZigBeeStack\zAPS.c
                 __pa_166   0x008f94    program     static F:\Microchip Solutions\ZigBee2006Res\microchip\ZigBeeStack\zAPS.c
                 __pa_167   0x008f9e    program     static F:\Microchip Solutions\ZigBee2006Res\microchip\ZigBeeStack\zAPS.c
                 __pa_168   0x008faa    program     static F:\Microchip Solutions\ZigBee2006Res\microchip\ZigBeeStack\zAPS.c
                 __pa_169   0x008fb6    program     static F:\Microchip Solutions\ZigBee2006Res\microchip\ZigBeeStack\zAPS.c
                 __pa_170   0x008fc0    program     static F:\Microchip Solutions\ZigBee2006Res\microchip\ZigBeeStack\zAPS.c
                 __pa_171   0x008fc6    program     static F:\Microchip Solutions\ZigBee2006Res\microchip\ZigBeeStack\zAPS.c
                 __pa_172   0x008fd2    program     static F:\Microchip Solutions\ZigBee2006Res\microchip\ZigBeeStack\zAPS.c
                 __pa_173   0x008fdc    program     static F:\Microchip Solutions\ZigBee2006Res\microchip\ZigBeeStack\zAPS.c
                 __pa_174   0x008fe6    program     static F:\Microchip Solutions\ZigBee2006Res\microchip\ZigBeeStack\zAPS.c
                 __pa_175   0x008ff0    program     static F:\Microchip Solutions\ZigBee2006Res\microchip\ZigBeeStack\zAPS.c
                 __pa_176   0x008ffc    program     static F:\Microchip Solutions\ZigBee2006Res\microchip\ZigBeeStack\zAPS.c
                 __pa_177   0x009004    program     static F:\Microchip Solutions\ZigBee2006Res\microchip\ZigBeeStack\zAPS.c
                 __pa_178   0x00900c    program     static F:\Microchip Solutions\ZigBee2006Res\microchip\ZigBeeStack\zAPS.c
                 __pa_179   0x009012    program     static F:\Microchip Solutions\ZigBee2006Res\microchip\ZigBeeStack\zAPS.c
                 __pa_180   0x009018    program     static F:\Microchip Solutions\ZigBee2006Res\microchip\ZigBeeStack\zAPS.c
                 __pa_181   0x00901e    program     static F:\Microchip Solutions\ZigBee2006Res\microchip\ZigBeeStack\zAPS.c
                 __pa_182   0x009026    program     static F:\Microchip Solutions\ZigBee2006Res\microchip\ZigBeeStack\zAPS.c
                 __pa_183   0x009038    program     static F:\Microchip Solutions\ZigBee2006Res\microchip\ZigBeeStack\zAPS.c
                 __pa_184   0x009044    program     static F:\Microchip Solutions\ZigBee2006Res\microchip\ZigBeeStack\zAPS.c
                 __pa_185   0x00904c    program     static F:\Microchip Solutions\ZigBee2006Res\microchip\ZigBeeStack\zAPS.c
                 __pa_186   0x009052    program     static F:\Microchip Solutions\ZigBee2006Res\microchip\ZigBeeStack\zAPS.c
                 __pa_187   0x00905a    program     static F:\Microchip Solutions\ZigBee2006Res\microchip\ZigBeeStack\zAPS.c
                 __pa_188   0x009068    program     static F:\Microchip Solutions\ZigBee2006Res\microchip\ZigBeeStack\zAPS.c
                 __pa_189   0x009072    program     static F:\Microchip Solutions\ZigBee2006Res\microchip\ZigBeeStack\zAPS.c
                 __pa_190   0x00907c    program     static F:\Microchip Solutions\ZigBee2006Res\microchip\ZigBeeStack\zAPS.c
    MACHasBackgroundTasks   0x009086    program     extern F:\Microchip Solutions\ZigBee2006Res\microchip\ZigBeeStack\zMAC_MRF24J40.c
                   MACGet   0x009092    program     extern F:\Microchip Solutions\ZigBee2006Res\microchip\ZigBeeStack\zMAC_MRF24J40.c
             MACDiscardRx   0x0090a8    program     extern F:\Microchip Solutions\ZigBee2006Res\microchip\ZigBeeStack\zMAC_MRF24J40.c
               MACDisable   0x0090c0    program     extern F:\Microchip Solutions\ZigBee2006Res\microchip\ZigBeeStack\zMAC_MRF24J40.c
                MACEnable   0x0090cc    program     extern F:\Microchip Solutions\ZigBee2006Res\microchip\ZigBeeStack\zMAC_MRF24J40.c
                  MACInit   0x00914e    program     extern F:\Microchip Solutions\ZigBee2006Res\microchip\ZigBeeStack\zMAC_MRF24J40.c
                 MACTasks   0x00918e    program     extern F:\Microchip Solutions\ZigBee2006Res\microchip\ZigBeeStack\zMAC_MRF24J40.c
              __tmplbl_24   0x009986    program     static                          
              __tmplbl_33   0x00a046    program     static                          
              __tmplbl_45   0x00a046    program     static                          
              __tmplbl_34   0x00a046    program     static                          
              __tmplbl_35   0x00a05e    program     static                          
              __tmplbl_28   0x00a05e    program     static                          
              __tmplbl_75   0x00a2ac    program     static                          
              __tmplbl_31   0x00a2b0    program     static                          
              __tmplbl_56   0x00a2b8    program     static                          
              __tmplbl_55   0x00a31a    program     static                          
              __tmplbl_54   0x00a370    program     static                          
              __tmplbl_53   0x00a404    program     static                          
              __tmplbl_52   0x00a458    program     static                          
              __tmplbl_39   0x00a4e8    program     static                          
              __tmplbl_51   0x00a51a    program     static                          
              __tmplbl_49   0x00a54e    program     static                          
              __tmplbl_46   0x00a54e    program     static                          
              __tmplbl_58   0x00a54e    program     static                          
              __tmplbl_48   0x00a54e    program     static                          
              __tmplbl_47   0x00a54e    program     static                          
              __tmplbl_70   0x00a54e    program     static                          
              __tmplbl_69   0x00a54e    program     static                          
              __tmplbl_78   0x00a550    program     static                          
              __tmplbl_79   0x00a550    program     static                          
              __tmplbl_74   0x00a550    program     static                          
              __tmplbl_72   0x00a550    program     static                          
              __tmplbl_68   0x00a550    program     static                          
              __tmplbl_63   0x00a550    program     static                          
              __tmplbl_80   0x00a550    program     static                          
              __tmplbl_50   0x00a550    program     static                          
              __tmplbl_82   0x00a550    program     static                          
     MLME_SET_macPANId_hw   0x00a562    program     extern F:\Microchip Solutions\ZigBee2006Res\microchip\ZigBeeStack\zMAC_MRF24J40.c
MLME_SET_macShortAddress_hw   0x00a572    program     extern F:\Microchip Solutions\ZigBee2006Res\microchip\ZigBeeStack\zMAC_MRF24J40.c
                   __pa_0   0x00a582    program     static F:\Microchip Solutions\ZigBee2006Res\microchip\ZigBeeStack\zMAC_MRF24J40.c
                   __pa_1   0x00a58e    program     static F:\Microchip Solutions\ZigBee2006Res\microchip\ZigBeeStack\zMAC_MRF24J40.c
                   __pa_2   0x00a596    program     static F:\Microchip Solutions\ZigBee2006Res\microchip\ZigBeeStack\zMAC_MRF24J40.c
                   __pa_3   0x00a5a6    program     static F:\Microchip Solutions\ZigBee2006Res\microchip\ZigBeeStack\zMAC_MRF24J40.c
                   __pa_4   0x00a5cc    program     static F:\Microchip Solutions\ZigBee2006Res\microchip\ZigBeeStack\zMAC_MRF24J40.c
                   __pa_5   0x00a5da    program     static F:\Microchip Solutions\ZigBee2006Res\microchip\ZigBeeStack\zMAC_MRF24J40.c
                   __pa_6   0x00a5e2    program     static F:\Microchip Solutions\ZigBee2006Res\microchip\ZigBeeStack\zMAC_MRF24J40.c
                   __pa_7   0x00a5f4    program     static F:\Microchip Solutions\ZigBee2006Res\microchip\ZigBeeStack\zMAC_MRF24J40.c
                   __pa_8   0x00a5fc    program     static F:\Microchip Solutions\ZigBee2006Res\microchip\ZigBeeStack\zMAC_MRF24J40.c
                   __pa_9   0x00a604    program     static F:\Microchip Solutions\ZigBee2006Res\microchip\ZigBeeStack\zMAC_MRF24J40.c
                  __pa_10   0x00a60e    program     static F:\Microchip Solutions\ZigBee2006Res\microchip\ZigBeeStack\zMAC_MRF24J40.c
                  __pa_11   0x00a62c    program     static F:\Microchip Solutions\ZigBee2006Res\microchip\ZigBeeStack\zMAC_MRF24J40.c
                  __pa_12   0x00a636    program     static F:\Microchip Solutions\ZigBee2006Res\microchip\ZigBeeStack\zMAC_MRF24J40.c
                  __pa_13   0x00a666    program     static F:\Microchip Solutions\ZigBee2006Res\microchip\ZigBeeStack\zMAC_MRF24J40.c
                  __pa_14   0x00a66e    program     static F:\Microchip Solutions\ZigBee2006Res\microchip\ZigBeeStack\zMAC_MRF24J40.c
                  __pa_15   0x00a674    program     static F:\Microchip Solutions\ZigBee2006Res\microchip\ZigBeeStack\zMAC_MRF24J40.c
                  __pa_16   0x00a6a0    program     static F:\Microchip Solutions\ZigBee2006Res\microchip\ZigBeeStack\zMAC_MRF24J40.c
                  __pa_17   0x00a6b4    program     static F:\Microchip Solutions\ZigBee2006Res\microchip\ZigBeeStack\zMAC_MRF24J40.c
                  __pa_18   0x00a6be    program     static F:\Microchip Solutions\ZigBee2006Res\microchip\ZigBeeStack\zMAC_MRF24J40.c
                  __pa_19   0x00a6cc    program     static F:\Microchip Solutions\ZigBee2006Res\microchip\ZigBeeStack\zMAC_MRF24J40.c
                  __pa_20   0x00a6d4    program     static F:\Microchip Solutions\ZigBee2006Res\microchip\ZigBeeStack\zMAC_MRF24J40.c
                  __pa_21   0x00a6f2    program     static F:\Microchip Solutions\ZigBee2006Res\microchip\ZigBeeStack\zMAC_MRF24J40.c
                  __pa_22   0x00a710    program     static F:\Microchip Solutions\ZigBee2006Res\microchip\ZigBeeStack\zMAC_MRF24J40.c
                  __pa_23   0x00a722    program     static F:\Microchip Solutions\ZigBee2006Res\microchip\ZigBeeStack\zMAC_MRF24J40.c
                  __pa_24   0x00a734    program     static F:\Microchip Solutions\ZigBee2006Res\microchip\ZigBeeStack\zMAC_MRF24J40.c
                  __pa_25   0x00a746    program     static F:\Microchip Solutions\ZigBee2006Res\microchip\ZigBeeStack\zMAC_MRF24J40.c
                  __pa_26   0x00a74e    program     static F:\Microchip Solutions\ZigBee2006Res\microchip\ZigBeeStack\zMAC_MRF24J40.c
                  __pa_27   0x00a75c    program     static F:\Microchip Solutions\ZigBee2006Res\microchip\ZigBeeStack\zMAC_MRF24J40.c
                  __pa_28   0x00a768    program     static F:\Microchip Solutions\ZigBee2006Res\microchip\ZigBeeStack\zMAC_MRF24J40.c
                  __pa_29   0x00a782    program     static F:\Microchip Solutions\ZigBee2006Res\microchip\ZigBeeStack\zMAC_MRF24J40.c
                  __pa_30   0x00a792    program     static F:\Microchip Solutions\ZigBee2006Res\microchip\ZigBeeStack\zMAC_MRF24J40.c
                  __pa_31   0x00a7a8    program     static F:\Microchip Solutions\ZigBee2006Res\microchip\ZigBeeStack\zMAC_MRF24J40.c
                  __pa_32   0x00a7ba    program     static F:\Microchip Solutions\ZigBee2006Res\microchip\ZigBeeStack\zMAC_MRF24J40.c
              __tmplbl_21   0x00a7d0    program     static                          
                  __pa_33   0x00a7d0    program     static F:\Microchip Solutions\ZigBee2006Res\microchip\ZigBeeStack\zMAC_MRF24J40.c
              __tmplbl_20   0x00a7d0    program     static                          
                  __pa_34   0x00a7dc    program     static F:\Microchip Solutions\ZigBee2006Res\microchip\ZigBeeStack\zMAC_MRF24J40.c
                  __pa_35   0x00a7ea    program     static F:\Microchip Solutions\ZigBee2006Res\microchip\ZigBeeStack\zMAC_MRF24J40.c
                  __pa_36   0x00a7fe    program     static F:\Microchip Solutions\ZigBee2006Res\microchip\ZigBeeStack\zMAC_MRF24J40.c
                  __pa_37   0x00a80e    program     static F:\Microchip Solutions\ZigBee2006Res\microchip\ZigBeeStack\zMAC_MRF24J40.c
                  __pa_38   0x00a822    program     static F:\Microchip Solutions\ZigBee2006Res\microchip\ZigBeeStack\zMAC_MRF24J40.c
                  __pa_39   0x00a82e    program     static F:\Microchip Solutions\ZigBee2006Res\microchip\ZigBeeStack\zMAC_MRF24J40.c
                  __pa_40   0x00a836    program     static F:\Microchip Solutions\ZigBee2006Res\microchip\ZigBeeStack\zMAC_MRF24J40.c
                  __pa_41   0x00a848    program     static F:\Microchip Solutions\ZigBee2006Res\microchip\ZigBeeStack\zMAC_MRF24J40.c
                  __pa_42   0x00a85a    program     static F:\Microchip Solutions\ZigBee2006Res\microchip\ZigBeeStack\zMAC_MRF24J40.c
                  __pa_43   0x00a866    program     static F:\Microchip Solutions\ZigBee2006Res\microchip\ZigBeeStack\zMAC_MRF24J40.c
                  __pa_44   0x00a870    program     static F:\Microchip Solutions\ZigBee2006Res\microchip\ZigBeeStack\zMAC_MRF24J40.c
                  __pa_45   0x00a878    program     static F:\Microchip Solutions\ZigBee2006Res\microchip\ZigBeeStack\zMAC_MRF24J40.c
                  __pa_46   0x00a884    program     static F:\Microchip Solutions\ZigBee2006Res\microchip\ZigBeeStack\zMAC_MRF24J40.c
                  __pa_47   0x00a890    program     static F:\Microchip Solutions\ZigBee2006Res\microchip\ZigBeeStack\zMAC_MRF24J40.c
                  __pa_48   0x00a898    program     static F:\Microchip Solutions\ZigBee2006Res\microchip\ZigBeeStack\zMAC_MRF24J40.c
                  __pa_49   0x00a8a6    program     static F:\Microchip Solutions\ZigBee2006Res\microchip\ZigBeeStack\zMAC_MRF24J40.c
                  __pa_50   0x00a8b4    program     static F:\Microchip Solutions\ZigBee2006Res\microchip\ZigBeeStack\zMAC_MRF24J40.c
                  __pa_51   0x00a8be    program     static F:\Microchip Solutions\ZigBee2006Res\microchip\ZigBeeStack\zMAC_MRF24J40.c
                  __pa_52   0x00a8cc    program     static F:\Microchip Solutions\ZigBee2006Res\microchip\ZigBeeStack\zMAC_MRF24J40.c
                  __pa_53   0x00a8da    program     static F:\Microchip Solutions\ZigBee2006Res\microchip\ZigBeeStack\zMAC_MRF24J40.c
                  __pa_54   0x00a8e8    program     static F:\Microchip Solutions\ZigBee2006Res\microchip\ZigBeeStack\zMAC_MRF24J40.c
                  __pa_55   0x00a8ec    program     static F:\Microchip Solutions\ZigBee2006Res\microchip\ZigBeeStack\zMAC_MRF24J40.c
                  __pa_56   0x00a8f6    program     static F:\Microchip Solutions\ZigBee2006Res\microchip\ZigBeeStack\zMAC_MRF24J40.c
                  __pa_57   0x00a900    program     static F:\Microchip Solutions\ZigBee2006Res\microchip\ZigBeeStack\zMAC_MRF24J40.c
                  __pa_58   0x00a908    program     static F:\Microchip Solutions\ZigBee2006Res\microchip\ZigBeeStack\zMAC_MRF24J40.c
                  __pa_59   0x00a910    program     static F:\Microchip Solutions\ZigBee2006Res\microchip\ZigBeeStack\zMAC_MRF24J40.c
                  __pa_60   0x00a92c    program     static F:\Microchip Solutions\ZigBee2006Res\microchip\ZigBeeStack\zMAC_MRF24J40.c
                  __pa_61   0x00a938    program     static F:\Microchip Solutions\ZigBee2006Res\microchip\ZigBeeStack\zMAC_MRF24J40.c
                  __pa_62   0x00a960    program     static F:\Microchip Solutions\ZigBee2006Res\microchip\ZigBeeStack\zMAC_MRF24J40.c
                  __pa_63   0x00a976    program     static F:\Microchip Solutions\ZigBee2006Res\microchip\ZigBeeStack\zMAC_MRF24J40.c
                  __pa_64   0x00a97e    program     static F:\Microchip Solutions\ZigBee2006Res\microchip\ZigBeeStack\zMAC_MRF24J40.c
                  __pa_65   0x00a984    program     static F:\Microchip Solutions\ZigBee2006Res\microchip\ZigBeeStack\zMAC_MRF24J40.c
                  __pa_66   0x00a98a    program     static F:\Microchip Solutions\ZigBee2006Res\microchip\ZigBeeStack\zMAC_MRF24J40.c
                  __pa_67   0x00a99c    program     static F:\Microchip Solutions\ZigBee2006Res\microchip\ZigBeeStack\zMAC_MRF24J40.c
                  __pa_68   0x00a9ac    program     static F:\Microchip Solutions\ZigBee2006Res\microchip\ZigBeeStack\zMAC_MRF24J40.c
                  __pa_69   0x00a9b8    program     static F:\Microchip Solutions\ZigBee2006Res\microchip\ZigBeeStack\zMAC_MRF24J40.c
                  __pa_70   0x00a9c4    program     static F:\Microchip Solutions\ZigBee2006Res\microchip\ZigBeeStack\zMAC_MRF24J40.c
                  __pa_71   0x00a9ce    program     static F:\Microchip Solutions\ZigBee2006Res\microchip\ZigBeeStack\zMAC_MRF24J40.c
                  __pa_72   0x00a9d6    program     static F:\Microchip Solutions\ZigBee2006Res\microchip\ZigBeeStack\zMAC_MRF24J40.c
                  __pa_73   0x00a9e2    program     static F:\Microchip Solutions\ZigBee2006Res\microchip\ZigBeeStack\zMAC_MRF24J40.c
                  __pa_74   0x00a9ea    program     static F:\Microchip Solutions\ZigBee2006Res\microchip\ZigBeeStack\zMAC_MRF24J40.c
                  __pa_75   0x00a9f4    program     static F:\Microchip Solutions\ZigBee2006Res\microchip\ZigBeeStack\zMAC_MRF24J40.c
                  __pa_76   0x00a9fa    program     static F:\Microchip Solutions\ZigBee2006Res\microchip\ZigBeeStack\zMAC_MRF24J40.c
                  __pa_77   0x00aa02    program     static F:\Microchip Solutions\ZigBee2006Res\microchip\ZigBeeStack\zMAC_MRF24J40.c
                  __pa_78   0x00aa0a    program     static F:\Microchip Solutions\ZigBee2006Res\microchip\ZigBeeStack\zMAC_MRF24J40.c
                  __pa_79   0x00aa12    program     static F:\Microchip Solutions\ZigBee2006Res\microchip\ZigBeeStack\zMAC_MRF24J40.c
                  __pa_80   0x00aa22    program     static F:\Microchip Solutions\ZigBee2006Res\microchip\ZigBeeStack\zMAC_MRF24J40.c
                  __pa_81   0x00aa30    program     static F:\Microchip Solutions\ZigBee2006Res\microchip\ZigBeeStack\zMAC_MRF24J40.c
                  __pa_82   0x00aa3e    program     static F:\Microchip Solutions\ZigBee2006Res\microchip\ZigBeeStack\zMAC_MRF24J40.c
                  __pa_83   0x00aa4e    program     static F:\Microchip Solutions\ZigBee2006Res\microchip\ZigBeeStack\zMAC_MRF24J40.c
                  __pa_84   0x00aa5c    program     static F:\Microchip Solutions\ZigBee2006Res\microchip\ZigBeeStack\zMAC_MRF24J40.c
                  __pa_85   0x00aa68    program     static F:\Microchip Solutions\ZigBee2006Res\microchip\ZigBeeStack\zMAC_MRF24J40.c
                  __pa_86   0x00aa74    program     static F:\Microchip Solutions\ZigBee2006Res\microchip\ZigBeeStack\zMAC_MRF24J40.c
                  __pa_87   0x00aa7c    program     static F:\Microchip Solutions\ZigBee2006Res\microchip\ZigBeeStack\zMAC_MRF24J40.c
                  __pa_88   0x00aa82    program     static F:\Microchip Solutions\ZigBee2006Res\microchip\ZigBeeStack\zMAC_MRF24J40.c
                  __pa_89   0x00aa88    program     static F:\Microchip Solutions\ZigBee2006Res\microchip\ZigBeeStack\zMAC_MRF24J40.c
                  __pa_90   0x00aa90    program     static F:\Microchip Solutions\ZigBee2006Res\microchip\ZigBeeStack\zMAC_MRF24J40.c
                  __pa_91   0x00aa98    program     static F:\Microchip Solutions\ZigBee2006Res\microchip\ZigBeeStack\zMAC_MRF24J40.c
                  __pa_92   0x00aaac    program     static F:\Microchip Solutions\ZigBee2006Res\microchip\ZigBeeStack\zMAC_MRF24J40.c
                  __pa_93   0x00aac6    program     static F:\Microchip Solutions\ZigBee2006Res\microchip\ZigBeeStack\zMAC_MRF24J40.c
                  __pa_94   0x00aada    program     static F:\Microchip Solutions\ZigBee2006Res\microchip\ZigBeeStack\zMAC_MRF24J40.c
                  __pa_95   0x00aae0    program     static F:\Microchip Solutions\ZigBee2006Res\microchip\ZigBeeStack\zMAC_MRF24J40.c
                  __pa_96   0x00aae6    program     static F:\Microchip Solutions\ZigBee2006Res\microchip\ZigBeeStack\zMAC_MRF24J40.c
                     main   0x00aaec    program     extern F:\Microchip Solutions\ZigBee2006Res\DemoPIC18Coordinator\Coordinator.c
        ___while_lbl00001   0x00ab5a    program     static                          
       ___return_lbl00000   0x00ab74    program     static                          
        ___while_lbl00002   0x00ab74    program     static                          
  ProcessZigBeePrimitives   0x00ab76    program     extern F:\Microchip Solutions\ZigBee2006Res\DemoPIC18Coordinator\Coordinator.c
              __tmplbl_33   0x00b3e2    program     static                          
              __tmplbl_25   0x00b3e4    program     static                          
              __tmplbl_26   0x00b3e4    program     static                          
              __tmplbl_24   0x00b3e4    program     static                          
    ProcessNONZigBeeTasks   0x00b3f4    program     extern F:\Microchip Solutions\ZigBee2006Res\DemoPIC18Coordinator\Coordinator.c
             HardwareInit   0x00b3f6    program     extern F:\Microchip Solutions\ZigBee2006Res\DemoPIC18Coordinator\Coordinator.c
     UserInterruptHandler   0x00b42a    program     extern F:\Microchip Solutions\ZigBee2006Res\DemoPIC18Coordinator\Coordinator.c
              GetHexDigit   0x00b438    program     extern F:\Microchip Solutions\ZigBee2006Res\DemoPIC18Coordinator\Coordinator.c
               GetMACByte   0x00b482    program     extern F:\Microchip Solutions\ZigBee2006Res\DemoPIC18Coordinator\Coordinator.c
              ProcessMenu   0x00b498    program     extern F:\Microchip Solutions\ZigBee2006Res\DemoPIC18Coordinator\Coordinator.c
                PrintMenu   0x00b754    program     extern F:\Microchip Solutions\ZigBee2006Res\DemoPIC18Coordinator\Coordinator.c
                   __pa_0   0x00b76e    program     static F:\Microchip Solutions\ZigBee2006Res\DemoPIC18Coordinator\Coordinator.c
                   __pa_1   0x00b774    program     static F:\Microchip Solutions\ZigBee2006Res\DemoPIC18Coordinator\Coordinator.c
                   __pa_2   0x00b780    program     static F:\Microchip Solutions\ZigBee2006Res\DemoPIC18Coordinator\Coordinator.c
                   __pa_3   0x00b788    program     static F:\Microchip Solutions\ZigBee2006Res\DemoPIC18Coordinator\Coordinator.c
                   __pa_4   0x00b796    program     static F:\Microchip Solutions\ZigBee2006Res\DemoPIC18Coordinator\Coordinator.c
                   __pa_5   0x00b7a6    program     static F:\Microchip Solutions\ZigBee2006Res\DemoPIC18Coordinator\Coordinator.c
                   __pa_6   0x00b7b2    program     static F:\Microchip Solutions\ZigBee2006Res\DemoPIC18Coordinator\Coordinator.c
                   __pa_7   0x00b7c4    program     static F:\Microchip Solutions\ZigBee2006Res\DemoPIC18Coordinator\Coordinator.c
                   __pa_8   0x00b7ce    program     static F:\Microchip Solutions\ZigBee2006Res\DemoPIC18Coordinator\Coordinator.c
                   __pa_9   0x00b7da    program     static F:\Microchip Solutions\ZigBee2006Res\DemoPIC18Coordinator\Coordinator.c
                  __pa_10   0x00b7f4    program     static F:\Microchip Solutions\ZigBee2006Res\DemoPIC18Coordinator\Coordinator.c
                  __pa_11   0x00b7fa    program     static F:\Microchip Solutions\ZigBee2006Res\DemoPIC18Coordinator\Coordinator.c
                  __pa_12   0x00b802    program     static F:\Microchip Solutions\ZigBee2006Res\DemoPIC18Coordinator\Coordinator.c
                  __pa_13   0x00b818    program     static F:\Microchip Solutions\ZigBee2006Res\DemoPIC18Coordinator\Coordinator.c
                  __pa_14   0x00b826    program     static F:\Microchip Solutions\ZigBee2006Res\DemoPIC18Coordinator\Coordinator.c
                  __pa_15   0x00b838    program     static F:\Microchip Solutions\ZigBee2006Res\DemoPIC18Coordinator\Coordinator.c
                  __pa_16   0x00b842    program     static F:\Microchip Solutions\ZigBee2006Res\DemoPIC18Coordinator\Coordinator.c
                  __pa_17   0x00b852    program     static F:\Microchip Solutions\ZigBee2006Res\DemoPIC18Coordinator\Coordinator.c
                  __pa_18   0x00b862    program     static F:\Microchip Solutions\ZigBee2006Res\DemoPIC18Coordinator\Coordinator.c
                  __pa_19   0x00b870    program     static F:\Microchip Solutions\ZigBee2006Res\DemoPIC18Coordinator\Coordinator.c
                  __pa_20   0x00b87c    program     static F:\Microchip Solutions\ZigBee2006Res\DemoPIC18Coordinator\Coordinator.c
                  __pa_21   0x00b886    program     static F:\Microchip Solutions\ZigBee2006Res\DemoPIC18Coordinator\Coordinator.c
                  __pa_22   0x00b88e    program     static F:\Microchip Solutions\ZigBee2006Res\DemoPIC18Coordinator\Coordinator.c
                  __pa_23   0x00b8a8    program     static F:\Microchip Solutions\ZigBee2006Res\DemoPIC18Coordinator\Coordinator.c
                  __pa_24   0x00b8b8    program     static F:\Microchip Solutions\ZigBee2006Res\DemoPIC18Coordinator\Coordinator.c
                  __pa_25   0x00b8be    program     static F:\Microchip Solutions\ZigBee2006Res\DemoPIC18Coordinator\Coordinator.c
                  __pa_26   0x00b8d2    program     static F:\Microchip Solutions\ZigBee2006Res\DemoPIC18Coordinator\Coordinator.c
                  __pa_27   0x00b8de    program     static F:\Microchip Solutions\ZigBee2006Res\DemoPIC18Coordinator\Coordinator.c
                  __pa_28   0x00b8e6    program     static F:\Microchip Solutions\ZigBee2006Res\DemoPIC18Coordinator\Coordinator.c
                  __pa_29   0x00b8ee    program     static F:\Microchip Solutions\ZigBee2006Res\DemoPIC18Coordinator\Coordinator.c
                  __pa_30   0x00b8f6    program     static F:\Microchip Solutions\ZigBee2006Res\DemoPIC18Coordinator\Coordinator.c
                  __pa_31   0x00b8fc    program     static F:\Microchip Solutions\ZigBee2006Res\DemoPIC18Coordinator\Coordinator.c
                  __pa_32   0x00b90c    program     static F:\Microchip Solutions\ZigBee2006Res\DemoPIC18Coordinator\Coordinator.c
                  __pa_33   0x00b918    program     static F:\Microchip Solutions\ZigBee2006Res\DemoPIC18Coordinator\Coordinator.c
                  __pa_34   0x00b924    program     static F:\Microchip Solutions\ZigBee2006Res\DemoPIC18Coordinator\Coordinator.c
                  __pa_35   0x00b930    program     static F:\Microchip Solutions\ZigBee2006Res\DemoPIC18Coordinator\Coordinator.c
                  __pa_36   0x00b93c    program     static F:\Microchip Solutions\ZigBee2006Res\DemoPIC18Coordinator\Coordinator.c
                  __pa_37   0x00b946    program     static F:\Microchip Solutions\ZigBee2006Res\DemoPIC18Coordinator\Coordinator.c
                  __pa_38   0x00b94e    program     static F:\Microchip Solutions\ZigBee2006Res\DemoPIC18Coordinator\Coordinator.c
                  __pa_39   0x00b954    program     static F:\Microchip Solutions\ZigBee2006Res\DemoPIC18Coordinator\Coordinator.c
                   PHYGet   0x00b95a    program     extern F:\Microchip Solutions\ZigBee2006Res\microchip\ZigBeeStack\zPHY_MRF24J40.c
    PHYHasBackgroundTasks   0x00b978    program     extern F:\Microchip Solutions\ZigBee2006Res\microchip\ZigBeeStack\zPHY_MRF24J40.c
                  PHYInit   0x00b97e    program     extern F:\Microchip Solutions\ZigBee2006Res\microchip\ZigBeeStack\zPHY_MRF24J40.c
          ___for_lbl00006   0x00b9aa    program     static                          
          ___for_lbl00004   0x00b9c0    program     static                          
          ___for_lbl00005   0x00b9cc    program     static                          
          ___for_lbl00009   0x00b9d6    program     static                          
          ___for_lbl00007   0x00b9ec    program     static                          
          ___for_lbl00008   0x00b9f8    program     static                          
           ___do_lbl00012   0x00ba06    program     static                          
           ___do_lbl00010   0x00ba10    program     static                          
           ___do_lbl00011   0x00ba16    program     static                          
          ___for_lbl00015   0x00ba1e    program     static                          
          ___for_lbl00013   0x00ba34    program     static                          
          ___for_lbl00014   0x00ba40    program     static                          
           ___do_lbl00018   0x00ba4e    program     static                          
           ___do_lbl00016   0x00ba58    program     static                          
           ___do_lbl00017   0x00ba5e    program     static                          
          ___for_lbl00021   0x00ba66    program     static                          
          ___for_lbl00019   0x00ba7c    program     static                          
          ___for_lbl00020   0x00ba88    program     static                          
           ___do_lbl00024   0x00bc58    program     static                          
           ___do_lbl00022   0x00bc68    program     static                          
           ___do_lbl00023   0x00bc70    program     static                          
       ___return_lbl00003   0x00bc70    program     static                          
            MRF24J40Sleep   0x00bc82    program     extern F:\Microchip Solutions\ZigBee2006Res\microchip\ZigBeeStack\zPHY_MRF24J40.c
             MRF24J40Wake   0x00bcac    program     extern F:\Microchip Solutions\ZigBee2006Res\microchip\ZigBeeStack\zPHY_MRF24J40.c
                 PHYTasks   0x00bd16    program     extern F:\Microchip Solutions\ZigBee2006Res\microchip\ZigBeeStack\zPHY_MRF24J40.c
        PHYSetLongRAMAddr   0x00bdfe    program     extern F:\Microchip Solutions\ZigBee2006Res\microchip\ZigBeeStack\zPHY_MRF24J40.c
       ___return_lbl00049   0x00be8e    program     static                          
       PHYSetShortRAMAddr   0x00be9a    program     extern F:\Microchip Solutions\ZigBee2006Res\microchip\ZigBeeStack\zPHY_MRF24J40.c
       ___return_lbl00050   0x00bef0    program     static                          
       PHYGetShortRAMAddr   0x00befc    program     extern F:\Microchip Solutions\ZigBee2006Res\microchip\ZigBeeStack\zPHY_MRF24J40.c
       ___return_lbl00051   0x00bf50    program     static                          
        PHYGetLongRAMAddr   0x00bf5e    program     extern F:\Microchip Solutions\ZigBee2006Res\microchip\ZigBeeStack\zPHY_MRF24J40.c
       ___return_lbl00052   0x00bff2    program     static                          
        PHYSetOutputPower   0x00c000    program     extern F:\Microchip Solutions\ZigBee2006Res\microchip\ZigBeeStack\zPHY_MRF24J40.c
                  HighISR   0x00c01a    program     extern F:\Microchip Solutions\ZigBee2006Res\microchip\ZigBeeStack\zPHY_MRF24J40.c
         ___else_lbl00057   0x00c0c0    program     static                          
           ___if_lbl00055   0x00c0ce    program     static                          
           ___if_lbl00056   0x00c0ce    program     static                          
           ___if_lbl00058   0x00c0ce    program     static                          
               __tmplbl_4   0x00c0f4    program     static                          
               __tmplbl_3   0x00c0fc    program     static                          
               __tmplbl_2   0x00c106    program     static                          
           ___if_lbl00061   0x00c10a    program     static                          
         ___else_lbl00063   0x00c12a    program     static                          
           ___if_lbl00062   0x00c12e    program     static                          
           ___if_lbl00064   0x00c12e    program     static                          
           ___if_lbl00065   0x00c132    program     static                          
           ___if_lbl00066   0x00c136    program     static                          
           ___if_lbl00067   0x00c18e    program     static                          
         ___else_lbl00069   0x00c1b2    program     static                          
           ___if_lbl00068   0x00c1d8    program     static                          
           ___if_lbl00070   0x00c21e    program     static                          
        ___while_lbl00071   0x00c21e    program     static                          
         ___else_lbl00074   0x00c274    program     static                          
           ___if_lbl00073   0x00c2ac    program     static                          
           ___if_lbl00075   0x00c2de    program     static                          
         ___else_lbl00081   0x00c2e0    program     static                          
               __tmplbl_6   0x00c304    program     static                          
               __tmplbl_5   0x00c31a    program     static                          
           ___if_lbl00077   0x00c32a    program     static                          
           ___if_lbl00078   0x00c332    program     static                          
           ___if_lbl00080   0x00c332    program     static                          
           ___if_lbl00079   0x00c332    program     static                          
           ___if_lbl00082   0x00c344    program     static                          
        ___while_lbl00072   0x00c346    program     static                          
         ___else_lbl00084   0x00c354    program     static                          
           ___if_lbl00083   0x00c368    program     static                          
         ___else_lbl00086   0x00c372    program     static                          
      DoneReceivingPacket   0x00c37c    program     static                          
           ___if_lbl00085   0x00c37c    program     static                          
           ___if_lbl00087   0x00c398    program     static                          
           ___if_lbl00088   0x00c398    program     static                          
           ___if_lbl00089   0x00c398    program     static                          
           ___if_lbl00092   0x00c3b0    program     static                          
           ___if_lbl00091   0x00c3b0    program     static                          
           ___if_lbl00090   0x00c3b0    program     static                          
       ___return_lbl00054   0x00c3b4    program     static                          
                   __pa_0   0x00c418    program     static F:\Microchip Solutions\ZigBee2006Res\microchip\ZigBeeStack\zPHY_MRF24J40.c
                   __pa_1   0x00c4a8    program     static F:\Microchip Solutions\ZigBee2006Res\microchip\ZigBeeStack\zPHY_MRF24J40.c
               __tmplbl_7   0x00c4ba    program     static                          
                   __pa_2   0x00c4ba    program     static F:\Microchip Solutions\ZigBee2006Res\microchip\ZigBeeStack\zPHY_MRF24J40.c
                   __pa_3   0x00c4c6    program     static F:\Microchip Solutions\ZigBee2006Res\microchip\ZigBeeStack\zPHY_MRF24J40.c
                   __pa_4   0x00c4d0    program     static F:\Microchip Solutions\ZigBee2006Res\microchip\ZigBeeStack\zPHY_MRF24J40.c
              __string_57   0x00c4e0    program     static F:\Microchip Solutions\ZigBee2006Res\DemoPIC18Coordinator\Coordinator.c
              __string_56   0x00c4f8    program     static F:\Microchip Solutions\ZigBee2006Res\DemoPIC18Coordinator\Coordinator.c
              __string_55   0x00c53a    program     static F:\Microchip Solutions\ZigBee2006Res\DemoPIC18Coordinator\Coordinator.c
              __string_54   0x00c541    program     static F:\Microchip Solutions\ZigBee2006Res\DemoPIC18Coordinator\Coordinator.c
              __string_53   0x00c548    program     static F:\Microchip Solutions\ZigBee2006Res\DemoPIC18Coordinator\Coordinator.c
              __string_52   0x00c54f    program     static F:\Microchip Solutions\ZigBee2006Res\DemoPIC18Coordinator\Coordinator.c
              __string_51   0x00c553    program     static F:\Microchip Solutions\ZigBee2006Res\DemoPIC18Coordinator\Coordinator.c
              __string_50   0x00c557    program     static F:\Microchip Solutions\ZigBee2006Res\DemoPIC18Coordinator\Coordinator.c
              __string_49   0x00c55b    program     static F:\Microchip Solutions\ZigBee2006Res\DemoPIC18Coordinator\Coordinator.c
              __string_48   0x00c55f    program     static F:\Microchip Solutions\ZigBee2006Res\DemoPIC18Coordinator\Coordinator.c
              __string_47   0x00c56a    program     static F:\Microchip Solutions\ZigBee2006Res\DemoPIC18Coordinator\Coordinator.c
              __string_46   0x00c574    program     static F:\Microchip Solutions\ZigBee2006Res\DemoPIC18Coordinator\Coordinator.c
              __string_45   0x00c5b3    program     static F:\Microchip Solutions\ZigBee2006Res\DemoPIC18Coordinator\Coordinator.c
              __string_44   0x00c5d3    program     static F:\Microchip Solutions\ZigBee2006Res\DemoPIC18Coordinator\Coordinator.c
              __string_43   0x00c62d    program     static F:\Microchip Solutions\ZigBee2006Res\DemoPIC18Coordinator\Coordinator.c
              __string_42   0x00c65c    program     static F:\Microchip Solutions\ZigBee2006Res\DemoPIC18Coordinator\Coordinator.c
              __string_41   0x00c68a    program     static F:\Microchip Solutions\ZigBee2006Res\DemoPIC18Coordinator\Coordinator.c
              __string_40   0x00c6c7    program     static F:\Microchip Solutions\ZigBee2006Res\DemoPIC18Coordinator\Coordinator.c
              __string_39   0x00c6fa    program     static F:\Microchip Solutions\ZigBee2006Res\DemoPIC18Coordinator\Coordinator.c
              __string_38   0x00c72c    program     static F:\Microchip Solutions\ZigBee2006Res\DemoPIC18Coordinator\Coordinator.c
              __string_37   0x00c767    program     static F:\Microchip Solutions\ZigBee2006Res\DemoPIC18Coordinator\Coordinator.c
              __string_36   0x00c792    program     static F:\Microchip Solutions\ZigBee2006Res\DemoPIC18Coordinator\Coordinator.c
              __string_35   0x00c7b5    program     static F:\Microchip Solutions\ZigBee2006Res\DemoPIC18Coordinator\Coordinator.c
              __string_34   0x00c7cd    program     static F:\Microchip Solutions\ZigBee2006Res\DemoPIC18Coordinator\Coordinator.c
              __string_33   0x00c7ee    program     static F:\Microchip Solutions\ZigBee2006Res\DemoPIC18Coordinator\Coordinator.c
              __string_32   0x00c80b    program     static F:\Microchip Solutions\ZigBee2006Res\DemoPIC18Coordinator\Coordinator.c
              __string_31   0x00c828    program     static F:\Microchip Solutions\ZigBee2006Res\DemoPIC18Coordinator\Coordinator.c
              __string_30   0x00c839    program     static F:\Microchip Solutions\ZigBee2006Res\DemoPIC18Coordinator\Coordinator.c
              __string_29   0x00c848    program     static F:\Microchip Solutions\ZigBee2006Res\DemoPIC18Coordinator\Coordinator.c
              __string_28   0x00c850    program     static F:\Microchip Solutions\ZigBee2006Res\DemoPIC18Coordinator\Coordinator.c
              __string_27   0x00c868    program     static F:\Microchip Solutions\ZigBee2006Res\DemoPIC18Coordinator\Coordinator.c
              __string_26   0x00c86b    program     static F:\Microchip Solutions\ZigBee2006Res\DemoPIC18Coordinator\Coordinator.c
              __string_25   0x00c883    program     static F:\Microchip Solutions\ZigBee2006Res\DemoPIC18Coordinator\Coordinator.c
              __string_24   0x00c89d    program     static F:\Microchip Solutions\ZigBee2006Res\DemoPIC18Coordinator\Coordinator.c
              __string_23   0x00c8c1    program     static F:\Microchip Solutions\ZigBee2006Res\DemoPIC18Coordinator\Coordinator.c
              __string_22   0x00c8e8    program     static F:\Microchip Solutions\ZigBee2006Res\DemoPIC18Coordinator\Coordinator.c
              __string_21   0x00c906    program     static F:\Microchip Solutions\ZigBee2006Res\DemoPIC18Coordinator\Coordinator.c
              __string_20   0x00c91a    program     static F:\Microchip Solutions\ZigBee2006Res\DemoPIC18Coordinator\Coordinator.c
              __string_19   0x00c921    program     static F:\Microchip Solutions\ZigBee2006Res\DemoPIC18Coordinator\Coordinator.c
              __string_18   0x00c93f    program     static F:\Microchip Solutions\ZigBee2006Res\DemoPIC18Coordinator\Coordinator.c
              __string_17   0x00c95e    program     static F:\Microchip Solutions\ZigBee2006Res\DemoPIC18Coordinator\Coordinator.c
              __string_16   0x00c984    program     static F:\Microchip Solutions\ZigBee2006Res\DemoPIC18Coordinator\Coordinator.c
              __string_15   0x00c9a1    program     static F:\Microchip Solutions\ZigBee2006Res\DemoPIC18Coordinator\Coordinator.c
              __string_14   0x00c9b1    program     static F:\Microchip Solutions\ZigBee2006Res\DemoPIC18Coordinator\Coordinator.c
              __string_13   0x00c9c4    program     static F:\Microchip Solutions\ZigBee2006Res\DemoPIC18Coordinator\Coordinator.c
              __string_12   0x00c9cc    program     static F:\Microchip Solutions\ZigBee2006Res\DemoPIC18Coordinator\Coordinator.c
              __string_11   0x00c9ed    program     static F:\Microchip Solutions\ZigBee2006Res\DemoPIC18Coordinator\Coordinator.c
              __string_10   0x00ca0b    program     static F:\Microchip Solutions\ZigBee2006Res\DemoPIC18Coordinator\Coordinator.c
               __string_9   0x00ca43    program     static F:\Microchip Solutions\ZigBee2006Res\DemoPIC18Coordinator\Coordinator.c
               __string_8   0x00ca58    program     static F:\Microchip Solutions\ZigBee2006Res\DemoPIC18Coordinator\Coordinator.c
               __string_7   0x00ca83    program     static F:\Microchip Solutions\ZigBee2006Res\DemoPIC18Coordinator\Coordinator.c
               __string_6   0x00ca9c    program     static F:\Microchip Solutions\ZigBee2006Res\DemoPIC18Coordinator\Coordinator.c
               __string_5   0x00caa1    program     static F:\Microchip Solutions\ZigBee2006Res\DemoPIC18Coordinator\Coordinator.c
               __string_4   0x00cabd    program     static F:\Microchip Solutions\ZigBee2006Res\DemoPIC18Coordinator\Coordinator.c
               __string_3   0x00cad9    program     static F:\Microchip Solutions\ZigBee2006Res\DemoPIC18Coordinator\Coordinator.c
               __string_2   0x00caf2    program     static F:\Microchip Solutions\ZigBee2006Res\DemoPIC18Coordinator\Coordinator.c
               __string_1   0x00cb30    program     static F:\Microchip Solutions\ZigBee2006Res\DemoPIC18Coordinator\Coordinator.c
               __string_0   0x00cb57    program     static F:\Microchip Solutions\ZigBee2006Res\DemoPIC18Coordinator\Coordinator.c
               ZigBeeInit   0x00cc82    program     extern F:\Microchip Solutions\ZigBee2006Res\microchip\ZigBeeStack\ZigbeeTasks.c
              ZigBeeTasks   0x00ccb8    program     extern F:\Microchip Solutions\ZigBee2006Res\microchip\ZigBeeStack\ZigbeeTasks.c
           ___do_lbl00127   0x00ccdc    program     static                          
           ___if_lbl00002   0x00ccdc    program     static                          
           ___if_lbl00005   0x00ccf2    program     static                          
           ___if_lbl00006   0x00cd06    program     static                          
           ___if_lbl00007   0x00cd1a    program     static                          
           ___if_lbl00008   0x00cd2e    program     static                          
           ___if_lbl00009   0x00cd42    program     static                          
      ___case_10_lbl00011   0x00cf70    program     static                          
      ___case_12_lbl00013   0x00cf70    program     static                          
       ___case_6_lbl00014   0x00cf70    program     static                          
       ___case_1_lbl00016   0x00cf70    program     static                          
       ___case_8_lbl00012   0x00cf70    program     static                          
       ___case_4_lbl00015   0x00cf70    program     static                          
       ___case_3_lbl00038   0x00cf80    program     static                          
      ___case_40_lbl00021   0x00cf80    program     static                          
      ___case_31_lbl00025   0x00cf80    program     static                          
      ___case_35_lbl00024   0x00cf80    program     static                          
      ___case_36_lbl00023   0x00cf80    program     static                          
       ___case_5_lbl00034   0x00cf80    program     static                          
       ___case_2_lbl00037   0x00cf80    program     static                          
       ___case_7_lbl00036   0x00cf80    program     static                          
      ___case_11_lbl00033   0x00cf80    program     static                          
       ___case_9_lbl00035   0x00cf80    program     static                          
      ___case_29_lbl00026   0x00cf80    program     static                          
      ___case_13_lbl00032   0x00cf80    program     static                          
      ___case_16_lbl00031   0x00cf80    program     static                          
      ___case_43_lbl00020   0x00cf80    program     static                          
      ___case_25_lbl00027   0x00cf80    program     static                          
      ___case_45_lbl00019   0x00cf80    program     static                          
      ___case_23_lbl00028   0x00cf80    program     static                          
      ___case_49_lbl00017   0x00cf80    program     static                          
      ___case_38_lbl00022   0x00cf80    program     static                          
      ___case_47_lbl00018   0x00cf80    program     static                          
      ___case_21_lbl00029   0x00cf80    program     static                          
      ___case_19_lbl00030   0x00cf80    program     static                          
      ___case_17_lbl00071   0x00cf90    program     static                          
      ___case_18_lbl00070   0x00cf90    program     static                          
     ___case_114_lbl00039   0x00cf90    program     static                          
      ___case_39_lbl00058   0x00cf90    program     static                          
      ___case_70_lbl00045   0x00cf90    program     static                          
      ___case_71_lbl00044   0x00cf90    program     static                          
      ___case_72_lbl00043   0x00cf90    program     static                          
      ___case_73_lbl00042   0x00cf90    program     static                          
      ___case_74_lbl00041   0x00cf90    program     static                          
      ___case_75_lbl00040   0x00cf90    program     static                          
      ___case_41_lbl00057   0x00cf90    program     static                          
      ___case_51_lbl00051   0x00cf90    program     static                          
      ___case_42_lbl00056   0x00cf90    program     static                          
      ___case_50_lbl00052   0x00cf90    program     static                          
      ___case_44_lbl00055   0x00cf90    program     static                          
      ___case_46_lbl00054   0x00cf90    program     static                          
      ___case_48_lbl00053   0x00cf90    program     static                          
      ___case_33_lbl00061   0x00cf90    program     static                          
      ___case_34_lbl00060   0x00cf90    program     static                          
      ___case_28_lbl00064   0x00cf90    program     static                          
      ___case_65_lbl00050   0x00cf90    program     static                          
      ___case_30_lbl00063   0x00cf90    program     static                          
      ___case_66_lbl00049   0x00cf90    program     static                          
      ___case_32_lbl00062   0x00cf90    program     static                          
      ___case_27_lbl00065   0x00cf90    program     static                          
      ___case_26_lbl00066   0x00cf90    program     static                          
      ___case_67_lbl00048   0x00cf90    program     static                          
      ___case_37_lbl00059   0x00cf90    program     static                          
      ___case_24_lbl00067   0x00cf90    program     static                          
      ___case_68_lbl00047   0x00cf90    program     static                          
      ___case_22_lbl00068   0x00cf90    program     static                          
      ___case_69_lbl00046   0x00cf90    program     static                          
      ___case_20_lbl00069   0x00cf90    program     static                          
      ___case_98_lbl00079   0x00cfa0    program     static                          
      ___case_97_lbl00080   0x00cfa0    program     static                          
      ___case_95_lbl00081   0x00cfa0    program     static                          
      ___case_94_lbl00082   0x00cfa0    program     static                          
      ___case_52_lbl00087   0x00cfa0    program     static                          
      ___case_85_lbl00083   0x00cfa0    program     static                          
      ___case_82_lbl00084   0x00cfa0    program     static                          
      ___case_79_lbl00085   0x00cfa0    program     static                          
      ___case_53_lbl00086   0x00cfa0    program     static                          
     ___case_100_lbl00078   0x00cfa0    program     static                          
     ___case_112_lbl00072   0x00cfa0    program     static                          
     ___case_102_lbl00077   0x00cfa0    program     static                          
     ___case_110_lbl00073   0x00cfa0    program     static                          
     ___case_104_lbl00076   0x00cfa0    program     static                          
     ___case_108_lbl00074   0x00cfa0    program     static                          
     ___case_106_lbl00075   0x00cfa0    program     static                          
      ___case_99_lbl00093   0x00cfb0    program     static                          
     ___case_107_lbl00088   0x00cfb0    program     static                          
      ___case_90_lbl00097   0x00cfb0    program     static                          
     ___case_101_lbl00091   0x00cfb0    program     static                          
      ___case_96_lbl00092   0x00cfb0    program     static                          
     ___case_103_lbl00090   0x00cfb0    program     static                          
      ___case_93_lbl00094   0x00cfb0    program     static                          
     ___case_105_lbl00089   0x00cfb0    program     static                          
      ___case_92_lbl00095   0x00cfb0    program     static                          
      ___case_91_lbl00096   0x00cfb0    program     static                          
      ___case_86_lbl00102   0x00cfc0    program     static                          
      ___case_81_lbl00103   0x00cfc0    program     static                          
      ___case_80_lbl00119   0x00cfc0    program     static                          
      ___case_63_lbl00109   0x00cfc0    program     static                          
      ___case_89_lbl00101   0x00cfc0    program     static                          
      ___case_78_lbl00105   0x00cfc0    program     static                          
      ___case_77_lbl00106   0x00cfc0    program     static                          
      ___case_76_lbl00107   0x00cfc0    program     static                          
      ___case_64_lbl00108   0x00cfc0    program     static                          
      ___case_62_lbl00110   0x00cfc0    program     static                          
      ___case_61_lbl00111   0x00cfc0    program     static                          
     ___case_109_lbl00100   0x00cfc0    program     static                          
      ___case_58_lbl00114   0x00cfc0    program     static                          
     ___case_111_lbl00099   0x00cfc0    program     static                          
      ___case_57_lbl00115   0x00cfc0    program     static                          
      ___case_60_lbl00112   0x00cfc0    program     static                          
     ___case_113_lbl00098   0x00cfc0    program     static                          
     ___case_115_lbl00104   0x00cfc0    program     static                          
      ___case_56_lbl00116   0x00cfc0    program     static                          
      ___case_54_lbl00118   0x00cfc0    program     static                          
      ___case_55_lbl00117   0x00cfc0    program     static                          
      ___case_59_lbl00113   0x00cfc0    program     static                          
               __tmplbl_4   0x00cfd8    program     static                          
               __tmplbl_3   0x00cfe0    program     static                          
               __tmplbl_2   0x00cfe8    program     static                          
               __tmplbl_1   0x00cff0    program     static                          
               __tmplbl_0   0x00cff8    program     static                          
         ___else_lbl00125   0x00d002    program     static                          
           ___if_lbl00124   0x00d00a    program     static                          
      ___default_lbl00126   0x00d00c    program     static                          
   ___switchexit_lbl00010   0x00d00e    program     static                          
           ___do_lbl00003   0x00d00e    program     static                          
           ___do_lbl00004   0x00d016    program     static                          
               __tmplbl_9   0x00d02e    program     static                          
               __tmplbl_8   0x00d036    program     static                          
               __tmplbl_7   0x00d03e    program     static                          
               __tmplbl_6   0x00d046    program     static                          
               __tmplbl_5   0x00d04e    program     static                          
         ___else_lbl00133   0x00d058    program     static                          
       ___return_lbl00001   0x00d060    program     static                          
           ___if_lbl00132   0x00d060    program     static                          
                  NVMInit   0x00d06c    program     extern F:\Microchip Solutions\ZigBee2006Res\microchip\ZigBeeStack\zNVM.c
                 NVMWrite   0x00d06e    program     extern F:\Microchip Solutions\ZigBee2006Res\microchip\ZigBeeStack\zNVM.c
        ___while_lbl00002   0x00d08a    program     static                          
           ___if_lbl00004   0x00d0f8    program     static                          
        ___while_lbl00005   0x00d122    program     static                          
           ___if_lbl00007   0x00d17c    program     static                          
           ___if_lbl00008   0x00d1c6    program     static                          
        ___while_lbl00009   0x00d1ec    program     static                          
               __tmplbl_2   0x00d208    program     static                          
               __tmplbl_1   0x00d20a    program     static                          
               __tmplbl_0   0x00d210    program     static                          
        ___while_lbl00010   0x00d248    program     static                          
        ___while_lbl00012   0x00d26e    program     static                          
           ___if_lbl00014   0x00d286    program     static                          
        ___while_lbl00015   0x00d2a4    program     static                          
        ___while_lbl00016   0x00d2cc    program     static                          
           ___if_lbl00017   0x00d31e    program     static                          
        ___while_lbl00013   0x00d320    program     static                          
        ___while_lbl00006   0x00d32a    program     static                          
       ___return_lbl00001   0x00d340    program     static                          
        ___while_lbl00003   0x00d340    program     static                          
                 ClearNVM   0x00d358    program     extern F:\Microchip Solutions\ZigBee2006Res\microchip\ZigBeeStack\zNVM.c
          ___for_lbl00023   0x00d378    program     static                          
        ___while_lbl00021   0x00d39a    program     static                          
        ___while_lbl00022   0x00d406    program     static                          
          ___for_lbl00019   0x00d412    program     static                          
       ___return_lbl00018   0x00d41e    program     static                          
          ___for_lbl00020   0x00d41e    program     static                          
              macLongAddr   0x00d430    program     extern F:\Microchip Solutions\ZigBee2006Res\microchip\ZigBeeStack\zNVM.c
                   filler   0x00d438    program     extern F:\Microchip Solutions\ZigBee2006Res\microchip\ZigBeeStack\zNVM.c
       bindingValidityKey   0x00d478    program     extern F:\Microchip Solutions\ZigBee2006Res\microchip\ZigBeeStack\zNVM.c
          apsBindingTable   0x00d47a    program     extern F:\Microchip Solutions\ZigBee2006Res\microchip\ZigBeeStack\zNVM.c
     bindingTableUsageMap   0x00d510    program     extern F:\Microchip Solutions\ZigBee2006Res\microchip\ZigBeeStack\zNVM.c
bindingTableSourceNodeMap   0x00d514    program     extern F:\Microchip Solutions\ZigBee2006Res\microchip\ZigBeeStack\zNVM.c
     apsGroupAddressTable   0x00d518    program     extern F:\Microchip Solutions\ZigBee2006Res\microchip\ZigBeeStack\zNVM.c
        neighborTableInfo   0x00d568    program     extern F:\Microchip Solutions\ZigBee2006Res\microchip\ZigBeeStack\zNVM.c
            neighborTable   0x00d575    program     extern F:\Microchip Solutions\ZigBee2006Res\microchip\ZigBeeStack\zNVM.c
             routingTable   0x00d70d    program     extern F:\Microchip Solutions\ZigBee2006Res\microchip\ZigBeeStack\zNVM.c
 apsAddressMapValidityKey   0x00d75d    program     extern F:\Microchip Solutions\ZigBee2006Res\microchip\ZigBeeStack\zNVM.c
            apsAddressMap   0x00d75f    program     extern F:\Microchip Solutions\ZigBee2006Res\microchip\ZigBeeStack\zNVM.c
                  filler2   0x00d7af    program     extern F:\Microchip Solutions\ZigBee2006Res\microchip\ZigBeeStack\zNVM.c
                SRAMalloc   0x00d7f0    program     extern F:\Microchip Solutions\ZigBee2006Res\microchip\Common\sralloc.c
                 SRAMfree   0x00d8d4    program     extern F:\Microchip Solutions\ZigBee2006Res\microchip\Common\sralloc.c
             SRAMInitHeap   0x00d8e2    program     extern F:\Microchip Solutions\ZigBee2006Res\microchip\Common\sralloc.c
               _SRAMmerge   0x00d964    program     extern F:\Microchip Solutions\ZigBee2006Res\microchip\Common\sralloc.c
                   __pa_0   0x00da28    program     static F:\Microchip Solutions\ZigBee2006Res\microchip\Common\sralloc.c
                   __pa_1   0x00da2e    program     static F:\Microchip Solutions\ZigBee2006Res\microchip\Common\sralloc.c
                   __pa_2   0x00da3c    program     static F:\Microchip Solutions\ZigBee2006Res\microchip\Common\sralloc.c
                   __pa_3   0x00da4e    program     static F:\Microchip Solutions\ZigBee2006Res\microchip\Common\sralloc.c
                   __pa_4   0x00da5a    program     static F:\Microchip Solutions\ZigBee2006Res\microchip\Common\sralloc.c
                   __pa_5   0x00da64    program     static F:\Microchip Solutions\ZigBee2006Res\microchip\Common\sralloc.c
                   __pa_6   0x00da76    program     static F:\Microchip Solutions\ZigBee2006Res\microchip\Common\sralloc.c
                   __pa_7   0x00da82    program     static F:\Microchip Solutions\ZigBee2006Res\microchip\Common\sralloc.c
                   __pa_8   0x00da8e    program     static F:\Microchip Solutions\ZigBee2006Res\microchip\Common\sralloc.c
                 FLO3232U   0x00da9c    program     extern C:\MCC18\src\traditional\math\cast32FP.asm
                 FLO3232S   0x00daa0    program     extern C:\MCC18\src\traditional\math\cast32FP.asm
                jI2F32Beg   0x00dab8    program     static C:\MCC18\src\traditional\math\cast32FP.asm
                 FXM1616U   0x00dad2    program     extern C:\MCC18\src\traditional\math\fxm1616u.asm
                  TAGTB32   0x00db0e    program     extern C:\MCC18\src\traditional\math\gtFP.asm
              __FpCompare   0x00db20    program     extern C:\MCC18\src\traditional\math\compFP.asm
             jBothNotZero   0x00db3e    program     static C:\MCC18\src\traditional\math\compFP.asm
                 jSignsEQ   0x00db42    program     static C:\MCC18\src\traditional\math\compFP.asm
                      jEQ   0x00db5a    program     static C:\MCC18\src\traditional\math\compFP.asm
                      jNE   0x00db5e    program     static C:\MCC18\src\traditional\math\compFP.asm
                    jExch   0x00db66    program     static C:\MCC18\src\traditional\math\compFP.asm
                  jNoExch   0x00db86    program     static C:\MCC18\src\traditional\math\compFP.asm
                   jFinal   0x00db90    program     static C:\MCC18\src\traditional\math\compFP.asm
                  jAisNeg   0x00db9c    program     static C:\MCC18\src\traditional\math\compFP.asm
                   jShift   0x00dba2    program     static C:\MCC18\src\traditional\math\compFP.asm
                   jExpEQ   0x00dbac    program     static C:\MCC18\src\traditional\math\compFP.asm
                  jRotate   0x00dbb8    program     static C:\MCC18\src\traditional\math\compFP.asm
            __FpReturnNaN   0x00dbca    program     extern C:\MCC18\src\traditional\math\packFP.asm
                 __FpExit   0x00dbd6    program     extern C:\MCC18\src\traditional\math\packFP.asm
        __FpReturnSignInf   0x00dbd8    program     extern C:\MCC18\src\traditional\math\packFP.asm
         __FpReturnNegInf   0x00dbdc    program     extern C:\MCC18\src\traditional\math\packFP.asm
         __FpReturnPosInf   0x00dbe2    program     extern C:\MCC18\src\traditional\math\packFP.asm
           jReturnPosInf0   0x00dbe6    program     static C:\MCC18\src\traditional\math\packFP.asm
               jZero1and2   0x00dbea    program     static C:\MCC18\src\traditional\math\packFP.asm
       __FpReturnSignZero   0x00dbf0    program     extern C:\MCC18\src\traditional\math\packFP.asm
        __FpReturnNegZero   0x00dbf4    program     extern C:\MCC18\src\traditional\math\packFP.asm
        __FpReturnPosZero   0x00dbfc    program     extern C:\MCC18\src\traditional\math\packFP.asm
                 __FpPack   0x00dc02    program     extern C:\MCC18\src\traditional\math\packFP.asm
                  jPkLoop   0x00dc10    program     static C:\MCC18\src\traditional\math\packFP.asm
             jPkShiftDone   0x00dc2c    program     static C:\MCC18\src\traditional\math\packFP.asm
               jPkRoundIt   0x00dc42    program     static C:\MCC18\src\traditional\math\packFP.asm
              __FpReturnW   0x00dc5a    program     extern C:\MCC18\src\traditional\math\packFP.asm
             jPkRoundDone   0x00dc5a    program     static C:\MCC18\src\traditional\math\packFP.asm
              __FpUnPackA   0x00dc7a    program     extern C:\MCC18\src\traditional\math\UnpackFP.asm
                  jUnpkA1   0x00dc84    program     static C:\MCC18\src\traditional\math\UnpackFP.asm
                 jUnpkANZ   0x00dc92    program     static C:\MCC18\src\traditional\math\UnpackFP.asm
                  jUnpkA2   0x00dc9c    program     static C:\MCC18\src\traditional\math\UnpackFP.asm
                 jUnpkNaN   0x00dca6    program     static C:\MCC18\src\traditional\math\UnpackFP.asm
              __FpUnPackB   0x00dcaa    program     extern C:\MCC18\src\traditional\math\UnpackFP.asm
                  jUnpkB1   0x00dcb4    program     static C:\MCC18\src\traditional\math\UnpackFP.asm
                 jUnpkBNZ   0x00dcc2    program     static C:\MCC18\src\traditional\math\UnpackFP.asm
                  jUnpkB2   0x00dccc    program     static C:\MCC18\src\traditional\math\UnpackFP.asm
              ConsoleInit   0x00dcd6    program     extern F:\Microchip Solutions\ZigBee2006Res\microchip\Common\Console.c
      ConsolePutROMString   0x00dcee    program     extern F:\Microchip Solutions\ZigBee2006Res\microchip\Common\Console.c
         ConsoleGetString   0x00dd20    program     extern F:\Microchip Solutions\ZigBee2006Res\microchip\Common\Console.c
               ConsolePut   0x00dd74    program     extern F:\Microchip Solutions\ZigBee2006Res\microchip\Common\Console.c
         ConsolePutString   0x00dd82    program     extern F:\Microchip Solutions\ZigBee2006Res\microchip\Common\Console.c
               ConsoleGet   0x00dda6    program     extern F:\Microchip Solutions\ZigBee2006Res\microchip\Common\Console.c
                PrintChar   0x00ddb2    program     extern F:\Microchip Solutions\ZigBee2006Res\microchip\Common\Console.c
                   __pa_0   0x00ddd0    program     static F:\Microchip Solutions\ZigBee2006Res\microchip\Common\Console.c
                   __pa_1   0x00dde2    program     static F:\Microchip Solutions\ZigBee2006Res\microchip\Common\Console.c
                   __pa_2   0x00ddee    program     static F:\Microchip Solutions\ZigBee2006Res\microchip\Common\Console.c
                   __pa_3   0x00de0e    program     static F:\Microchip Solutions\ZigBee2006Res\microchip\Common\Console.c
                   memcmp   0x00de1e    program     extern C:\MCC18\src\traditional\stdclib\memcmp.asm
                    jLoop   0x00de3e    program     static C:\MCC18\src\traditional\stdclib\memcmp.asm
              _4jContinue   0x00de4a    program     static C:\MCC18\src\traditional\stdclib\memcmp.asm
                   _5jEnd   0x00de54    program     static C:\MCC18\src\traditional\stdclib\memcmp.asm
                     jEnd   0x00de5a    program     static C:\MCC18\src\traditional\stdclib\memcmp.asm
            memcmppgm2ram   0x00de70    program     extern C:\MCC18\src\traditional\stdclib\mcmpp2r.asm
                    jLoop   0x00de8e    program     static C:\MCC18\src\traditional\stdclib\mcmpp2r.asm
              _3jContinue   0x00de9a    program     static C:\MCC18\src\traditional\stdclib\mcmpp2r.asm
                   _4jEnd   0x00dea4    program     static C:\MCC18\src\traditional\stdclib\mcmpp2r.asm
                     jEnd   0x00deac    program     static C:\MCC18\src\traditional\stdclib\mcmpp2r.asm
                   memcpy   0x00deae    program     extern C:\MCC18\src\traditional\stdclib\memcpy.asm
                    jLoop   0x00ded6    program     static C:\MCC18\src\traditional\stdclib\memcpy.asm
              _4jContinue   0x00dee2    program     static C:\MCC18\src\traditional\stdclib\memcpy.asm
                   _5jEnd   0x00deec    program     static C:\MCC18\src\traditional\stdclib\memcpy.asm
                     jEnd   0x00def2    program     static C:\MCC18\src\traditional\stdclib\memcpy.asm
            memcpypgm2ram   0x00df04    program     extern C:\MCC18\src\traditional\stdclib\mcpyp2r.asm
                    jLoop   0x00df2a    program     static C:\MCC18\src\traditional\stdclib\mcpyp2r.asm
              _3jContinue   0x00df36    program     static C:\MCC18\src\traditional\stdclib\mcpyp2r.asm
                   _4jEnd   0x00df40    program     static C:\MCC18\src\traditional\stdclib\mcpyp2r.asm
                     jEnd   0x00df48    program     static C:\MCC18\src\traditional\stdclib\mcpyp2r.asm
          InitSymbolTimer   0x00df4a    program     extern F:\Microchip Solutions\ZigBee2006Res\microchip\ZigBeeStack\SymbolTime.c
                  TickGet   0x00df5e    program     extern F:\Microchip Solutions\ZigBee2006Res\microchip\ZigBeeStack\SymbolTime.c
   Config_Node_Descriptor   0x00dff4    program     extern F:\Microchip Solutions\ZigBee2006Res\DemoPIC18Coordinator\myZigBee.c
  Config_Power_Descriptor   0x00dffe    program     extern F:\Microchip Solutions\ZigBee2006Res\DemoPIC18Coordinator\myZigBee.c
Config_Simple_Descriptors   0x00e000    program     extern F:\Microchip Solutions\ZigBee2006Res\DemoPIC18Coordinator\myZigBee.c
Config_NWK_Mode_and_Params   0x00e090    program     extern F:\Microchip Solutions\ZigBee2006Res\DemoPIC18Coordinator\myZigBee.c
                _do_cinit   0x00e09a    program     extern C:\MCC18\src\traditional\startup\c018i.c
                     test   0x00e0b4    program     static                          
                copy_loop   0x00e10c    program     static                          
            copy_one_byte   0x00e112    program     static                          
             done_copying   0x00e120    program     static                          
       ___return_lbl00002   0x00e136    program     static                          
                     done   0x00e136    program     static                          
                   SPIPut   0x00e138    program     extern F:\Microchip Solutions\ZigBee2006Res\microchip\Common\MSPI.c
                   SPIGet   0x00e14e    program     extern F:\Microchip Solutions\ZigBee2006Res\microchip\Common\MSPI.c
              SPIGetArray   0x00e158    program     extern F:\Microchip Solutions\ZigBee2006Res\microchip\Common\MSPI.c
              SPIPutArray   0x00e172    program     extern F:\Microchip Solutions\ZigBee2006Res\microchip\Common\MSPI.c
                   __pa_0   0x00e18a    program     static F:\Microchip Solutions\ZigBee2006Res\microchip\Common\MSPI.c
                   __pa_1   0x00e19c    program     static F:\Microchip Solutions\ZigBee2006Res\microchip\Common\MSPI.c
                   __pa_2   0x00e1a8    program     static F:\Microchip Solutions\ZigBee2006Res\microchip\Common\MSPI.c
                   __pa_3   0x00e1b8    program     static F:\Microchip Solutions\ZigBee2006Res\microchip\Common\MSPI.c
                  FXM3232   0x00e1c6    program     extern C:\MCC18\src\traditional\math\fxm3232.c
       ___return_lbl00000   0x00e234    program     static                          
                timeToAdd   0x00e236    program     extern F:\Microchip Solutions\ZigBee2006Res\microchip\ZigBeeStack\zMAC_MRF24J40.c
            __zero_memory   0x00e272    program     extern C:\MCC18\src\traditional\proc\p18F4620.asm
                   loop_h   0x00e280    program     static C:\MCC18\src\traditional\proc\p18F4620.asm
               zero_block   0x00e280    program     static C:\MCC18\src\traditional\proc\p18F4620.asm
                compare_l   0x00e288    program     static C:\MCC18\src\traditional\proc\p18F4620.asm
                   loop_l   0x00e28a    program     static C:\MCC18\src\traditional\proc\p18F4620.asm
                 _startup   0x00e292    program     extern C:\MCC18\src\traditional\startup\c018i.c
                     loop   0x00e2a2    program     static                          
       ___return_lbl00001   0x00e2ac    program     static                          
           CharacterArray   0x00e2ae    program     extern F:\Microchip Solutions\ZigBee2006Res\microchip\Common\Console.c
                   __init   0x00e2be    program     extern C:\MCC18\src\traditional\stdclib\__init.c
                 config1H   0x300001    program     extern F:\Microchip Solutions\ZigBee2006Res\DemoPIC18Coordinator\Coordinator.c
                 config2L   0x300002    program     extern F:\Microchip Solutions\ZigBee2006Res\DemoPIC18Coordinator\Coordinator.c
                 config2H   0x300003    program     extern F:\Microchip Solutions\ZigBee2006Res\DemoPIC18Coordinator\Coordinator.c
                 config3H   0x300005    program     extern F:\Microchip Solutions\ZigBee2006Res\DemoPIC18Coordinator\Coordinator.c
                 config4L   0x300006    program     extern F:\Microchip Solutions\ZigBee2006Res\DemoPIC18Coordinator\Coordinator.c
                     SIGN   0x000000       data     extern C:\MCC18\src\traditional\math\cmath18.asm
            __FPFLAGSbits   0x000001       data     extern C:\MCC18\src\traditional\math\cmath18.asm
                __FPFLAGS   0x000001       data     extern C:\MCC18\src\traditional\math\cmath18.asm
                  __REMB3   0x000002       data     extern C:\MCC18\src\traditional\math\aarg.asm
                 __AARGB7   0x000002       data     extern C:\MCC18\src\traditional\math\aarg.asm
                  __REMB2   0x000003       data     extern C:\MCC18\src\traditional\math\aarg.asm
                 __AARGB6   0x000003       data     extern C:\MCC18\src\traditional\math\aarg.asm
                  __REMB1   0x000004       data     extern C:\MCC18\src\traditional\math\aarg.asm
                 __AARGB5   0x000004       data     extern C:\MCC18\src\traditional\math\aarg.asm
                  __REMB0   0x000005       data     extern C:\MCC18\src\traditional\math\aarg.asm
                 __AARGB4   0x000005       data     extern C:\MCC18\src\traditional\math\aarg.asm
                 __AARGB3   0x000006       data     extern C:\MCC18\src\traditional\math\aarg.asm
                 __AARGB2   0x000007       data     extern C:\MCC18\src\traditional\math\aarg.asm
                 __AARGB1   0x000008       data     extern C:\MCC18\src\traditional\math\aarg.asm
                 __AARGB0   0x000009       data     extern C:\MCC18\src\traditional\math\aarg.asm
                   __AEXP   0x00000a       data     extern C:\MCC18\src\traditional\math\aarg.asm
                 __BARGB3   0x00000b       data     extern C:\MCC18\src\traditional\math\barg.asm
                 __BARGB2   0x00000c       data     extern C:\MCC18\src\traditional\math\barg.asm
                 __BARGB1   0x00000d       data     extern C:\MCC18\src\traditional\math\barg.asm
                 __BARGB0   0x00000e       data     extern C:\MCC18\src\traditional\math\barg.asm
                   __BEXP   0x00000f       data     extern C:\MCC18\src\traditional\math\barg.asm
                 __TEMPB3   0x000010       data     extern C:\MCC18\src\traditional\math\temparg.asm
                 __TEMPB2   0x000011       data     extern C:\MCC18\src\traditional\math\temparg.asm
                 __TEMPB1   0x000012       data     extern C:\MCC18\src\traditional\math\temparg.asm
                   __TEMP   0x000013       data     extern C:\MCC18\src\traditional\math\temparg.asm
                 __TEMPB0   0x000013       data     extern C:\MCC18\src\traditional\math\temparg.asm
                  __tmp_0   0x000014       data     static F:\Microchip Solutions\ZigBee2006Res\microchip\ZigBeeStack\zZDO.C
                  __tmp_0   0x000014       data     static F:\Microchip Solutions\ZigBee2006Res\microchip\ZigBeeStack\zNVM.c
                  __tmp_0   0x000014       data     static F:\Microchip Solutions\ZigBee2006Res\microchip\ZigBeeStack\zPHY_MRF24J40.c
                  __tmp_0   0x000014       data     static F:\Microchip Solutions\ZigBee2006Res\microchip\ZigBeeStack\zMAC_MRF24J40.c
                  __tmp_0   0x000014       data     static F:\Microchip Solutions\ZigBee2006Res\microchip\ZigBeeStack\zNWK.c
                  __tmp_0   0x000014       data     static F:\Microchip Solutions\ZigBee2006Res\DemoPIC18Coordinator\Coordinator.c
                  __tmp_0   0x000014       data     static F:\Microchip Solutions\ZigBee2006Res\microchip\ZigBeeStack\zAPS.c
                  __tmp_0   0x000014       data     static F:\Microchip Solutions\ZigBee2006Res\microchip\Common\sralloc.c
                  __tmp_1   0x000024       data     static F:\Microchip Solutions\ZigBee2006Res\microchip\ZigBeeStack\zPHY_MRF24J40.c
                FIRST_RUN   0x000080       data     extern F:\Microchip Solutions\ZigBee2006Res\DemoPIC18Coordinator\Coordinator.c
                   apsACK   0x000081       data     extern F:\Microchip Solutions\ZigBee2006Res\DemoPIC18Coordinator\Coordinator.c
                     menu   0x000082       data     extern F:\Microchip Solutions\ZigBee2006Res\DemoPIC18Coordinator\Coordinator.c
                    RX_On   0x000084       data     extern F:\Microchip Solutions\ZigBee2006Res\DemoPIC18Coordinator\Coordinator.c
              gettingAcks   0x000085       data     extern F:\Microchip Solutions\ZigBee2006Res\DemoPIC18Coordinator\Coordinator.c
          group_state_ID5   0x000086       data     extern F:\Microchip Solutions\ZigBee2006Res\DemoPIC18Coordinator\Coordinator.c
          group_state_ID4   0x000087       data     extern F:\Microchip Solutions\ZigBee2006Res\DemoPIC18Coordinator\Coordinator.c
                GROUP_ID4   0x000088       data     extern F:\Microchip Solutions\ZigBee2006Res\DemoPIC18Coordinator\Coordinator.c
                GROUP_ID5   0x000089       data     extern F:\Microchip Solutions\ZigBee2006Res\DemoPIC18Coordinator\Coordinator.c
          PB_LEFT_pressed   0x00008a       data     extern F:\Microchip Solutions\ZigBee2006Res\DemoPIC18Coordinator\Coordinator.c
         PB_RIGHT_pressed   0x00008b       data     extern F:\Microchip Solutions\ZigBee2006Res\DemoPIC18Coordinator\Coordinator.c
            _uDynamicHeap   0x000100       data     extern F:\Microchip Solutions\ZigBee2006Res\microchip\Common\sralloc.c
                 RxBuffer   0x000a00       data     extern F:\Microchip Solutions\ZigBee2006Res\microchip\ZigBeeStack\ZigbeeTasks.c
         rejoinIndication   0x000b00       data     extern F:\Microchip Solutions\ZigBee2006Res\microchip\ZigBeeStack\zNWK.c
   nwkConfirmationHandles   0x000b18       data     extern F:\Microchip Solutions\ZigBee2006Res\microchip\ZigBeeStack\zNWK.c
                      NIB   0x000b78       data     extern F:\Microchip Solutions\ZigBee2006Res\microchip\ZigBeeStack\zNWK.c
                nwkStatus   0x000b79       data     extern F:\Microchip Solutions\ZigBee2006Res\microchip\ZigBeeStack\zNWK.c
             routeDstInfo   0x000bd3       data     extern F:\Microchip Solutions\ZigBee2006Res\microchip\ZigBeeStack\zNWK.c
routeDiscoveryTablePointer   0x000be2       data     extern F:\Microchip Solutions\ZigBee2006Res\microchip\ZigBeeStack\zNWK.c
        nwkIEEEDstAddress   0x000bea       data     static F:\Microchip Solutions\ZigBee2006Res\microchip\ZigBeeStack\zNWK.c
        nwkIEEESrcAddress   0x000bf2       data     static F:\Microchip Solutions\ZigBee2006Res\microchip\ZigBeeStack\zNWK.c
             oldShortAddr   0x000bfa       data     static F:\Microchip Solutions\ZigBee2006Res\microchip\ZigBeeStack\zNWK.c
       doingRejoinCommand   0x000bfc       data     extern F:\Microchip Solutions\ZigBee2006Res\microchip\ZigBeeStack\zNWK.c
            updatepayload   0x000bfd       data     extern F:\Microchip Solutions\ZigBee2006Res\microchip\ZigBeeStack\zNWK.c
        SendingEDBRequest   0x000bfe       data     extern F:\Microchip Solutions\ZigBee2006Res\microchip\ZigBeeStack\zAPS.c
          SentBindRequest   0x000bff       data     extern F:\Microchip Solutions\ZigBee2006Res\microchip\ZigBeeStack\zAPS.c
        apsDuplicateTable   0x000c00       data     extern F:\Microchip Solutions\ZigBee2006Res\microchip\ZigBeeStack\zAPS.c
     currentBindingRecord   0x000ca8       data     extern F:\Microchip Solutions\ZigBee2006Res\microchip\ZigBeeStack\zNVM.c
    pCurrentBindingRecord   0x000cae       data     extern F:\Microchip Solutions\ZigBee2006Res\microchip\ZigBeeStack\zNVM.c
pCurrentGroupAddressRecord   0x000cb0       data     extern F:\Microchip Solutions\ZigBee2006Res\microchip\ZigBeeStack\zNVM.c
    currentNeighborRecord   0x000cb2       data     extern F:\Microchip Solutions\ZigBee2006Res\microchip\ZigBeeStack\zNVM.c
 currentNeighborTableInfo   0x000cc3       data     extern F:\Microchip Solutions\ZigBee2006Res\microchip\ZigBeeStack\zNVM.c
   pCurrentNeighborRecord   0x000cd0       data     extern F:\Microchip Solutions\ZigBee2006Res\microchip\ZigBeeStack\zNVM.c
      currentRoutingEntry   0x000cd2       data     extern F:\Microchip Solutions\ZigBee2006Res\microchip\ZigBeeStack\zNVM.c
     pCurrentRoutingEntry   0x000cd7       data     extern F:\Microchip Solutions\ZigBee2006Res\microchip\ZigBeeStack\zNVM.c
        currentAPSAddress   0x000cd9       data     extern F:\Microchip Solutions\ZigBee2006Res\microchip\ZigBeeStack\zNVM.c
         currentPrimitive   0x000ce3       data     extern F:\Microchip Solutions\ZigBee2006Res\DemoPIC18Coordinator\Coordinator.c
       destinationAddress   0x000ce4       data     extern F:\Microchip Solutions\ZigBee2006Res\DemoPIC18Coordinator\Coordinator.c
            myStatusFlags   0x000ce6       data     static F:\Microchip Solutions\ZigBee2006Res\DemoPIC18Coordinator\Coordinator.c
        discoveredAddress   0x000ce7       data     extern F:\Microchip Solutions\ZigBee2006Res\DemoPIC18Coordinator\Coordinator.c
           routeDiscovery   0x000ce9       data     extern F:\Microchip Solutions\ZigBee2006Res\DemoPIC18Coordinator\Coordinator.c
           MSGPacketCount   0x000cea       data     extern F:\Microchip Solutions\ZigBee2006Res\DemoPIC18Coordinator\Coordinator.c
                        i   0x000cec       data     extern F:\Microchip Solutions\ZigBee2006Res\DemoPIC18Coordinator\Coordinator.c
                    temp2   0x000ced       data     extern F:\Microchip Solutions\ZigBee2006Res\DemoPIC18Coordinator\Coordinator.c
       PB_LEFT_press_time   0x000cee       data     extern F:\Microchip Solutions\ZigBee2006Res\DemoPIC18Coordinator\Coordinator.c
      PB_RIGHT_press_time   0x000cf2       data     extern F:\Microchip Solutions\ZigBee2006Res\DemoPIC18Coordinator\Coordinator.c
           tickDifference   0x000cf6       data     extern F:\Microchip Solutions\ZigBee2006Res\DemoPIC18Coordinator\Coordinator.c
          tick2Difference   0x000cfa       data     extern F:\Microchip Solutions\ZigBee2006Res\DemoPIC18Coordinator\Coordinator.c
          timerExtension1   0x000cfe       data     extern F:\Microchip Solutions\ZigBee2006Res\microchip\ZigBeeStack\SymbolTime.c
          timerExtension2   0x000cff       data     extern F:\Microchip Solutions\ZigBee2006Res\microchip\ZigBeeStack\SymbolTime.c
     associationReqParams   0x000d00       data     extern F:\Microchip Solutions\ZigBee2006Res\microchip\ZigBeeStack\zMAC_MRF24J40.c
            currentPacket   0x000d03       data     extern F:\Microchip Solutions\ZigBee2006Res\microchip\ZigBeeStack\zMAC_MRF24J40.c
       macIndirectBuffers   0x000d13       data     extern F:\Microchip Solutions\ZigBee2006Res\microchip\ZigBeeStack\zMAC_MRF24J40.c
                   macPIB   0x000d43       data     extern F:\Microchip Solutions\ZigBee2006Res\microchip\ZigBeeStack\zMAC_MRF24J40.c
                macStatus   0x000d5d       data     extern F:\Microchip Solutions\ZigBee2006Res\microchip\ZigBeeStack\zMAC_MRF24J40.c
          macTasksPending   0x000d5e       data     extern F:\Microchip Solutions\ZigBee2006Res\microchip\ZigBeeStack\zMAC_MRF24J40.c
               scanParams   0x000d5f       data     extern F:\Microchip Solutions\ZigBee2006Res\microchip\ZigBeeStack\zMAC_MRF24J40.c
          tempLongAddress   0x000d7b       data     extern F:\Microchip Solutions\ZigBee2006Res\microchip\ZigBeeStack\zMAC_MRF24J40.c
               APSCounter   0x000d83       data     extern F:\Microchip Solutions\ZigBee2006Res\microchip\ZigBeeStack\zAPS.c
           apsChannelMask   0x000d84       data     extern F:\Microchip Solutions\ZigBee2006Res\microchip\ZigBeeStack\zAPS.c
                apsStatus   0x000d88       data     extern F:\Microchip Solutions\ZigBee2006Res\microchip\ZigBeeStack\zAPS.c
   apsConfirmationHandles   0x000db5       data     extern F:\Microchip Solutions\ZigBee2006Res\microchip\ZigBeeStack\zAPS.c
currentGroupAddressRecord   0x000dd7       data     extern F:\Microchip Solutions\ZigBee2006Res\microchip\ZigBeeStack\zAPS.c
       currentAPSAddress1   0x000de1       data     extern F:\Microchip Solutions\ZigBee2006Res\microchip\ZigBeeStack\zAPS.c
                IntStatus   0x000deb       data     extern F:\Microchip Solutions\ZigBee2006Res\microchip\ZigBeeStack\zPHY_MRF24J40.c
   pendingAckFrameControl   0x000dec       data     extern F:\Microchip Solutions\ZigBee2006Res\microchip\ZigBeeStack\zPHY_MRF24J40.c
                 phyError   0x000dee       data     extern F:\Microchip Solutions\ZigBee2006Res\microchip\ZigBeeStack\zPHY_MRF24J40.c
                   phyPIB   0x000def       data     extern F:\Microchip Solutions\ZigBee2006Res\microchip\ZigBeeStack\zPHY_MRF24J40.c
          PHYTasksPending   0x000df5       data     extern F:\Microchip Solutions\ZigBee2006Res\microchip\ZigBeeStack\zPHY_MRF24J40.c
                   RxData   0x000df6       data     extern F:\Microchip Solutions\ZigBee2006Res\microchip\ZigBeeStack\zPHY_MRF24J40.c
          TRXCurrentState   0x000df7       data     extern F:\Microchip Solutions\ZigBee2006Res\microchip\ZigBeeStack\zPHY_MRF24J40.c
                   TxStat   0x000df8       data     extern F:\Microchip Solutions\ZigBee2006Res\microchip\ZigBeeStack\zPHY_MRF24J40.c
                savedBits   0x000df9       data     extern F:\Microchip Solutions\ZigBee2006Res\microchip\ZigBeeStack\zPHY_MRF24J40.c
                 TxBuffer   0x000e00       data     extern F:\Microchip Solutions\ZigBee2006Res\microchip\ZigBeeStack\ZigbeeTasks.c
          CurrentRxPacket   0x000e80       data     extern F:\Microchip Solutions\ZigBee2006Res\microchip\ZigBeeStack\ZigbeeTasks.c
                   params   0x000e82       data     extern F:\Microchip Solutions\ZigBee2006Res\microchip\ZigBeeStack\ZigbeeTasks.c
                   RxRead   0x000ea4       data     extern F:\Microchip Solutions\ZigBee2006Res\microchip\ZigBeeStack\ZigbeeTasks.c
                  RxWrite   0x000ea5       data     extern F:\Microchip Solutions\ZigBee2006Res\microchip\ZigBeeStack\ZigbeeTasks.c
                   TxData   0x000ea6       data     extern F:\Microchip Solutions\ZigBee2006Res\microchip\ZigBeeStack\ZigbeeTasks.c
                 TxHeader   0x000ea7       data     extern F:\Microchip Solutions\ZigBee2006Res\microchip\ZigBeeStack\ZigbeeTasks.c
             ZigBeeStatus   0x000ea8       data     extern F:\Microchip Solutions\ZigBee2006Res\microchip\ZigBeeStack\ZigbeeTasks.c
      pBindInProgressInfo   0x000eaa       data     extern F:\Microchip Solutions\ZigBee2006Res\microchip\ZigBeeStack\zZDO.C
     pFirstEndBindRequest   0x000eac       data     static F:\Microchip Solutions\ZigBee2006Res\microchip\ZigBeeStack\zZDO.C
    pSecondEndBindRequest   0x000eae       data     static F:\Microchip Solutions\ZigBee2006Res\microchip\ZigBeeStack\zZDO.C
           sequenceNumber   0x000eb0       data     extern F:\Microchip Solutions\ZigBee2006Res\microchip\ZigBeeStack\zZDO.C
                zdoStatus   0x000eb1       data     extern F:\Microchip Solutions\ZigBee2006Res\microchip\ZigBeeStack\zZDO.C
               ZDOCounter   0x000eb2       data     extern F:\Microchip Solutions\ZigBee2006Res\microchip\ZigBeeStack\zZDO.C
                    dAddr   0x000eb3       data     extern F:\Microchip Solutions\ZigBee2006Res\microchip\ZigBeeStack\zZDO.C
         simpleDescriptor   0x000eb5       data     extern F:\Microchip Solutions\ZigBee2006Res\microchip\ZigBeeStack\zZDO.C
            matchCluster1   0x000ee5       data     extern F:\Microchip Solutions\ZigBee2006Res\microchip\ZigBeeStack\zZDO.C
            matchCluster2   0x000ee7       data     extern F:\Microchip Solutions\ZigBee2006Res\microchip\ZigBeeStack\zZDO.C
                     prom   0x000ee9       data     static C:\MCC18\src\traditional\startup\c018i.c
                curr_byte   0x000eec       data     static C:\MCC18\src\traditional\startup\c018i.c
               curr_entry   0x000eee       data     static C:\MCC18\src\traditional\startup\c018i.c
                 data_ptr   0x000ef0       data     static C:\MCC18\src\traditional\startup\c018i.c
                PORTAbits   0x000f80       data     extern C:\MCC18\src\traditional\proc\p18F4620.asm
                    PORTA   0x000f80       data     extern C:\MCC18\src\traditional\proc\p18F4620.asm
                PORTBbits   0x000f81       data     extern C:\MCC18\src\traditional\proc\p18F4620.asm
                    PORTB   0x000f81       data     extern C:\MCC18\src\traditional\proc\p18F4620.asm
                    PORTC   0x000f82       data     extern C:\MCC18\src\traditional\proc\p18F4620.asm
                PORTCbits   0x000f82       data     extern C:\MCC18\src\traditional\proc\p18F4620.asm
                    PORTD   0x000f83       data     extern C:\MCC18\src\traditional\proc\p18F4620.asm
                PORTDbits   0x000f83       data     extern C:\MCC18\src\traditional\proc\p18F4620.asm
                PORTEbits   0x000f84       data     extern C:\MCC18\src\traditional\proc\p18F4620.asm
                    PORTE   0x000f84       data     extern C:\MCC18\src\traditional\proc\p18F4620.asm
                     LATA   0x000f89       data     extern C:\MCC18\src\traditional\proc\p18F4620.asm
                 LATAbits   0x000f89       data     extern C:\MCC18\src\traditional\proc\p18F4620.asm
                 LATBbits   0x000f8a       data     extern C:\MCC18\src\traditional\proc\p18F4620.asm
                     LATB   0x000f8a       data     extern C:\MCC18\src\traditional\proc\p18F4620.asm
                 LATCbits   0x000f8b       data     extern C:\MCC18\src\traditional\proc\p18F4620.asm
                     LATC   0x000f8b       data     extern C:\MCC18\src\traditional\proc\p18F4620.asm
                     LATD   0x000f8c       data     extern C:\MCC18\src\traditional\proc\p18F4620.asm
                 LATDbits   0x000f8c       data     extern C:\MCC18\src\traditional\proc\p18F4620.asm
                 LATEbits   0x000f8d       data     extern C:\MCC18\src\traditional\proc\p18F4620.asm
                     LATE   0x000f8d       data     extern C:\MCC18\src\traditional\proc\p18F4620.asm
                    TRISA   0x000f92       data     extern C:\MCC18\src\traditional\proc\p18F4620.asm
                TRISAbits   0x000f92       data     extern C:\MCC18\src\traditional\proc\p18F4620.asm
                     DDRA   0x000f92       data     extern C:\MCC18\src\traditional\proc\p18F4620.asm
                 DDRAbits   0x000f92       data     extern C:\MCC18\src\traditional\proc\p18F4620.asm
                    TRISB   0x000f93       data     extern C:\MCC18\src\traditional\proc\p18F4620.asm
                     DDRB   0x000f93       data     extern C:\MCC18\src\traditional\proc\p18F4620.asm
                 DDRBbits   0x000f93       data     extern C:\MCC18\src\traditional\proc\p18F4620.asm
                TRISBbits   0x000f93       data     extern C:\MCC18\src\traditional\proc\p18F4620.asm
                    TRISC   0x000f94       data     extern C:\MCC18\src\traditional\proc\p18F4620.asm
                TRISCbits   0x000f94       data     extern C:\MCC18\src\traditional\proc\p18F4620.asm
                 DDRCbits   0x000f94       data     extern C:\MCC18\src\traditional\proc\p18F4620.asm
                     DDRC   0x000f94       data     extern C:\MCC18\src\traditional\proc\p18F4620.asm
                TRISDbits   0x000f95       data     extern C:\MCC18\src\traditional\proc\p18F4620.asm
                    TRISD   0x000f95       data     extern C:\MCC18\src\traditional\proc\p18F4620.asm
                 DDRDbits   0x000f95       data     extern C:\MCC18\src\traditional\proc\p18F4620.asm
                     DDRD   0x000f95       data     extern C:\MCC18\src\traditional\proc\p18F4620.asm
                TRISEbits   0x000f96       data     extern C:\MCC18\src\traditional\proc\p18F4620.asm
                    TRISE   0x000f96       data     extern C:\MCC18\src\traditional\proc\p18F4620.asm
                 DDREbits   0x000f96       data     extern C:\MCC18\src\traditional\proc\p18F4620.asm
                     DDRE   0x000f96       data     extern C:\MCC18\src\traditional\proc\p18F4620.asm
              OSCTUNEbits   0x000f9b       data     extern C:\MCC18\src\traditional\proc\p18F4620.asm
                  OSCTUNE   0x000f9b       data     extern C:\MCC18\src\traditional\proc\p18F4620.asm
                 PIE1bits   0x000f9d       data     extern C:\MCC18\src\traditional\proc\p18F4620.asm
                     PIE1   0x000f9d       data     extern C:\MCC18\src\traditional\proc\p18F4620.asm
                 PIR1bits   0x000f9e       data     extern C:\MCC18\src\traditional\proc\p18F4620.asm
                     PIR1   0x000f9e       data     extern C:\MCC18\src\traditional\proc\p18F4620.asm
                     IPR1   0x000f9f       data     extern C:\MCC18\src\traditional\proc\p18F4620.asm
                 IPR1bits   0x000f9f       data     extern C:\MCC18\src\traditional\proc\p18F4620.asm
                     PIE2   0x000fa0       data     extern C:\MCC18\src\traditional\proc\p18F4620.asm
                 PIE2bits   0x000fa0       data     extern C:\MCC18\src\traditional\proc\p18F4620.asm
                 PIR2bits   0x000fa1       data     extern C:\MCC18\src\traditional\proc\p18F4620.asm
                     PIR2   0x000fa1       data     extern C:\MCC18\src\traditional\proc\p18F4620.asm
                     IPR2   0x000fa2       data     extern C:\MCC18\src\traditional\proc\p18F4620.asm
                 IPR2bits   0x000fa2       data     extern C:\MCC18\src\traditional\proc\p18F4620.asm
               EECON1bits   0x000fa6       data     extern C:\MCC18\src\traditional\proc\p18F4620.asm
                   EECON1   0x000fa6       data     extern C:\MCC18\src\traditional\proc\p18F4620.asm
                   EECON2   0x000fa7       data     extern C:\MCC18\src\traditional\proc\p18F4620.asm
                   EEDATA   0x000fa8       data     extern C:\MCC18\src\traditional\proc\p18F4620.asm
                    EEADR   0x000fa9       data     extern C:\MCC18\src\traditional\proc\p18F4620.asm
                   EEADRH   0x000faa       data     extern C:\MCC18\src\traditional\proc\p18F4620.asm
                    RCSTA   0x000fab       data     extern C:\MCC18\src\traditional\proc\p18F4620.asm
                RCSTAbits   0x000fab       data     extern C:\MCC18\src\traditional\proc\p18F4620.asm
                TXSTAbits   0x000fac       data     extern C:\MCC18\src\traditional\proc\p18F4620.asm
                    TXSTA   0x000fac       data     extern C:\MCC18\src\traditional\proc\p18F4620.asm
                    TXREG   0x000fad       data     extern C:\MCC18\src\traditional\proc\p18F4620.asm
                    RCREG   0x000fae       data     extern C:\MCC18\src\traditional\proc\p18F4620.asm
                    SPBRG   0x000faf       data     extern C:\MCC18\src\traditional\proc\p18F4620.asm
                   SPBRGH   0x000fb0       data     extern C:\MCC18\src\traditional\proc\p18F4620.asm
                    T3CON   0x000fb1       data     extern C:\MCC18\src\traditional\proc\p18F4620.asm
                T3CONbits   0x000fb1       data     extern C:\MCC18\src\traditional\proc\p18F4620.asm
                    TMR3L   0x000fb2       data     extern C:\MCC18\src\traditional\proc\p18F4620.asm
                    TMR3H   0x000fb3       data     extern C:\MCC18\src\traditional\proc\p18F4620.asm
                CMCONbits   0x000fb4       data     extern C:\MCC18\src\traditional\proc\p18F4620.asm
                    CMCON   0x000fb4       data     extern C:\MCC18\src\traditional\proc\p18F4620.asm
               CVRCONbits   0x000fb5       data     extern C:\MCC18\src\traditional\proc\p18F4620.asm
                   CVRCON   0x000fb5       data     extern C:\MCC18\src\traditional\proc\p18F4620.asm
              ECCP1ASbits   0x000fb6       data     extern C:\MCC18\src\traditional\proc\p18F4620.asm
                  ECCP1AS   0x000fb6       data     extern C:\MCC18\src\traditional\proc\p18F4620.asm
                  PWM1CON   0x000fb7       data     extern C:\MCC18\src\traditional\proc\p18F4620.asm
              PWM1CONbits   0x000fb7       data     extern C:\MCC18\src\traditional\proc\p18F4620.asm
                  BAUDCON   0x000fb8       data     extern C:\MCC18\src\traditional\proc\p18F4620.asm
              BAUDCONbits   0x000fb8       data     extern C:\MCC18\src\traditional\proc\p18F4620.asm
                  BAUDCTL   0x000fb8       data     extern C:\MCC18\src\traditional\proc\p18F4620.asm
              BAUDCTLbits   0x000fb8       data     extern C:\MCC18\src\traditional\proc\p18F4620.asm
                  CCP2CON   0x000fba       data     extern C:\MCC18\src\traditional\proc\p18F4620.asm
              CCP2CONbits   0x000fba       data     extern C:\MCC18\src\traditional\proc\p18F4620.asm
                   CCPR2L   0x000fbb       data     extern C:\MCC18\src\traditional\proc\p18F4620.asm
                    CCPR2   0x000fbb       data     extern C:\MCC18\src\traditional\proc\p18F4620.asm
                   CCPR2H   0x000fbc       data     extern C:\MCC18\src\traditional\proc\p18F4620.asm
              CCP1CONbits   0x000fbd       data     extern C:\MCC18\src\traditional\proc\p18F4620.asm
                  CCP1CON   0x000fbd       data     extern C:\MCC18\src\traditional\proc\p18F4620.asm
                    CCPR1   0x000fbe       data     extern C:\MCC18\src\traditional\proc\p18F4620.asm
                   CCPR1L   0x000fbe       data     extern C:\MCC18\src\traditional\proc\p18F4620.asm
                   CCPR1H   0x000fbf       data     extern C:\MCC18\src\traditional\proc\p18F4620.asm
               ADCON2bits   0x000fc0       data     extern C:\MCC18\src\traditional\proc\p18F4620.asm
                   ADCON2   0x000fc0       data     extern C:\MCC18\src\traditional\proc\p18F4620.asm
               ADCON1bits   0x000fc1       data     extern C:\MCC18\src\traditional\proc\p18F4620.asm
                   ADCON1   0x000fc1       data     extern C:\MCC18\src\traditional\proc\p18F4620.asm
                   ADCON0   0x000fc2       data     extern C:\MCC18\src\traditional\proc\p18F4620.asm
               ADCON0bits   0x000fc2       data     extern C:\MCC18\src\traditional\proc\p18F4620.asm
                    ADRES   0x000fc3       data     extern C:\MCC18\src\traditional\proc\p18F4620.asm
                   ADRESL   0x000fc3       data     extern C:\MCC18\src\traditional\proc\p18F4620.asm
                   ADRESH   0x000fc4       data     extern C:\MCC18\src\traditional\proc\p18F4620.asm
                  SSPCON2   0x000fc5       data     extern C:\MCC18\src\traditional\proc\p18F4620.asm
              SSPCON2bits   0x000fc5       data     extern C:\MCC18\src\traditional\proc\p18F4620.asm
                  SSPCON1   0x000fc6       data     extern C:\MCC18\src\traditional\proc\p18F4620.asm
              SSPCON1bits   0x000fc6       data     extern C:\MCC18\src\traditional\proc\p18F4620.asm
                  SSPSTAT   0x000fc7       data     extern C:\MCC18\src\traditional\proc\p18F4620.asm
              SSPSTATbits   0x000fc7       data     extern C:\MCC18\src\traditional\proc\p18F4620.asm
                   SSPADD   0x000fc8       data     extern C:\MCC18\src\traditional\proc\p18F4620.asm
                   SSPBUF   0x000fc9       data     extern C:\MCC18\src\traditional\proc\p18F4620.asm
                    T2CON   0x000fca       data     extern C:\MCC18\src\traditional\proc\p18F4620.asm
                T2CONbits   0x000fca       data     extern C:\MCC18\src\traditional\proc\p18F4620.asm
                      PR2   0x000fcb       data     extern C:\MCC18\src\traditional\proc\p18F4620.asm
                     TMR2   0x000fcc       data     extern C:\MCC18\src\traditional\proc\p18F4620.asm
                T1CONbits   0x000fcd       data     extern C:\MCC18\src\traditional\proc\p18F4620.asm
                    T1CON   0x000fcd       data     extern C:\MCC18\src\traditional\proc\p18F4620.asm
                    TMR1L   0x000fce       data     extern C:\MCC18\src\traditional\proc\p18F4620.asm
                    TMR1H   0x000fcf       data     extern C:\MCC18\src\traditional\proc\p18F4620.asm
                     RCON   0x000fd0       data     extern C:\MCC18\src\traditional\proc\p18F4620.asm
                 RCONbits   0x000fd0       data     extern C:\MCC18\src\traditional\proc\p18F4620.asm
               WDTCONbits   0x000fd1       data     extern C:\MCC18\src\traditional\proc\p18F4620.asm
                   WDTCON   0x000fd1       data     extern C:\MCC18\src\traditional\proc\p18F4620.asm
               LVDCONbits   0x000fd2       data     extern C:\MCC18\src\traditional\proc\p18F4620.asm
                   LVDCON   0x000fd2       data     extern C:\MCC18\src\traditional\proc\p18F4620.asm
              HLVDCONbits   0x000fd2       data     extern C:\MCC18\src\traditional\proc\p18F4620.asm
                  HLVDCON   0x000fd2       data     extern C:\MCC18\src\traditional\proc\p18F4620.asm
               OSCCONbits   0x000fd3       data     extern C:\MCC18\src\traditional\proc\p18F4620.asm
                   OSCCON   0x000fd3       data     extern C:\MCC18\src\traditional\proc\p18F4620.asm
                    DEBUG   0x000fd4       data     extern C:\MCC18\src\traditional\proc\p18F4620.asm
                T0CONbits   0x000fd5       data     extern C:\MCC18\src\traditional\proc\p18F4620.asm
                    T0CON   0x000fd5       data     extern C:\MCC18\src\traditional\proc\p18F4620.asm
                    TMR0L   0x000fd6       data     extern C:\MCC18\src\traditional\proc\p18F4620.asm
                    TMR0H   0x000fd7       data     extern C:\MCC18\src\traditional\proc\p18F4620.asm
                   STATUS   0x000fd8       data     extern C:\MCC18\src\traditional\proc\p18F4620.asm
               STATUSbits   0x000fd8       data     extern C:\MCC18\src\traditional\proc\p18F4620.asm
                     FSR2   0x000fd9       data     extern C:\MCC18\src\traditional\proc\p18F4620.asm
                    FSR2L   0x000fd9       data     extern C:\MCC18\src\traditional\proc\p18F4620.asm
                    FSR2H   0x000fda       data     extern C:\MCC18\src\traditional\proc\p18F4620.asm
                   PLUSW2   0x000fdb       data     extern C:\MCC18\src\traditional\proc\p18F4620.asm
                  PREINC2   0x000fdc       data     extern C:\MCC18\src\traditional\proc\p18F4620.asm
                 POSTDEC2   0x000fdd       data     extern C:\MCC18\src\traditional\proc\p18F4620.asm
                 POSTINC2   0x000fde       data     extern C:\MCC18\src\traditional\proc\p18F4620.asm
                    INDF2   0x000fdf       data     extern C:\MCC18\src\traditional\proc\p18F4620.asm
                      BSR   0x000fe0       data     extern C:\MCC18\src\traditional\proc\p18F4620.asm
                    FSR1L   0x000fe1       data     extern C:\MCC18\src\traditional\proc\p18F4620.asm
                     FSR1   0x000fe1       data     extern C:\MCC18\src\traditional\proc\p18F4620.asm
                    FSR1H   0x000fe2       data     extern C:\MCC18\src\traditional\proc\p18F4620.asm
                   PLUSW1   0x000fe3       data     extern C:\MCC18\src\traditional\proc\p18F4620.asm
                  PREINC1   0x000fe4       data     extern C:\MCC18\src\traditional\proc\p18F4620.asm
                 POSTDEC1   0x000fe5       data     extern C:\MCC18\src\traditional\proc\p18F4620.asm
                 POSTINC1   0x000fe6       data     extern C:\MCC18\src\traditional\proc\p18F4620.asm
                    INDF1   0x000fe7       data     extern C:\MCC18\src\traditional\proc\p18F4620.asm
                        W   0x000fe8       data     extern C:\MCC18\src\traditional\proc\p18F4620.asm
                     WREG   0x000fe8       data     extern C:\MCC18\src\traditional\proc\p18F4620.asm
                    FSR0L   0x000fe9       data     extern C:\MCC18\src\traditional\proc\p18F4620.asm
                     FSR0   0x000fe9       data     extern C:\MCC18\src\traditional\proc\p18F4620.asm
                    FSR0H   0x000fea       data     extern C:\MCC18\src\traditional\proc\p18F4620.asm
                   PLUSW0   0x000feb       data     extern C:\MCC18\src\traditional\proc\p18F4620.asm
                  PREINC0   0x000fec       data     extern C:\MCC18\src\traditional\proc\p18F4620.asm
                 POSTDEC0   0x000fed       data     extern C:\MCC18\src\traditional\proc\p18F4620.asm
                 POSTINC0   0x000fee       data     extern C:\MCC18\src\traditional\proc\p18F4620.asm
                    INDF0   0x000fef       data     extern C:\MCC18\src\traditional\proc\p18F4620.asm
              INTCON3bits   0x000ff0       data     extern C:\MCC18\src\traditional\proc\p18F4620.asm
                  INTCON3   0x000ff0       data     extern C:\MCC18\src\traditional\proc\p18F4620.asm
              INTCON2bits   0x000ff1       data     extern C:\MCC18\src\traditional\proc\p18F4620.asm
                  INTCON2   0x000ff1       data     extern C:\MCC18\src\traditional\proc\p18F4620.asm
                   INTCON   0x000ff2       data     extern C:\MCC18\src\traditional\proc\p18F4620.asm
               INTCONbits   0x000ff2       data     extern C:\MCC18\src\traditional\proc\p18F4620.asm
                     PROD   0x000ff3       data     extern C:\MCC18\src\traditional\proc\p18F4620.asm
                    PRODL   0x000ff3       data     extern C:\MCC18\src\traditional\proc\p18F4620.asm
                    PRODH   0x000ff4       data     extern C:\MCC18\src\traditional\proc\p18F4620.asm
                   TABLAT   0x000ff5       data     extern C:\MCC18\src\traditional\proc\p18F4620.asm
                  TBLPTRL   0x000ff6       data     extern C:\MCC18\src\traditional\proc\p18F4620.asm
                   TBLPTR   0x000ff6       data     extern C:\MCC18\src\traditional\proc\p18F4620.asm
                  TBLPTRH   0x000ff7       data     extern C:\MCC18\src\traditional\proc\p18F4620.asm
                  TBLPTRU   0x000ff8       data     extern C:\MCC18\src\traditional\proc\p18F4620.asm
                      PCL   0x000ff9       data     extern C:\MCC18\src\traditional\proc\p18F4620.asm
                       PC   0x000ff9       data     extern C:\MCC18\src\traditional\proc\p18F4620.asm
                   PCLATH   0x000ffa       data     extern C:\MCC18\src\traditional\proc\p18F4620.asm
                   PCLATU   0x000ffb       data     extern C:\MCC18\src\traditional\proc\p18F4620.asm
                   STKPTR   0x000ffc       data     extern C:\MCC18\src\traditional\proc\p18F4620.asm
               STKPTRbits   0x000ffc       data     extern C:\MCC18\src\traditional\proc\p18F4620.asm
                      TOS   0x000ffd       data     extern C:\MCC18\src\traditional\proc\p18F4620.asm
                     TOSL   0x000ffd       data     extern C:\MCC18\src\traditional\proc\p18F4620.asm
                     TOSH   0x000ffe       data     extern C:\MCC18\src\traditional\proc\p18F4620.asm
                     TOSU   0x000fff       data     extern C:\MCC18\src\traditional\proc\p18F4620.asm


